
RXnode.elf:     file format elf32-littlearm

Sections:
Idx Name          Size      VMA       LMA       File off  Algn
  0 .isr_vector   000002cc  08000000  08000000  00001000  2**0
                  CONTENTS, ALLOC, LOAD, READONLY, DATA
  1 .text         00005ec4  080002cc  080002cc  000012cc  2**2
                  CONTENTS, ALLOC, LOAD, READONLY, CODE
  2 .rodata       00000090  08006190  08006190  00007190  2**2
                  CONTENTS, ALLOC, LOAD, READONLY, DATA
  3 .ARM          00000008  08006220  08006220  00007220  2**2
                  CONTENTS, ALLOC, LOAD, READONLY, DATA
  4 .init_array   00000004  08006228  08006228  00007228  2**2
                  CONTENTS, ALLOC, LOAD, READONLY, DATA
  5 .fini_array   00000004  0800622c  0800622c  0000722c  2**2
                  CONTENTS, ALLOC, LOAD, READONLY, DATA
  6 .data         0000002c  24000000  08006230  00008000  2**2
                  CONTENTS, ALLOC, LOAD, DATA
  7 .bss          000001ac  2400002c  0800625c  0000802c  2**2
                  ALLOC
  8 ._user_heap_stack 00000600  240001d8  0800625c  000081d8  2**0
                  ALLOC
  9 .ARM.attributes 0000002e  00000000  00000000  0000802c  2**0
                  CONTENTS, READONLY
 10 .debug_info   00013066  00000000  00000000  0000805a  2**0
                  CONTENTS, READONLY, DEBUGGING, OCTETS
 11 .debug_abbrev 0000211b  00000000  00000000  0001b0c0  2**0
                  CONTENTS, READONLY, DEBUGGING, OCTETS
 12 .debug_aranges 00000de8  00000000  00000000  0001d1e0  2**3
                  CONTENTS, READONLY, DEBUGGING, OCTETS
 13 .debug_rnglists 00000ab9  00000000  00000000  0001dfc8  2**0
                  CONTENTS, READONLY, DEBUGGING, OCTETS
 14 .debug_macro  00032f04  00000000  00000000  0001ea81  2**0
                  CONTENTS, READONLY, DEBUGGING, OCTETS
 15 .debug_line   00011572  00000000  00000000  00051985  2**0
                  CONTENTS, READONLY, DEBUGGING, OCTETS
 16 .debug_str    0014b9af  00000000  00000000  00062ef7  2**0
                  CONTENTS, READONLY, DEBUGGING, OCTETS
 17 .comment      00000043  00000000  00000000  001ae8a6  2**0
                  CONTENTS, READONLY
 18 .debug_frame  0000370c  00000000  00000000  001ae8ec  2**2
                  CONTENTS, READONLY, DEBUGGING, OCTETS
 19 .debug_line_str 00000042  00000000  00000000  001b1ff8  2**0
                  CONTENTS, READONLY, DEBUGGING, OCTETS

Disassembly of section .text:

080002cc <__do_global_dtors_aux>:
 80002cc:	b510      	push	{r4, lr}
 80002ce:	4c05      	ldr	r4, [pc, #20]	@ (80002e4 <__do_global_dtors_aux+0x18>)
 80002d0:	7823      	ldrb	r3, [r4, #0]
 80002d2:	b933      	cbnz	r3, 80002e2 <__do_global_dtors_aux+0x16>
 80002d4:	4b04      	ldr	r3, [pc, #16]	@ (80002e8 <__do_global_dtors_aux+0x1c>)
 80002d6:	b113      	cbz	r3, 80002de <__do_global_dtors_aux+0x12>
 80002d8:	4804      	ldr	r0, [pc, #16]	@ (80002ec <__do_global_dtors_aux+0x20>)
 80002da:	f3af 8000 	nop.w
 80002de:	2301      	movs	r3, #1
 80002e0:	7023      	strb	r3, [r4, #0]
 80002e2:	bd10      	pop	{r4, pc}
 80002e4:	2400002c 	.word	0x2400002c
 80002e8:	00000000 	.word	0x00000000
 80002ec:	08006178 	.word	0x08006178

080002f0 <frame_dummy>:
 80002f0:	b508      	push	{r3, lr}
 80002f2:	4b03      	ldr	r3, [pc, #12]	@ (8000300 <frame_dummy+0x10>)
 80002f4:	b11b      	cbz	r3, 80002fe <frame_dummy+0xe>
 80002f6:	4903      	ldr	r1, [pc, #12]	@ (8000304 <frame_dummy+0x14>)
 80002f8:	4803      	ldr	r0, [pc, #12]	@ (8000308 <frame_dummy+0x18>)
 80002fa:	f3af 8000 	nop.w
 80002fe:	bd08      	pop	{r3, pc}
 8000300:	00000000 	.word	0x00000000
 8000304:	24000030 	.word	0x24000030
 8000308:	08006178 	.word	0x08006178

0800030c <__aeabi_uldivmod>:
 800030c:	b953      	cbnz	r3, 8000324 <__aeabi_uldivmod+0x18>
 800030e:	b94a      	cbnz	r2, 8000324 <__aeabi_uldivmod+0x18>
 8000310:	2900      	cmp	r1, #0
 8000312:	bf08      	it	eq
 8000314:	2800      	cmpeq	r0, #0
 8000316:	bf1c      	itt	ne
 8000318:	f04f 31ff 	movne.w	r1, #4294967295
 800031c:	f04f 30ff 	movne.w	r0, #4294967295
 8000320:	f000 b988 	b.w	8000634 <__aeabi_idiv0>
 8000324:	f1ad 0c08 	sub.w	ip, sp, #8
 8000328:	e96d ce04 	strd	ip, lr, [sp, #-16]!
 800032c:	f000 f806 	bl	800033c <__udivmoddi4>
 8000330:	f8dd e004 	ldr.w	lr, [sp, #4]
 8000334:	e9dd 2302 	ldrd	r2, r3, [sp, #8]
 8000338:	b004      	add	sp, #16
 800033a:	4770      	bx	lr

0800033c <__udivmoddi4>:
 800033c:	e92d 47f0 	stmdb	sp!, {r4, r5, r6, r7, r8, r9, sl, lr}
 8000340:	9d08      	ldr	r5, [sp, #32]
 8000342:	460f      	mov	r7, r1
 8000344:	4604      	mov	r4, r0
 8000346:	468c      	mov	ip, r1
 8000348:	2b00      	cmp	r3, #0
 800034a:	d148      	bne.n	80003de <__udivmoddi4+0xa2>
 800034c:	428a      	cmp	r2, r1
 800034e:	4616      	mov	r6, r2
 8000350:	d961      	bls.n	8000416 <__udivmoddi4+0xda>
 8000352:	fab2 f382 	clz	r3, r2
 8000356:	b14b      	cbz	r3, 800036c <__udivmoddi4+0x30>
 8000358:	f1c3 0220 	rsb	r2, r3, #32
 800035c:	fa01 fc03 	lsl.w	ip, r1, r3
 8000360:	fa20 f202 	lsr.w	r2, r0, r2
 8000364:	409e      	lsls	r6, r3
 8000366:	ea42 0c0c 	orr.w	ip, r2, ip
 800036a:	409c      	lsls	r4, r3
 800036c:	ea4f 4e16 	mov.w	lr, r6, lsr #16
 8000370:	b2b7      	uxth	r7, r6
 8000372:	fbbc f1fe 	udiv	r1, ip, lr
 8000376:	0c22      	lsrs	r2, r4, #16
 8000378:	fb0e cc11 	mls	ip, lr, r1, ip
 800037c:	ea42 420c 	orr.w	r2, r2, ip, lsl #16
 8000380:	fb01 f007 	mul.w	r0, r1, r7
 8000384:	4290      	cmp	r0, r2
 8000386:	d909      	bls.n	800039c <__udivmoddi4+0x60>
 8000388:	18b2      	adds	r2, r6, r2
 800038a:	f101 3cff 	add.w	ip, r1, #4294967295
 800038e:	f080 80ee 	bcs.w	800056e <__udivmoddi4+0x232>
 8000392:	4290      	cmp	r0, r2
 8000394:	f240 80eb 	bls.w	800056e <__udivmoddi4+0x232>
 8000398:	3902      	subs	r1, #2
 800039a:	4432      	add	r2, r6
 800039c:	1a12      	subs	r2, r2, r0
 800039e:	b2a4      	uxth	r4, r4
 80003a0:	fbb2 f0fe 	udiv	r0, r2, lr
 80003a4:	fb0e 2210 	mls	r2, lr, r0, r2
 80003a8:	ea44 4402 	orr.w	r4, r4, r2, lsl #16
 80003ac:	fb00 f707 	mul.w	r7, r0, r7
 80003b0:	42a7      	cmp	r7, r4
 80003b2:	d909      	bls.n	80003c8 <__udivmoddi4+0x8c>
 80003b4:	1934      	adds	r4, r6, r4
 80003b6:	f100 32ff 	add.w	r2, r0, #4294967295
 80003ba:	f080 80da 	bcs.w	8000572 <__udivmoddi4+0x236>
 80003be:	42a7      	cmp	r7, r4
 80003c0:	f240 80d7 	bls.w	8000572 <__udivmoddi4+0x236>
 80003c4:	4434      	add	r4, r6
 80003c6:	3802      	subs	r0, #2
 80003c8:	ea40 4001 	orr.w	r0, r0, r1, lsl #16
 80003cc:	1be4      	subs	r4, r4, r7
 80003ce:	2100      	movs	r1, #0
 80003d0:	b11d      	cbz	r5, 80003da <__udivmoddi4+0x9e>
 80003d2:	40dc      	lsrs	r4, r3
 80003d4:	2300      	movs	r3, #0
 80003d6:	e9c5 4300 	strd	r4, r3, [r5]
 80003da:	e8bd 87f0 	ldmia.w	sp!, {r4, r5, r6, r7, r8, r9, sl, pc}
 80003de:	428b      	cmp	r3, r1
 80003e0:	d906      	bls.n	80003f0 <__udivmoddi4+0xb4>
 80003e2:	b10d      	cbz	r5, 80003e8 <__udivmoddi4+0xac>
 80003e4:	e9c5 0100 	strd	r0, r1, [r5]
 80003e8:	2100      	movs	r1, #0
 80003ea:	4608      	mov	r0, r1
 80003ec:	e8bd 87f0 	ldmia.w	sp!, {r4, r5, r6, r7, r8, r9, sl, pc}
 80003f0:	fab3 f183 	clz	r1, r3
 80003f4:	2900      	cmp	r1, #0
 80003f6:	d148      	bne.n	800048a <__udivmoddi4+0x14e>
 80003f8:	42bb      	cmp	r3, r7
 80003fa:	d302      	bcc.n	8000402 <__udivmoddi4+0xc6>
 80003fc:	4282      	cmp	r2, r0
 80003fe:	f200 8107 	bhi.w	8000610 <__udivmoddi4+0x2d4>
 8000402:	1a84      	subs	r4, r0, r2
 8000404:	eb67 0203 	sbc.w	r2, r7, r3
 8000408:	2001      	movs	r0, #1
 800040a:	4694      	mov	ip, r2
 800040c:	2d00      	cmp	r5, #0
 800040e:	d0e4      	beq.n	80003da <__udivmoddi4+0x9e>
 8000410:	e9c5 4c00 	strd	r4, ip, [r5]
 8000414:	e7e1      	b.n	80003da <__udivmoddi4+0x9e>
 8000416:	2a00      	cmp	r2, #0
 8000418:	f000 8092 	beq.w	8000540 <__udivmoddi4+0x204>
 800041c:	fab2 f382 	clz	r3, r2
 8000420:	2b00      	cmp	r3, #0
 8000422:	f040 80a8 	bne.w	8000576 <__udivmoddi4+0x23a>
 8000426:	1a8a      	subs	r2, r1, r2
 8000428:	ea4f 4e16 	mov.w	lr, r6, lsr #16
 800042c:	fa1f fc86 	uxth.w	ip, r6
 8000430:	2101      	movs	r1, #1
 8000432:	0c20      	lsrs	r0, r4, #16
 8000434:	fbb2 f7fe 	udiv	r7, r2, lr
 8000438:	fb0e 2217 	mls	r2, lr, r7, r2
 800043c:	ea40 4202 	orr.w	r2, r0, r2, lsl #16
 8000440:	fb0c f007 	mul.w	r0, ip, r7
 8000444:	4290      	cmp	r0, r2
 8000446:	d907      	bls.n	8000458 <__udivmoddi4+0x11c>
 8000448:	18b2      	adds	r2, r6, r2
 800044a:	f107 38ff 	add.w	r8, r7, #4294967295
 800044e:	d202      	bcs.n	8000456 <__udivmoddi4+0x11a>
 8000450:	4290      	cmp	r0, r2
 8000452:	f200 80e2 	bhi.w	800061a <__udivmoddi4+0x2de>
 8000456:	4647      	mov	r7, r8
 8000458:	1a12      	subs	r2, r2, r0
 800045a:	b2a4      	uxth	r4, r4
 800045c:	fbb2 f0fe 	udiv	r0, r2, lr
 8000460:	fb0e 2210 	mls	r2, lr, r0, r2
 8000464:	ea44 4402 	orr.w	r4, r4, r2, lsl #16
 8000468:	fb0c fc00 	mul.w	ip, ip, r0
 800046c:	45a4      	cmp	ip, r4
 800046e:	d907      	bls.n	8000480 <__udivmoddi4+0x144>
 8000470:	1934      	adds	r4, r6, r4
 8000472:	f100 32ff 	add.w	r2, r0, #4294967295
 8000476:	d202      	bcs.n	800047e <__udivmoddi4+0x142>
 8000478:	45a4      	cmp	ip, r4
 800047a:	f200 80cb 	bhi.w	8000614 <__udivmoddi4+0x2d8>
 800047e:	4610      	mov	r0, r2
 8000480:	eba4 040c 	sub.w	r4, r4, ip
 8000484:	ea40 4007 	orr.w	r0, r0, r7, lsl #16
 8000488:	e7a2      	b.n	80003d0 <__udivmoddi4+0x94>
 800048a:	f1c1 0620 	rsb	r6, r1, #32
 800048e:	408b      	lsls	r3, r1
 8000490:	fa22 fc06 	lsr.w	ip, r2, r6
 8000494:	ea4c 0c03 	orr.w	ip, ip, r3
 8000498:	fa07 f401 	lsl.w	r4, r7, r1
 800049c:	fa20 f306 	lsr.w	r3, r0, r6
 80004a0:	40f7      	lsrs	r7, r6
 80004a2:	ea4f 491c 	mov.w	r9, ip, lsr #16
 80004a6:	4323      	orrs	r3, r4
 80004a8:	fa00 f801 	lsl.w	r8, r0, r1
 80004ac:	fa1f fe8c 	uxth.w	lr, ip
 80004b0:	fbb7 f0f9 	udiv	r0, r7, r9
 80004b4:	0c1c      	lsrs	r4, r3, #16
 80004b6:	fb09 7710 	mls	r7, r9, r0, r7
 80004ba:	ea44 4407 	orr.w	r4, r4, r7, lsl #16
 80004be:	fb00 f70e 	mul.w	r7, r0, lr
 80004c2:	42a7      	cmp	r7, r4
 80004c4:	fa02 f201 	lsl.w	r2, r2, r1
 80004c8:	d90a      	bls.n	80004e0 <__udivmoddi4+0x1a4>
 80004ca:	eb1c 0404 	adds.w	r4, ip, r4
 80004ce:	f100 3aff 	add.w	sl, r0, #4294967295
 80004d2:	f080 809b 	bcs.w	800060c <__udivmoddi4+0x2d0>
 80004d6:	42a7      	cmp	r7, r4
 80004d8:	f240 8098 	bls.w	800060c <__udivmoddi4+0x2d0>
 80004dc:	3802      	subs	r0, #2
 80004de:	4464      	add	r4, ip
 80004e0:	1be4      	subs	r4, r4, r7
 80004e2:	b29f      	uxth	r7, r3
 80004e4:	fbb4 f3f9 	udiv	r3, r4, r9
 80004e8:	fb09 4413 	mls	r4, r9, r3, r4
 80004ec:	ea47 4404 	orr.w	r4, r7, r4, lsl #16
 80004f0:	fb03 fe0e 	mul.w	lr, r3, lr
 80004f4:	45a6      	cmp	lr, r4
 80004f6:	d909      	bls.n	800050c <__udivmoddi4+0x1d0>
 80004f8:	eb1c 0404 	adds.w	r4, ip, r4
 80004fc:	f103 37ff 	add.w	r7, r3, #4294967295
 8000500:	f080 8082 	bcs.w	8000608 <__udivmoddi4+0x2cc>
 8000504:	45a6      	cmp	lr, r4
 8000506:	d97f      	bls.n	8000608 <__udivmoddi4+0x2cc>
 8000508:	3b02      	subs	r3, #2
 800050a:	4464      	add	r4, ip
 800050c:	ea43 4000 	orr.w	r0, r3, r0, lsl #16
 8000510:	eba4 040e 	sub.w	r4, r4, lr
 8000514:	fba0 e702 	umull	lr, r7, r0, r2
 8000518:	42bc      	cmp	r4, r7
 800051a:	4673      	mov	r3, lr
 800051c:	46b9      	mov	r9, r7
 800051e:	d363      	bcc.n	80005e8 <__udivmoddi4+0x2ac>
 8000520:	d060      	beq.n	80005e4 <__udivmoddi4+0x2a8>
 8000522:	b15d      	cbz	r5, 800053c <__udivmoddi4+0x200>
 8000524:	ebb8 0203 	subs.w	r2, r8, r3
 8000528:	eb64 0409 	sbc.w	r4, r4, r9
 800052c:	fa04 f606 	lsl.w	r6, r4, r6
 8000530:	fa22 f301 	lsr.w	r3, r2, r1
 8000534:	431e      	orrs	r6, r3
 8000536:	40cc      	lsrs	r4, r1
 8000538:	e9c5 6400 	strd	r6, r4, [r5]
 800053c:	2100      	movs	r1, #0
 800053e:	e74c      	b.n	80003da <__udivmoddi4+0x9e>
 8000540:	0862      	lsrs	r2, r4, #1
 8000542:	0848      	lsrs	r0, r1, #1
 8000544:	ea42 71c1 	orr.w	r1, r2, r1, lsl #31
 8000548:	0c0b      	lsrs	r3, r1, #16
 800054a:	ea43 4300 	orr.w	r3, r3, r0, lsl #16
 800054e:	b28a      	uxth	r2, r1
 8000550:	ea42 4203 	orr.w	r2, r2, r3, lsl #16
 8000554:	fbb3 f1f6 	udiv	r1, r3, r6
 8000558:	07e4      	lsls	r4, r4, #31
 800055a:	46b4      	mov	ip, r6
 800055c:	4637      	mov	r7, r6
 800055e:	46b6      	mov	lr, r6
 8000560:	231f      	movs	r3, #31
 8000562:	fbb0 f0f6 	udiv	r0, r0, r6
 8000566:	1bd2      	subs	r2, r2, r7
 8000568:	ea41 4100 	orr.w	r1, r1, r0, lsl #16
 800056c:	e761      	b.n	8000432 <__udivmoddi4+0xf6>
 800056e:	4661      	mov	r1, ip
 8000570:	e714      	b.n	800039c <__udivmoddi4+0x60>
 8000572:	4610      	mov	r0, r2
 8000574:	e728      	b.n	80003c8 <__udivmoddi4+0x8c>
 8000576:	f1c3 0120 	rsb	r1, r3, #32
 800057a:	fa20 f201 	lsr.w	r2, r0, r1
 800057e:	409e      	lsls	r6, r3
 8000580:	fa27 f101 	lsr.w	r1, r7, r1
 8000584:	409f      	lsls	r7, r3
 8000586:	433a      	orrs	r2, r7
 8000588:	ea4f 4e16 	mov.w	lr, r6, lsr #16
 800058c:	fa1f fc86 	uxth.w	ip, r6
 8000590:	fbb1 f7fe 	udiv	r7, r1, lr
 8000594:	fb0e 1017 	mls	r0, lr, r7, r1
 8000598:	0c11      	lsrs	r1, r2, #16
 800059a:	ea41 4100 	orr.w	r1, r1, r0, lsl #16
 800059e:	fb07 f80c 	mul.w	r8, r7, ip
 80005a2:	4588      	cmp	r8, r1
 80005a4:	fa04 f403 	lsl.w	r4, r4, r3
 80005a8:	d93a      	bls.n	8000620 <__udivmoddi4+0x2e4>
 80005aa:	1871      	adds	r1, r6, r1
 80005ac:	f107 30ff 	add.w	r0, r7, #4294967295
 80005b0:	d201      	bcs.n	80005b6 <__udivmoddi4+0x27a>
 80005b2:	4588      	cmp	r8, r1
 80005b4:	d81f      	bhi.n	80005f6 <__udivmoddi4+0x2ba>
 80005b6:	eba1 0108 	sub.w	r1, r1, r8
 80005ba:	fbb1 f8fe 	udiv	r8, r1, lr
 80005be:	fb08 f70c 	mul.w	r7, r8, ip
 80005c2:	fb0e 1118 	mls	r1, lr, r8, r1
 80005c6:	b292      	uxth	r2, r2
 80005c8:	ea42 4201 	orr.w	r2, r2, r1, lsl #16
 80005cc:	42ba      	cmp	r2, r7
 80005ce:	d22f      	bcs.n	8000630 <__udivmoddi4+0x2f4>
 80005d0:	18b2      	adds	r2, r6, r2
 80005d2:	f108 31ff 	add.w	r1, r8, #4294967295
 80005d6:	d2c6      	bcs.n	8000566 <__udivmoddi4+0x22a>
 80005d8:	42ba      	cmp	r2, r7
 80005da:	d2c4      	bcs.n	8000566 <__udivmoddi4+0x22a>
 80005dc:	f1a8 0102 	sub.w	r1, r8, #2
 80005e0:	4432      	add	r2, r6
 80005e2:	e7c0      	b.n	8000566 <__udivmoddi4+0x22a>
 80005e4:	45f0      	cmp	r8, lr
 80005e6:	d29c      	bcs.n	8000522 <__udivmoddi4+0x1e6>
 80005e8:	ebbe 0302 	subs.w	r3, lr, r2
 80005ec:	eb67 070c 	sbc.w	r7, r7, ip
 80005f0:	3801      	subs	r0, #1
 80005f2:	46b9      	mov	r9, r7
 80005f4:	e795      	b.n	8000522 <__udivmoddi4+0x1e6>
 80005f6:	eba6 0808 	sub.w	r8, r6, r8
 80005fa:	4441      	add	r1, r8
 80005fc:	1eb8      	subs	r0, r7, #2
 80005fe:	fbb1 f8fe 	udiv	r8, r1, lr
 8000602:	fb08 f70c 	mul.w	r7, r8, ip
 8000606:	e7dc      	b.n	80005c2 <__udivmoddi4+0x286>
 8000608:	463b      	mov	r3, r7
 800060a:	e77f      	b.n	800050c <__udivmoddi4+0x1d0>
 800060c:	4650      	mov	r0, sl
 800060e:	e767      	b.n	80004e0 <__udivmoddi4+0x1a4>
 8000610:	4608      	mov	r0, r1
 8000612:	e6fb      	b.n	800040c <__udivmoddi4+0xd0>
 8000614:	4434      	add	r4, r6
 8000616:	3802      	subs	r0, #2
 8000618:	e732      	b.n	8000480 <__udivmoddi4+0x144>
 800061a:	3f02      	subs	r7, #2
 800061c:	4432      	add	r2, r6
 800061e:	e71b      	b.n	8000458 <__udivmoddi4+0x11c>
 8000620:	eba1 0108 	sub.w	r1, r1, r8
 8000624:	4638      	mov	r0, r7
 8000626:	fbb1 f8fe 	udiv	r8, r1, lr
 800062a:	fb08 f70c 	mul.w	r7, r8, ip
 800062e:	e7c8      	b.n	80005c2 <__udivmoddi4+0x286>
 8000630:	4641      	mov	r1, r8
 8000632:	e798      	b.n	8000566 <__udivmoddi4+0x22a>

08000634 <__aeabi_idiv0>:
 8000634:	4770      	bx	lr
 8000636:	bf00      	nop

08000638 <main>:
/**
  * @brief  The application entry point.
  * @retval int
  */
int main(void)
{
 8000638:	b580      	push	{r7, lr}
 800063a:	b08a      	sub	sp, #40	@ 0x28
 800063c:	af02      	add	r7, sp, #8
  /* USER CODE BEGIN 1 */

  /* USER CODE END 1 */

  /* MPU Configuration--------------------------------------------------------*/
  MPU_Config();
 800063e:	f000 f98b 	bl	8000958 <MPU_Config>

  /* MCU Configuration--------------------------------------------------------*/

  /* Reset of all peripherals, Initializes the Flash interface and the Systick. */
  HAL_Init();
 8000642:	f000 fd03 	bl	800104c <HAL_Init>
  /* USER CODE BEGIN Init */

  /* USER CODE END Init */

  /* Configure the system clock */
  SystemClock_Config();
 8000646:	f000 f87b 	bl	8000740 <SystemClock_Config>
  /* USER CODE BEGIN SysInit */

  /* USER CODE END SysInit */

  /* Initialize all configured peripherals */
  MX_GPIO_Init();
 800064a:	f000 f94d 	bl	80008e8 <MX_GPIO_Init>
  MX_FDCAN1_Init();
 800064e:	f000 f8e7 	bl	8000820 <MX_FDCAN1_Init>
  /* USER CODE BEGIN 2 */

  FDCAN_FilterTypeDef sFilterConfig;

  /* Accept ALL standard IDs */
  sFilterConfig.IdType = FDCAN_STANDARD_ID;
 8000652:	2300      	movs	r3, #0
 8000654:	603b      	str	r3, [r7, #0]
  sFilterConfig.FilterIndex = 0;
 8000656:	2300      	movs	r3, #0
 8000658:	607b      	str	r3, [r7, #4]
  sFilterConfig.FilterType = FDCAN_FILTER_MASK;
 800065a:	2302      	movs	r3, #2
 800065c:	60bb      	str	r3, [r7, #8]
  sFilterConfig.FilterConfig = FDCAN_FILTER_TO_RXFIFO0;
 800065e:	2301      	movs	r3, #1
 8000660:	60fb      	str	r3, [r7, #12]
  sFilterConfig.FilterID1 = 0x000;
 8000662:	2300      	movs	r3, #0
 8000664:	613b      	str	r3, [r7, #16]
  sFilterConfig.FilterID2 = 0x000;
 8000666:	2300      	movs	r3, #0
 8000668:	617b      	str	r3, [r7, #20]

  /* Configure filter BEFORE start */
  HAL_FDCAN_ConfigFilter(&hfdcan1, &sFilterConfig);
 800066a:	463b      	mov	r3, r7
 800066c:	4619      	mov	r1, r3
 800066e:	482c      	ldr	r0, [pc, #176]	@ (8000720 <main+0xe8>)
 8000670:	f001 f948 	bl	8001904 <HAL_FDCAN_ConfigFilter>

  /* FIX: Global filter måste vara EFTER init */
  HAL_FDCAN_ConfigGlobalFilter(&hfdcan1,
 8000674:	2301      	movs	r3, #1
 8000676:	9300      	str	r3, [sp, #0]
 8000678:	2301      	movs	r3, #1
 800067a:	2200      	movs	r2, #0
 800067c:	2100      	movs	r1, #0
 800067e:	4828      	ldr	r0, [pc, #160]	@ (8000720 <main+0xe8>)
 8000680:	f001 f9b6 	bl	80019f0 <HAL_FDCAN_ConfigGlobalFilter>
  FDCAN_ACCEPT_IN_RX_FIFO0,
  FDCAN_REJECT_REMOTE,
  FDCAN_REJECT_REMOTE);

  /* Start FDCAN */
  HAL_FDCAN_Start(&hfdcan1);
 8000684:	4826      	ldr	r0, [pc, #152]	@ (8000720 <main+0xe8>)
 8000686:	f001 f9e0 	bl	8001a4a <HAL_FDCAN_Start>

  /* USER CODE END 2 */

  /* Initialize leds */
  BSP_LED_Init(LED_GREEN);
 800068a:	2000      	movs	r0, #0
 800068c:	f000 fb16 	bl	8000cbc <BSP_LED_Init>
  BSP_LED_Init(LED_YELLOW);
 8000690:	2001      	movs	r0, #1
 8000692:	f000 fb13 	bl	8000cbc <BSP_LED_Init>
  BSP_LED_Init(LED_RED);
 8000696:	2002      	movs	r0, #2
 8000698:	f000 fb10 	bl	8000cbc <BSP_LED_Init>

  /* Initialize USER push-button, will be used to trigger an interrupt each time it's pressed.*/
  BSP_PB_Init(BUTTON_USER, BUTTON_MODE_EXTI);
 800069c:	2101      	movs	r1, #1
 800069e:	2000      	movs	r0, #0
 80006a0:	f000 fb82 	bl	8000da8 <BSP_PB_Init>

  /* Initialize COM1 port (115200, 8 bits (7-bit data + 1 stop bit), no parity */
  BspCOMInit.BaudRate   = 115200;
 80006a4:	4b1f      	ldr	r3, [pc, #124]	@ (8000724 <main+0xec>)
 80006a6:	f44f 32e1 	mov.w	r2, #115200	@ 0x1c200
 80006aa:	601a      	str	r2, [r3, #0]
  BspCOMInit.WordLength = COM_WORDLENGTH_8B;
 80006ac:	4b1d      	ldr	r3, [pc, #116]	@ (8000724 <main+0xec>)
 80006ae:	2200      	movs	r2, #0
 80006b0:	605a      	str	r2, [r3, #4]
  BspCOMInit.StopBits   = COM_STOPBITS_1;
 80006b2:	4b1c      	ldr	r3, [pc, #112]	@ (8000724 <main+0xec>)
 80006b4:	2200      	movs	r2, #0
 80006b6:	811a      	strh	r2, [r3, #8]
  BspCOMInit.Parity     = COM_PARITY_NONE;
 80006b8:	4b1a      	ldr	r3, [pc, #104]	@ (8000724 <main+0xec>)
 80006ba:	2200      	movs	r2, #0
 80006bc:	815a      	strh	r2, [r3, #10]
  BspCOMInit.HwFlowCtl  = COM_HWCONTROL_NONE;
 80006be:	4b19      	ldr	r3, [pc, #100]	@ (8000724 <main+0xec>)
 80006c0:	2200      	movs	r2, #0
 80006c2:	819a      	strh	r2, [r3, #12]
  if (BSP_COM_Init(COM1, &BspCOMInit) != BSP_ERROR_NONE)
 80006c4:	4917      	ldr	r1, [pc, #92]	@ (8000724 <main+0xec>)
 80006c6:	2000      	movs	r0, #0
 80006c8:	f000 fbfe 	bl	8000ec8 <BSP_COM_Init>
 80006cc:	4603      	mov	r3, r0
 80006ce:	2b00      	cmp	r3, #0
 80006d0:	d001      	beq.n	80006d6 <main+0x9e>
  {
    Error_Handler();
 80006d2:	f000 f96d 	bl	80009b0 <Error_Handler>

  /* Infinite loop */
  /* USER CODE BEGIN WHILE */

  while (1)
  {      g_fifoLevel = HAL_FDCAN_GetRxFifoFillLevel(&hfdcan1, FDCAN_RX_FIFO0);
 80006d6:	2140      	movs	r1, #64	@ 0x40
 80006d8:	4811      	ldr	r0, [pc, #68]	@ (8000720 <main+0xe8>)
 80006da:	f001 fb5b 	bl	8001d94 <HAL_FDCAN_GetRxFifoFillLevel>
 80006de:	4603      	mov	r3, r0
 80006e0:	4a11      	ldr	r2, [pc, #68]	@ (8000728 <main+0xf0>)
 80006e2:	6013      	str	r3, [r2, #0]

      if (g_fifoLevel > 0)
 80006e4:	4b10      	ldr	r3, [pc, #64]	@ (8000728 <main+0xf0>)
 80006e6:	681b      	ldr	r3, [r3, #0]
 80006e8:	2b00      	cmp	r3, #0
 80006ea:	d0f4      	beq.n	80006d6 <main+0x9e>
      {
          if (HAL_FDCAN_GetRxMessage(&hfdcan1, FDCAN_RX_FIFO0, &g_rxHeader, g_rxData) == HAL_OK)
 80006ec:	4b0f      	ldr	r3, [pc, #60]	@ (800072c <main+0xf4>)
 80006ee:	4a10      	ldr	r2, [pc, #64]	@ (8000730 <main+0xf8>)
 80006f0:	2140      	movs	r1, #64	@ 0x40
 80006f2:	480b      	ldr	r0, [pc, #44]	@ (8000720 <main+0xe8>)
 80006f4:	f001 f9d4 	bl	8001aa0 <HAL_FDCAN_GetRxMessage>
 80006f8:	4603      	mov	r3, r0
 80006fa:	2b00      	cmp	r3, #0
 80006fc:	d109      	bne.n	8000712 <main+0xda>
          {
              g_rxId = g_rxHeader.Identifier;
 80006fe:	4b0c      	ldr	r3, [pc, #48]	@ (8000730 <main+0xf8>)
 8000700:	681b      	ldr	r3, [r3, #0]
 8000702:	4a0c      	ldr	r2, [pc, #48]	@ (8000734 <main+0xfc>)
 8000704:	6013      	str	r3, [r2, #0]
              g_rxCount++;
 8000706:	4b0c      	ldr	r3, [pc, #48]	@ (8000738 <main+0x100>)
 8000708:	681b      	ldr	r3, [r3, #0]
 800070a:	3301      	adds	r3, #1
 800070c:	4a0a      	ldr	r2, [pc, #40]	@ (8000738 <main+0x100>)
 800070e:	6013      	str	r3, [r2, #0]
 8000710:	e7e1      	b.n	80006d6 <main+0x9e>
          }
          else
          {
              g_lastError++;
 8000712:	4b0a      	ldr	r3, [pc, #40]	@ (800073c <main+0x104>)
 8000714:	681b      	ldr	r3, [r3, #0]
 8000716:	3301      	adds	r3, #1
 8000718:	4a08      	ldr	r2, [pc, #32]	@ (800073c <main+0x104>)
 800071a:	6013      	str	r3, [r2, #0]
  {      g_fifoLevel = HAL_FDCAN_GetRxFifoFillLevel(&hfdcan1, FDCAN_RX_FIFO0);
 800071c:	e7db      	b.n	80006d6 <main+0x9e>
 800071e:	bf00      	nop
 8000720:	24000058 	.word	0x24000058
 8000724:	24000048 	.word	0x24000048
 8000728:	2400012c 	.word	0x2400012c
 800072c:	24000120 	.word	0x24000120
 8000730:	240000f8 	.word	0x240000f8
 8000734:	24000128 	.word	0x24000128
 8000738:	24000130 	.word	0x24000130
 800073c:	24000134 	.word	0x24000134

08000740 <SystemClock_Config>:
/**
  * @brief System Clock Configuration
  * @retval None
  */
void SystemClock_Config(void)
{
 8000740:	b580      	push	{r7, lr}
 8000742:	b09c      	sub	sp, #112	@ 0x70
 8000744:	af00      	add	r7, sp, #0
  RCC_OscInitTypeDef RCC_OscInitStruct = {0};
 8000746:	f107 0324 	add.w	r3, r7, #36	@ 0x24
 800074a:	224c      	movs	r2, #76	@ 0x4c
 800074c:	2100      	movs	r1, #0
 800074e:	4618      	mov	r0, r3
 8000750:	f005 fcd8 	bl	8006104 <memset>
  RCC_ClkInitTypeDef RCC_ClkInitStruct = {0};
 8000754:	1d3b      	adds	r3, r7, #4
 8000756:	2220      	movs	r2, #32
 8000758:	2100      	movs	r1, #0
 800075a:	4618      	mov	r0, r3
 800075c:	f005 fcd2 	bl	8006104 <memset>

  /** Supply configuration update enable
  */
  HAL_PWREx_ConfigSupply(PWR_LDO_SUPPLY);
 8000760:	2002      	movs	r0, #2
 8000762:	f001 fe87 	bl	8002474 <HAL_PWREx_ConfigSupply>

  /** Configure the main internal regulator output voltage
  */
  __HAL_PWR_VOLTAGESCALING_CONFIG(PWR_REGULATOR_VOLTAGE_SCALE2);
 8000766:	2300      	movs	r3, #0
 8000768:	603b      	str	r3, [r7, #0]
 800076a:	4b2c      	ldr	r3, [pc, #176]	@ (800081c <SystemClock_Config+0xdc>)
 800076c:	699b      	ldr	r3, [r3, #24]
 800076e:	f423 4340 	bic.w	r3, r3, #49152	@ 0xc000
 8000772:	4a2a      	ldr	r2, [pc, #168]	@ (800081c <SystemClock_Config+0xdc>)
 8000774:	f443 4300 	orr.w	r3, r3, #32768	@ 0x8000
 8000778:	6193      	str	r3, [r2, #24]
 800077a:	4b28      	ldr	r3, [pc, #160]	@ (800081c <SystemClock_Config+0xdc>)
 800077c:	699b      	ldr	r3, [r3, #24]
 800077e:	f403 4340 	and.w	r3, r3, #49152	@ 0xc000
 8000782:	603b      	str	r3, [r7, #0]
 8000784:	683b      	ldr	r3, [r7, #0]

  while(!__HAL_PWR_GET_FLAG(PWR_FLAG_VOSRDY)) {}
 8000786:	bf00      	nop
 8000788:	4b24      	ldr	r3, [pc, #144]	@ (800081c <SystemClock_Config+0xdc>)
 800078a:	699b      	ldr	r3, [r3, #24]
 800078c:	f403 5300 	and.w	r3, r3, #8192	@ 0x2000
 8000790:	f5b3 5f00 	cmp.w	r3, #8192	@ 0x2000
 8000794:	d1f8      	bne.n	8000788 <SystemClock_Config+0x48>

  /** Initializes the RCC Oscillators according to the specified parameters
  * in the RCC_OscInitTypeDef structure.
  */
  RCC_OscInitStruct.OscillatorType = RCC_OSCILLATORTYPE_HSI;
 8000796:	2302      	movs	r3, #2
 8000798:	627b      	str	r3, [r7, #36]	@ 0x24
  RCC_OscInitStruct.HSIState = RCC_HSI_DIV1;
 800079a:	2301      	movs	r3, #1
 800079c:	633b      	str	r3, [r7, #48]	@ 0x30
  RCC_OscInitStruct.HSICalibrationValue = 64;
 800079e:	2340      	movs	r3, #64	@ 0x40
 80007a0:	637b      	str	r3, [r7, #52]	@ 0x34
  RCC_OscInitStruct.PLL.PLLState = RCC_PLL_ON;
 80007a2:	2302      	movs	r3, #2
 80007a4:	64bb      	str	r3, [r7, #72]	@ 0x48
  RCC_OscInitStruct.PLL.PLLSource = RCC_PLLSOURCE_HSI;
 80007a6:	2300      	movs	r3, #0
 80007a8:	64fb      	str	r3, [r7, #76]	@ 0x4c
  RCC_OscInitStruct.PLL.PLLM = 4;
 80007aa:	2304      	movs	r3, #4
 80007ac:	653b      	str	r3, [r7, #80]	@ 0x50
  RCC_OscInitStruct.PLL.PLLN = 12;
 80007ae:	230c      	movs	r3, #12
 80007b0:	657b      	str	r3, [r7, #84]	@ 0x54
  RCC_OscInitStruct.PLL.PLLP = 1;
 80007b2:	2301      	movs	r3, #1
 80007b4:	65bb      	str	r3, [r7, #88]	@ 0x58
  RCC_OscInitStruct.PLL.PLLQ = 4;
 80007b6:	2304      	movs	r3, #4
 80007b8:	65fb      	str	r3, [r7, #92]	@ 0x5c
  RCC_OscInitStruct.PLL.PLLR = 2;
 80007ba:	2302      	movs	r3, #2
 80007bc:	663b      	str	r3, [r7, #96]	@ 0x60
  RCC_OscInitStruct.PLL.PLLRGE = RCC_PLL1VCIRANGE_3;
 80007be:	230c      	movs	r3, #12
 80007c0:	667b      	str	r3, [r7, #100]	@ 0x64
  RCC_OscInitStruct.PLL.PLLVCOSEL = RCC_PLL1VCOWIDE;
 80007c2:	2300      	movs	r3, #0
 80007c4:	66bb      	str	r3, [r7, #104]	@ 0x68
  RCC_OscInitStruct.PLL.PLLFRACN = 0;
 80007c6:	2300      	movs	r3, #0
 80007c8:	66fb      	str	r3, [r7, #108]	@ 0x6c
  if (HAL_RCC_OscConfig(&RCC_OscInitStruct) != HAL_OK)
 80007ca:	f107 0324 	add.w	r3, r7, #36	@ 0x24
 80007ce:	4618      	mov	r0, r3
 80007d0:	f001 fe8a 	bl	80024e8 <HAL_RCC_OscConfig>
 80007d4:	4603      	mov	r3, r0
 80007d6:	2b00      	cmp	r3, #0
 80007d8:	d001      	beq.n	80007de <SystemClock_Config+0x9e>
  {
    Error_Handler();
 80007da:	f000 f8e9 	bl	80009b0 <Error_Handler>
  }

  /** Initializes the CPU, AHB and APB buses clocks
  */
  RCC_ClkInitStruct.ClockType = RCC_CLOCKTYPE_HCLK|RCC_CLOCKTYPE_SYSCLK
 80007de:	233f      	movs	r3, #63	@ 0x3f
 80007e0:	607b      	str	r3, [r7, #4]
                              |RCC_CLOCKTYPE_PCLK1|RCC_CLOCKTYPE_PCLK2
                              |RCC_CLOCKTYPE_D3PCLK1|RCC_CLOCKTYPE_D1PCLK1;
  RCC_ClkInitStruct.SYSCLKSource = RCC_SYSCLKSOURCE_PLLCLK;
 80007e2:	2303      	movs	r3, #3
 80007e4:	60bb      	str	r3, [r7, #8]
  RCC_ClkInitStruct.SYSCLKDivider = RCC_SYSCLK_DIV1;
 80007e6:	2300      	movs	r3, #0
 80007e8:	60fb      	str	r3, [r7, #12]
  RCC_ClkInitStruct.AHBCLKDivider = RCC_HCLK_DIV2;
 80007ea:	2308      	movs	r3, #8
 80007ec:	613b      	str	r3, [r7, #16]
  RCC_ClkInitStruct.APB3CLKDivider = RCC_APB3_DIV2;
 80007ee:	2340      	movs	r3, #64	@ 0x40
 80007f0:	617b      	str	r3, [r7, #20]
  RCC_ClkInitStruct.APB1CLKDivider = RCC_APB1_DIV2;
 80007f2:	2340      	movs	r3, #64	@ 0x40
 80007f4:	61bb      	str	r3, [r7, #24]
  RCC_ClkInitStruct.APB2CLKDivider = RCC_APB2_DIV2;
 80007f6:	f44f 6380 	mov.w	r3, #1024	@ 0x400
 80007fa:	61fb      	str	r3, [r7, #28]
  RCC_ClkInitStruct.APB4CLKDivider = RCC_APB4_DIV2;
 80007fc:	2340      	movs	r3, #64	@ 0x40
 80007fe:	623b      	str	r3, [r7, #32]

  if (HAL_RCC_ClockConfig(&RCC_ClkInitStruct, FLASH_LATENCY_1) != HAL_OK)
 8000800:	1d3b      	adds	r3, r7, #4
 8000802:	2101      	movs	r1, #1
 8000804:	4618      	mov	r0, r3
 8000806:	f002 fa49 	bl	8002c9c <HAL_RCC_ClockConfig>
 800080a:	4603      	mov	r3, r0
 800080c:	2b00      	cmp	r3, #0
 800080e:	d001      	beq.n	8000814 <SystemClock_Config+0xd4>
  {
    Error_Handler();
 8000810:	f000 f8ce 	bl	80009b0 <Error_Handler>
  }
}
 8000814:	bf00      	nop
 8000816:	3770      	adds	r7, #112	@ 0x70
 8000818:	46bd      	mov	sp, r7
 800081a:	bd80      	pop	{r7, pc}
 800081c:	58024800 	.word	0x58024800

08000820 <MX_FDCAN1_Init>:
  * @brief FDCAN1 Initialization Function
  * @param None
  * @retval None
  */
static void MX_FDCAN1_Init(void)
{
 8000820:	b580      	push	{r7, lr}
 8000822:	af00      	add	r7, sp, #0
  /* USER CODE END FDCAN1_Init 0 */

  /* USER CODE BEGIN FDCAN1_Init 1 */

  /* USER CODE END FDCAN1_Init 1 */
  hfdcan1.Instance = FDCAN1;
 8000824:	4b2e      	ldr	r3, [pc, #184]	@ (80008e0 <MX_FDCAN1_Init+0xc0>)
 8000826:	4a2f      	ldr	r2, [pc, #188]	@ (80008e4 <MX_FDCAN1_Init+0xc4>)
 8000828:	601a      	str	r2, [r3, #0]
  hfdcan1.Init.FrameFormat = FDCAN_FRAME_CLASSIC;
 800082a:	4b2d      	ldr	r3, [pc, #180]	@ (80008e0 <MX_FDCAN1_Init+0xc0>)
 800082c:	2200      	movs	r2, #0
 800082e:	609a      	str	r2, [r3, #8]
  hfdcan1.Init.Mode = FDCAN_MODE_NORMAL;
 8000830:	4b2b      	ldr	r3, [pc, #172]	@ (80008e0 <MX_FDCAN1_Init+0xc0>)
 8000832:	2200      	movs	r2, #0
 8000834:	60da      	str	r2, [r3, #12]
  hfdcan1.Init.AutoRetransmission = ENABLE;
 8000836:	4b2a      	ldr	r3, [pc, #168]	@ (80008e0 <MX_FDCAN1_Init+0xc0>)
 8000838:	2201      	movs	r2, #1
 800083a:	741a      	strb	r2, [r3, #16]
  hfdcan1.Init.TransmitPause = DISABLE;
 800083c:	4b28      	ldr	r3, [pc, #160]	@ (80008e0 <MX_FDCAN1_Init+0xc0>)
 800083e:	2200      	movs	r2, #0
 8000840:	745a      	strb	r2, [r3, #17]
  hfdcan1.Init.ProtocolException = DISABLE;
 8000842:	4b27      	ldr	r3, [pc, #156]	@ (80008e0 <MX_FDCAN1_Init+0xc0>)
 8000844:	2200      	movs	r2, #0
 8000846:	749a      	strb	r2, [r3, #18]
  hfdcan1.Init.NominalPrescaler = 6;
 8000848:	4b25      	ldr	r3, [pc, #148]	@ (80008e0 <MX_FDCAN1_Init+0xc0>)
 800084a:	2206      	movs	r2, #6
 800084c:	615a      	str	r2, [r3, #20]
  hfdcan1.Init.NominalSyncJumpWidth = 2;
 800084e:	4b24      	ldr	r3, [pc, #144]	@ (80008e0 <MX_FDCAN1_Init+0xc0>)
 8000850:	2202      	movs	r2, #2
 8000852:	619a      	str	r2, [r3, #24]
  hfdcan1.Init.NominalTimeSeg1 = 11;
 8000854:	4b22      	ldr	r3, [pc, #136]	@ (80008e0 <MX_FDCAN1_Init+0xc0>)
 8000856:	220b      	movs	r2, #11
 8000858:	61da      	str	r2, [r3, #28]
  hfdcan1.Init.NominalTimeSeg2 = 4;
 800085a:	4b21      	ldr	r3, [pc, #132]	@ (80008e0 <MX_FDCAN1_Init+0xc0>)
 800085c:	2204      	movs	r2, #4
 800085e:	621a      	str	r2, [r3, #32]
  hfdcan1.Init.DataPrescaler = 1;
 8000860:	4b1f      	ldr	r3, [pc, #124]	@ (80008e0 <MX_FDCAN1_Init+0xc0>)
 8000862:	2201      	movs	r2, #1
 8000864:	625a      	str	r2, [r3, #36]	@ 0x24
  hfdcan1.Init.DataSyncJumpWidth = 6;
 8000866:	4b1e      	ldr	r3, [pc, #120]	@ (80008e0 <MX_FDCAN1_Init+0xc0>)
 8000868:	2206      	movs	r2, #6
 800086a:	629a      	str	r2, [r3, #40]	@ 0x28
  hfdcan1.Init.DataTimeSeg1 = 17;
 800086c:	4b1c      	ldr	r3, [pc, #112]	@ (80008e0 <MX_FDCAN1_Init+0xc0>)
 800086e:	2211      	movs	r2, #17
 8000870:	62da      	str	r2, [r3, #44]	@ 0x2c
  hfdcan1.Init.DataTimeSeg2 = 6;
 8000872:	4b1b      	ldr	r3, [pc, #108]	@ (80008e0 <MX_FDCAN1_Init+0xc0>)
 8000874:	2206      	movs	r2, #6
 8000876:	631a      	str	r2, [r3, #48]	@ 0x30
  hfdcan1.Init.MessageRAMOffset = 0;
 8000878:	4b19      	ldr	r3, [pc, #100]	@ (80008e0 <MX_FDCAN1_Init+0xc0>)
 800087a:	2200      	movs	r2, #0
 800087c:	635a      	str	r2, [r3, #52]	@ 0x34
  hfdcan1.Init.StdFiltersNbr = 1;
 800087e:	4b18      	ldr	r3, [pc, #96]	@ (80008e0 <MX_FDCAN1_Init+0xc0>)
 8000880:	2201      	movs	r2, #1
 8000882:	639a      	str	r2, [r3, #56]	@ 0x38
  hfdcan1.Init.ExtFiltersNbr = 0;
 8000884:	4b16      	ldr	r3, [pc, #88]	@ (80008e0 <MX_FDCAN1_Init+0xc0>)
 8000886:	2200      	movs	r2, #0
 8000888:	63da      	str	r2, [r3, #60]	@ 0x3c
  hfdcan1.Init.RxFifo0ElmtsNbr = 4;
 800088a:	4b15      	ldr	r3, [pc, #84]	@ (80008e0 <MX_FDCAN1_Init+0xc0>)
 800088c:	2204      	movs	r2, #4
 800088e:	641a      	str	r2, [r3, #64]	@ 0x40
  hfdcan1.Init.RxFifo0ElmtSize = FDCAN_DATA_BYTES_8;
 8000890:	4b13      	ldr	r3, [pc, #76]	@ (80008e0 <MX_FDCAN1_Init+0xc0>)
 8000892:	2204      	movs	r2, #4
 8000894:	645a      	str	r2, [r3, #68]	@ 0x44
  hfdcan1.Init.RxFifo1ElmtsNbr = 0;
 8000896:	4b12      	ldr	r3, [pc, #72]	@ (80008e0 <MX_FDCAN1_Init+0xc0>)
 8000898:	2200      	movs	r2, #0
 800089a:	649a      	str	r2, [r3, #72]	@ 0x48
  hfdcan1.Init.RxFifo1ElmtSize = FDCAN_DATA_BYTES_8;
 800089c:	4b10      	ldr	r3, [pc, #64]	@ (80008e0 <MX_FDCAN1_Init+0xc0>)
 800089e:	2204      	movs	r2, #4
 80008a0:	64da      	str	r2, [r3, #76]	@ 0x4c
  hfdcan1.Init.RxBuffersNbr = 0;
 80008a2:	4b0f      	ldr	r3, [pc, #60]	@ (80008e0 <MX_FDCAN1_Init+0xc0>)
 80008a4:	2200      	movs	r2, #0
 80008a6:	651a      	str	r2, [r3, #80]	@ 0x50
  hfdcan1.Init.RxBufferSize = FDCAN_DATA_BYTES_8;
 80008a8:	4b0d      	ldr	r3, [pc, #52]	@ (80008e0 <MX_FDCAN1_Init+0xc0>)
 80008aa:	2204      	movs	r2, #4
 80008ac:	655a      	str	r2, [r3, #84]	@ 0x54
  hfdcan1.Init.TxEventsNbr = 0;
 80008ae:	4b0c      	ldr	r3, [pc, #48]	@ (80008e0 <MX_FDCAN1_Init+0xc0>)
 80008b0:	2200      	movs	r2, #0
 80008b2:	659a      	str	r2, [r3, #88]	@ 0x58
  hfdcan1.Init.TxBuffersNbr = 0;
 80008b4:	4b0a      	ldr	r3, [pc, #40]	@ (80008e0 <MX_FDCAN1_Init+0xc0>)
 80008b6:	2200      	movs	r2, #0
 80008b8:	65da      	str	r2, [r3, #92]	@ 0x5c
  hfdcan1.Init.TxFifoQueueElmtsNbr = 0;
 80008ba:	4b09      	ldr	r3, [pc, #36]	@ (80008e0 <MX_FDCAN1_Init+0xc0>)
 80008bc:	2200      	movs	r2, #0
 80008be:	661a      	str	r2, [r3, #96]	@ 0x60
  hfdcan1.Init.TxFifoQueueMode = FDCAN_TX_FIFO_OPERATION;
 80008c0:	4b07      	ldr	r3, [pc, #28]	@ (80008e0 <MX_FDCAN1_Init+0xc0>)
 80008c2:	2200      	movs	r2, #0
 80008c4:	665a      	str	r2, [r3, #100]	@ 0x64
  hfdcan1.Init.TxElmtSize = FDCAN_DATA_BYTES_8;
 80008c6:	4b06      	ldr	r3, [pc, #24]	@ (80008e0 <MX_FDCAN1_Init+0xc0>)
 80008c8:	2204      	movs	r2, #4
 80008ca:	669a      	str	r2, [r3, #104]	@ 0x68
  if (HAL_FDCAN_Init(&hfdcan1) != HAL_OK)
 80008cc:	4804      	ldr	r0, [pc, #16]	@ (80008e0 <MX_FDCAN1_Init+0xc0>)
 80008ce:	f000 fe3b 	bl	8001548 <HAL_FDCAN_Init>
 80008d2:	4603      	mov	r3, r0
 80008d4:	2b00      	cmp	r3, #0
 80008d6:	d001      	beq.n	80008dc <MX_FDCAN1_Init+0xbc>
  {
    Error_Handler();
 80008d8:	f000 f86a 	bl	80009b0 <Error_Handler>
  }
  /* USER CODE BEGIN FDCAN1_Init 2 */

  /* USER CODE END FDCAN1_Init 2 */

}
 80008dc:	bf00      	nop
 80008de:	bd80      	pop	{r7, pc}
 80008e0:	24000058 	.word	0x24000058
 80008e4:	4000a000 	.word	0x4000a000

080008e8 <MX_GPIO_Init>:
  * @brief GPIO Initialization Function
  * @param None
  * @retval None
  */
static void MX_GPIO_Init(void)
{
 80008e8:	b480      	push	{r7}
 80008ea:	b085      	sub	sp, #20
 80008ec:	af00      	add	r7, sp, #0
  /* USER CODE BEGIN MX_GPIO_Init_1 */

  /* USER CODE END MX_GPIO_Init_1 */

  /* GPIO Ports Clock Enable */
  __HAL_RCC_GPIOC_CLK_ENABLE();
 80008ee:	4b19      	ldr	r3, [pc, #100]	@ (8000954 <MX_GPIO_Init+0x6c>)
 80008f0:	f8d3 30e0 	ldr.w	r3, [r3, #224]	@ 0xe0
 80008f4:	4a17      	ldr	r2, [pc, #92]	@ (8000954 <MX_GPIO_Init+0x6c>)
 80008f6:	f043 0304 	orr.w	r3, r3, #4
 80008fa:	f8c2 30e0 	str.w	r3, [r2, #224]	@ 0xe0
 80008fe:	4b15      	ldr	r3, [pc, #84]	@ (8000954 <MX_GPIO_Init+0x6c>)
 8000900:	f8d3 30e0 	ldr.w	r3, [r3, #224]	@ 0xe0
 8000904:	f003 0304 	and.w	r3, r3, #4
 8000908:	60fb      	str	r3, [r7, #12]
 800090a:	68fb      	ldr	r3, [r7, #12]
  __HAL_RCC_GPIOA_CLK_ENABLE();
 800090c:	4b11      	ldr	r3, [pc, #68]	@ (8000954 <MX_GPIO_Init+0x6c>)
 800090e:	f8d3 30e0 	ldr.w	r3, [r3, #224]	@ 0xe0
 8000912:	4a10      	ldr	r2, [pc, #64]	@ (8000954 <MX_GPIO_Init+0x6c>)
 8000914:	f043 0301 	orr.w	r3, r3, #1
 8000918:	f8c2 30e0 	str.w	r3, [r2, #224]	@ 0xe0
 800091c:	4b0d      	ldr	r3, [pc, #52]	@ (8000954 <MX_GPIO_Init+0x6c>)
 800091e:	f8d3 30e0 	ldr.w	r3, [r3, #224]	@ 0xe0
 8000922:	f003 0301 	and.w	r3, r3, #1
 8000926:	60bb      	str	r3, [r7, #8]
 8000928:	68bb      	ldr	r3, [r7, #8]
  __HAL_RCC_GPIOD_CLK_ENABLE();
 800092a:	4b0a      	ldr	r3, [pc, #40]	@ (8000954 <MX_GPIO_Init+0x6c>)
 800092c:	f8d3 30e0 	ldr.w	r3, [r3, #224]	@ 0xe0
 8000930:	4a08      	ldr	r2, [pc, #32]	@ (8000954 <MX_GPIO_Init+0x6c>)
 8000932:	f043 0308 	orr.w	r3, r3, #8
 8000936:	f8c2 30e0 	str.w	r3, [r2, #224]	@ 0xe0
 800093a:	4b06      	ldr	r3, [pc, #24]	@ (8000954 <MX_GPIO_Init+0x6c>)
 800093c:	f8d3 30e0 	ldr.w	r3, [r3, #224]	@ 0xe0
 8000940:	f003 0308 	and.w	r3, r3, #8
 8000944:	607b      	str	r3, [r7, #4]
 8000946:	687b      	ldr	r3, [r7, #4]

  /* USER CODE BEGIN MX_GPIO_Init_2 */

  /* USER CODE END MX_GPIO_Init_2 */
}
 8000948:	bf00      	nop
 800094a:	3714      	adds	r7, #20
 800094c:	46bd      	mov	sp, r7
 800094e:	f85d 7b04 	ldr.w	r7, [sp], #4
 8000952:	4770      	bx	lr
 8000954:	58024400 	.word	0x58024400

08000958 <MPU_Config>:
/* USER CODE END 4 */

 /* MPU Configuration */

void MPU_Config(void)
{
 8000958:	b580      	push	{r7, lr}
 800095a:	b084      	sub	sp, #16
 800095c:	af00      	add	r7, sp, #0
  MPU_Region_InitTypeDef MPU_InitStruct = {0};
 800095e:	463b      	mov	r3, r7
 8000960:	2200      	movs	r2, #0
 8000962:	601a      	str	r2, [r3, #0]
 8000964:	605a      	str	r2, [r3, #4]
 8000966:	609a      	str	r2, [r3, #8]
 8000968:	60da      	str	r2, [r3, #12]

  /* Disables the MPU */
  HAL_MPU_Disable();
 800096a:	f000 fd11 	bl	8001390 <HAL_MPU_Disable>

  /** Initializes and configures the Region and the memory to be protected
  */
  MPU_InitStruct.Enable = MPU_REGION_ENABLE;
 800096e:	2301      	movs	r3, #1
 8000970:	703b      	strb	r3, [r7, #0]
  MPU_InitStruct.Number = MPU_REGION_NUMBER0;
 8000972:	2300      	movs	r3, #0
 8000974:	707b      	strb	r3, [r7, #1]
  MPU_InitStruct.BaseAddress = 0x0;
 8000976:	2300      	movs	r3, #0
 8000978:	607b      	str	r3, [r7, #4]
  MPU_InitStruct.Size = MPU_REGION_SIZE_4GB;
 800097a:	231f      	movs	r3, #31
 800097c:	723b      	strb	r3, [r7, #8]
  MPU_InitStruct.SubRegionDisable = 0x87;
 800097e:	2387      	movs	r3, #135	@ 0x87
 8000980:	727b      	strb	r3, [r7, #9]
  MPU_InitStruct.TypeExtField = MPU_TEX_LEVEL0;
 8000982:	2300      	movs	r3, #0
 8000984:	72bb      	strb	r3, [r7, #10]
  MPU_InitStruct.AccessPermission = MPU_REGION_NO_ACCESS;
 8000986:	2300      	movs	r3, #0
 8000988:	72fb      	strb	r3, [r7, #11]
  MPU_InitStruct.DisableExec = MPU_INSTRUCTION_ACCESS_DISABLE;
 800098a:	2301      	movs	r3, #1
 800098c:	733b      	strb	r3, [r7, #12]
  MPU_InitStruct.IsShareable = MPU_ACCESS_SHAREABLE;
 800098e:	2301      	movs	r3, #1
 8000990:	737b      	strb	r3, [r7, #13]
  MPU_InitStruct.IsCacheable = MPU_ACCESS_NOT_CACHEABLE;
 8000992:	2300      	movs	r3, #0
 8000994:	73bb      	strb	r3, [r7, #14]
  MPU_InitStruct.IsBufferable = MPU_ACCESS_NOT_BUFFERABLE;
 8000996:	2300      	movs	r3, #0
 8000998:	73fb      	strb	r3, [r7, #15]

  HAL_MPU_ConfigRegion(&MPU_InitStruct);
 800099a:	463b      	mov	r3, r7
 800099c:	4618      	mov	r0, r3
 800099e:	f000 fd2f 	bl	8001400 <HAL_MPU_ConfigRegion>
  /* Enables the MPU */
  HAL_MPU_Enable(MPU_PRIVILEGED_DEFAULT);
 80009a2:	2004      	movs	r0, #4
 80009a4:	f000 fd0c 	bl	80013c0 <HAL_MPU_Enable>

}
 80009a8:	bf00      	nop
 80009aa:	3710      	adds	r7, #16
 80009ac:	46bd      	mov	sp, r7
 80009ae:	bd80      	pop	{r7, pc}

080009b0 <Error_Handler>:
/**
  * @brief  This function is executed in case of error occurrence.
  * @retval None
  */
void Error_Handler(void)
{
 80009b0:	b480      	push	{r7}
 80009b2:	af00      	add	r7, sp, #0
  \details Disables IRQ interrupts by setting special-purpose register PRIMASK.
           Can only be executed in Privileged modes.
 */
__STATIC_FORCEINLINE void __disable_irq(void)
{
  __ASM volatile ("cpsid i" : : : "memory");
 80009b4:	b672      	cpsid	i
}
 80009b6:	bf00      	nop
  /* USER CODE BEGIN Error_Handler_Debug */
  /* User can add his own implementation to report the HAL error return state */
  __disable_irq();
  while (1)
 80009b8:	bf00      	nop
 80009ba:	e7fd      	b.n	80009b8 <Error_Handler+0x8>

080009bc <HAL_MspInit>:
/* USER CODE END 0 */
/**
  * Initializes the Global MSP.
  */
void HAL_MspInit(void)
{
 80009bc:	b480      	push	{r7}
 80009be:	b083      	sub	sp, #12
 80009c0:	af00      	add	r7, sp, #0

  /* USER CODE BEGIN MspInit 0 */

  /* USER CODE END MspInit 0 */

  __HAL_RCC_SYSCFG_CLK_ENABLE();
 80009c2:	4b0a      	ldr	r3, [pc, #40]	@ (80009ec <HAL_MspInit+0x30>)
 80009c4:	f8d3 30f4 	ldr.w	r3, [r3, #244]	@ 0xf4
 80009c8:	4a08      	ldr	r2, [pc, #32]	@ (80009ec <HAL_MspInit+0x30>)
 80009ca:	f043 0302 	orr.w	r3, r3, #2
 80009ce:	f8c2 30f4 	str.w	r3, [r2, #244]	@ 0xf4
 80009d2:	4b06      	ldr	r3, [pc, #24]	@ (80009ec <HAL_MspInit+0x30>)
 80009d4:	f8d3 30f4 	ldr.w	r3, [r3, #244]	@ 0xf4
 80009d8:	f003 0302 	and.w	r3, r3, #2
 80009dc:	607b      	str	r3, [r7, #4]
 80009de:	687b      	ldr	r3, [r7, #4]
  /* System interrupt init*/

  /* USER CODE BEGIN MspInit 1 */

  /* USER CODE END MspInit 1 */
}
 80009e0:	bf00      	nop
 80009e2:	370c      	adds	r7, #12
 80009e4:	46bd      	mov	sp, r7
 80009e6:	f85d 7b04 	ldr.w	r7, [sp], #4
 80009ea:	4770      	bx	lr
 80009ec:	58024400 	.word	0x58024400

080009f0 <HAL_FDCAN_MspInit>:
  * This function configures the hardware resources used in this example
  * @param hfdcan: FDCAN handle pointer
  * @retval None
  */
void HAL_FDCAN_MspInit(FDCAN_HandleTypeDef* hfdcan)
{
 80009f0:	b580      	push	{r7, lr}
 80009f2:	b0b8      	sub	sp, #224	@ 0xe0
 80009f4:	af00      	add	r7, sp, #0
 80009f6:	6078      	str	r0, [r7, #4]
  GPIO_InitTypeDef GPIO_InitStruct = {0};
 80009f8:	f107 03cc 	add.w	r3, r7, #204	@ 0xcc
 80009fc:	2200      	movs	r2, #0
 80009fe:	601a      	str	r2, [r3, #0]
 8000a00:	605a      	str	r2, [r3, #4]
 8000a02:	609a      	str	r2, [r3, #8]
 8000a04:	60da      	str	r2, [r3, #12]
 8000a06:	611a      	str	r2, [r3, #16]
  RCC_PeriphCLKInitTypeDef PeriphClkInitStruct = {0};
 8000a08:	f107 0310 	add.w	r3, r7, #16
 8000a0c:	22b8      	movs	r2, #184	@ 0xb8
 8000a0e:	2100      	movs	r1, #0
 8000a10:	4618      	mov	r0, r3
 8000a12:	f005 fb77 	bl	8006104 <memset>
  if(hfdcan->Instance==FDCAN1)
 8000a16:	687b      	ldr	r3, [r7, #4]
 8000a18:	681b      	ldr	r3, [r3, #0]
 8000a1a:	4a26      	ldr	r2, [pc, #152]	@ (8000ab4 <HAL_FDCAN_MspInit+0xc4>)
 8000a1c:	4293      	cmp	r3, r2
 8000a1e:	d145      	bne.n	8000aac <HAL_FDCAN_MspInit+0xbc>

    /* USER CODE END FDCAN1_MspInit 0 */

  /** Initializes the peripherals clock
  */
    PeriphClkInitStruct.PeriphClockSelection = RCC_PERIPHCLK_FDCAN;
 8000a20:	f44f 4200 	mov.w	r2, #32768	@ 0x8000
 8000a24:	f04f 0300 	mov.w	r3, #0
 8000a28:	e9c7 2304 	strd	r2, r3, [r7, #16]
    PeriphClkInitStruct.FdcanClockSelection = RCC_FDCANCLKSOURCE_PLL;
 8000a2c:	f04f 5380 	mov.w	r3, #268435456	@ 0x10000000
 8000a30:	67fb      	str	r3, [r7, #124]	@ 0x7c
    if (HAL_RCCEx_PeriphCLKConfig(&PeriphClkInitStruct) != HAL_OK)
 8000a32:	f107 0310 	add.w	r3, r7, #16
 8000a36:	4618      	mov	r0, r3
 8000a38:	f002 fcbc 	bl	80033b4 <HAL_RCCEx_PeriphCLKConfig>
 8000a3c:	4603      	mov	r3, r0
 8000a3e:	2b00      	cmp	r3, #0
 8000a40:	d001      	beq.n	8000a46 <HAL_FDCAN_MspInit+0x56>
    {
      Error_Handler();
 8000a42:	f7ff ffb5 	bl	80009b0 <Error_Handler>
    }

    /* Peripheral clock enable */
    __HAL_RCC_FDCAN_CLK_ENABLE();
 8000a46:	4b1c      	ldr	r3, [pc, #112]	@ (8000ab8 <HAL_FDCAN_MspInit+0xc8>)
 8000a48:	f8d3 30ec 	ldr.w	r3, [r3, #236]	@ 0xec
 8000a4c:	4a1a      	ldr	r2, [pc, #104]	@ (8000ab8 <HAL_FDCAN_MspInit+0xc8>)
 8000a4e:	f443 7380 	orr.w	r3, r3, #256	@ 0x100
 8000a52:	f8c2 30ec 	str.w	r3, [r2, #236]	@ 0xec
 8000a56:	4b18      	ldr	r3, [pc, #96]	@ (8000ab8 <HAL_FDCAN_MspInit+0xc8>)
 8000a58:	f8d3 30ec 	ldr.w	r3, [r3, #236]	@ 0xec
 8000a5c:	f403 7380 	and.w	r3, r3, #256	@ 0x100
 8000a60:	60fb      	str	r3, [r7, #12]
 8000a62:	68fb      	ldr	r3, [r7, #12]

    __HAL_RCC_GPIOD_CLK_ENABLE();
 8000a64:	4b14      	ldr	r3, [pc, #80]	@ (8000ab8 <HAL_FDCAN_MspInit+0xc8>)
 8000a66:	f8d3 30e0 	ldr.w	r3, [r3, #224]	@ 0xe0
 8000a6a:	4a13      	ldr	r2, [pc, #76]	@ (8000ab8 <HAL_FDCAN_MspInit+0xc8>)
 8000a6c:	f043 0308 	orr.w	r3, r3, #8
 8000a70:	f8c2 30e0 	str.w	r3, [r2, #224]	@ 0xe0
 8000a74:	4b10      	ldr	r3, [pc, #64]	@ (8000ab8 <HAL_FDCAN_MspInit+0xc8>)
 8000a76:	f8d3 30e0 	ldr.w	r3, [r3, #224]	@ 0xe0
 8000a7a:	f003 0308 	and.w	r3, r3, #8
 8000a7e:	60bb      	str	r3, [r7, #8]
 8000a80:	68bb      	ldr	r3, [r7, #8]
    /**FDCAN1 GPIO Configuration
    PD0     ------> FDCAN1_RX
    PD1     ------> FDCAN1_TX
    */
    GPIO_InitStruct.Pin = GPIO_PIN_0|GPIO_PIN_1;
 8000a82:	2303      	movs	r3, #3
 8000a84:	f8c7 30cc 	str.w	r3, [r7, #204]	@ 0xcc
    GPIO_InitStruct.Mode = GPIO_MODE_AF_PP;
 8000a88:	2302      	movs	r3, #2
 8000a8a:	f8c7 30d0 	str.w	r3, [r7, #208]	@ 0xd0
    GPIO_InitStruct.Pull = GPIO_NOPULL;
 8000a8e:	2300      	movs	r3, #0
 8000a90:	f8c7 30d4 	str.w	r3, [r7, #212]	@ 0xd4
    GPIO_InitStruct.Speed = GPIO_SPEED_FREQ_LOW;
 8000a94:	2300      	movs	r3, #0
 8000a96:	f8c7 30d8 	str.w	r3, [r7, #216]	@ 0xd8
    GPIO_InitStruct.Alternate = GPIO_AF9_FDCAN1;
 8000a9a:	2309      	movs	r3, #9
 8000a9c:	f8c7 30dc 	str.w	r3, [r7, #220]	@ 0xdc
    HAL_GPIO_Init(GPIOD, &GPIO_InitStruct);
 8000aa0:	f107 03cc 	add.w	r3, r7, #204	@ 0xcc
 8000aa4:	4619      	mov	r1, r3
 8000aa6:	4805      	ldr	r0, [pc, #20]	@ (8000abc <HAL_FDCAN_MspInit+0xcc>)
 8000aa8:	f001 fb18 	bl	80020dc <HAL_GPIO_Init>

    /* USER CODE END FDCAN1_MspInit 1 */

  }

}
 8000aac:	bf00      	nop
 8000aae:	37e0      	adds	r7, #224	@ 0xe0
 8000ab0:	46bd      	mov	sp, r7
 8000ab2:	bd80      	pop	{r7, pc}
 8000ab4:	4000a000 	.word	0x4000a000
 8000ab8:	58024400 	.word	0x58024400
 8000abc:	58020c00 	.word	0x58020c00

08000ac0 <NMI_Handler>:
/******************************************************************************/
/**
  * @brief This function handles Non maskable interrupt.
  */
void NMI_Handler(void)
{
 8000ac0:	b480      	push	{r7}
 8000ac2:	af00      	add	r7, sp, #0
  /* USER CODE BEGIN NonMaskableInt_IRQn 0 */

  /* USER CODE END NonMaskableInt_IRQn 0 */
  /* USER CODE BEGIN NonMaskableInt_IRQn 1 */
   while (1)
 8000ac4:	bf00      	nop
 8000ac6:	e7fd      	b.n	8000ac4 <NMI_Handler+0x4>

08000ac8 <HardFault_Handler>:

/**
  * @brief This function handles Hard fault interrupt.
  */
void HardFault_Handler(void)
{
 8000ac8:	b480      	push	{r7}
 8000aca:	af00      	add	r7, sp, #0
  /* USER CODE BEGIN HardFault_IRQn 0 */

  /* USER CODE END HardFault_IRQn 0 */
  while (1)
 8000acc:	bf00      	nop
 8000ace:	e7fd      	b.n	8000acc <HardFault_Handler+0x4>

08000ad0 <MemManage_Handler>:

/**
  * @brief This function handles Memory management fault.
  */
void MemManage_Handler(void)
{
 8000ad0:	b480      	push	{r7}
 8000ad2:	af00      	add	r7, sp, #0
  /* USER CODE BEGIN MemoryManagement_IRQn 0 */

  /* USER CODE END MemoryManagement_IRQn 0 */
  while (1)
 8000ad4:	bf00      	nop
 8000ad6:	e7fd      	b.n	8000ad4 <MemManage_Handler+0x4>

08000ad8 <BusFault_Handler>:

/**
  * @brief This function handles Pre-fetch fault, memory access fault.
  */
void BusFault_Handler(void)
{
 8000ad8:	b480      	push	{r7}
 8000ada:	af00      	add	r7, sp, #0
  /* USER CODE BEGIN BusFault_IRQn 0 */

  /* USER CODE END BusFault_IRQn 0 */
  while (1)
 8000adc:	bf00      	nop
 8000ade:	e7fd      	b.n	8000adc <BusFault_Handler+0x4>

08000ae0 <UsageFault_Handler>:

/**
  * @brief This function handles Undefined instruction or illegal state.
  */
void UsageFault_Handler(void)
{
 8000ae0:	b480      	push	{r7}
 8000ae2:	af00      	add	r7, sp, #0
  /* USER CODE BEGIN UsageFault_IRQn 0 */

  /* USER CODE END UsageFault_IRQn 0 */
  while (1)
 8000ae4:	bf00      	nop
 8000ae6:	e7fd      	b.n	8000ae4 <UsageFault_Handler+0x4>

08000ae8 <SVC_Handler>:

/**
  * @brief This function handles System service call via SWI instruction.
  */
void SVC_Handler(void)
{
 8000ae8:	b480      	push	{r7}
 8000aea:	af00      	add	r7, sp, #0

  /* USER CODE END SVCall_IRQn 0 */
  /* USER CODE BEGIN SVCall_IRQn 1 */

  /* USER CODE END SVCall_IRQn 1 */
}
 8000aec:	bf00      	nop
 8000aee:	46bd      	mov	sp, r7
 8000af0:	f85d 7b04 	ldr.w	r7, [sp], #4
 8000af4:	4770      	bx	lr

08000af6 <DebugMon_Handler>:

/**
  * @brief This function handles Debug monitor.
  */
void DebugMon_Handler(void)
{
 8000af6:	b480      	push	{r7}
 8000af8:	af00      	add	r7, sp, #0

  /* USER CODE END DebugMonitor_IRQn 0 */
  /* USER CODE BEGIN DebugMonitor_IRQn 1 */

  /* USER CODE END DebugMonitor_IRQn 1 */
}
 8000afa:	bf00      	nop
 8000afc:	46bd      	mov	sp, r7
 8000afe:	f85d 7b04 	ldr.w	r7, [sp], #4
 8000b02:	4770      	bx	lr

08000b04 <PendSV_Handler>:

/**
  * @brief This function handles Pendable request for system service.
  */
void PendSV_Handler(void)
{
 8000b04:	b480      	push	{r7}
 8000b06:	af00      	add	r7, sp, #0

  /* USER CODE END PendSV_IRQn 0 */
  /* USER CODE BEGIN PendSV_IRQn 1 */

  /* USER CODE END PendSV_IRQn 1 */
}
 8000b08:	bf00      	nop
 8000b0a:	46bd      	mov	sp, r7
 8000b0c:	f85d 7b04 	ldr.w	r7, [sp], #4
 8000b10:	4770      	bx	lr

08000b12 <SysTick_Handler>:

/**
  * @brief This function handles System tick timer.
  */
void SysTick_Handler(void)
{
 8000b12:	b580      	push	{r7, lr}
 8000b14:	af00      	add	r7, sp, #0
  /* USER CODE BEGIN SysTick_IRQn 0 */

  /* USER CODE END SysTick_IRQn 0 */
  HAL_IncTick();
 8000b16:	f000 fb0b 	bl	8001130 <HAL_IncTick>
  /* USER CODE BEGIN SysTick_IRQn 1 */

  /* USER CODE END SysTick_IRQn 1 */
}
 8000b1a:	bf00      	nop
 8000b1c:	bd80      	pop	{r7, pc}

08000b1e <EXTI15_10_IRQHandler>:

/**
  * @brief This function handles EXTI line[15:10] interrupts.
  */
void EXTI15_10_IRQHandler(void)
{
 8000b1e:	b580      	push	{r7, lr}
 8000b20:	af00      	add	r7, sp, #0
  /* USER CODE BEGIN EXTI15_10_IRQn 0 */

  /* USER CODE END EXTI15_10_IRQn 0 */
  BSP_PB_IRQHandler(BUTTON_USER);
 8000b22:	2000      	movs	r0, #0
 8000b24:	f000 f9b2 	bl	8000e8c <BSP_PB_IRQHandler>
  /* USER CODE BEGIN EXTI15_10_IRQn 1 */

  /* USER CODE END EXTI15_10_IRQn 1 */
}
 8000b28:	bf00      	nop
 8000b2a:	bd80      	pop	{r7, pc}

08000b2c <SystemInit>:
  *         configuration.
  * @param  None
  * @retval None
  */
void SystemInit (void)
{
 8000b2c:	b480      	push	{r7}
 8000b2e:	af00      	add	r7, sp, #0
 __IO uint32_t tmpreg;
#endif /* DATA_IN_D2_SRAM */

  /* FPU settings ------------------------------------------------------------*/
  #if (__FPU_PRESENT == 1) && (__FPU_USED == 1)
    SCB->CPACR |= ((3UL << (10*2))|(3UL << (11*2)));  /* set CP10 and CP11 Full Access */
 8000b30:	4b3e      	ldr	r3, [pc, #248]	@ (8000c2c <SystemInit+0x100>)
 8000b32:	f8d3 3088 	ldr.w	r3, [r3, #136]	@ 0x88
 8000b36:	4a3d      	ldr	r2, [pc, #244]	@ (8000c2c <SystemInit+0x100>)
 8000b38:	f443 0370 	orr.w	r3, r3, #15728640	@ 0xf00000
 8000b3c:	f8c2 3088 	str.w	r3, [r2, #136]	@ 0x88
  #endif
  /* Reset the RCC clock configuration to the default reset state ------------*/

   /* Increasing the CPU frequency */
  if(FLASH_LATENCY_DEFAULT  > (READ_BIT((FLASH->ACR), FLASH_ACR_LATENCY)))
 8000b40:	4b3b      	ldr	r3, [pc, #236]	@ (8000c30 <SystemInit+0x104>)
 8000b42:	681b      	ldr	r3, [r3, #0]
 8000b44:	f003 030f 	and.w	r3, r3, #15
 8000b48:	2b06      	cmp	r3, #6
 8000b4a:	d807      	bhi.n	8000b5c <SystemInit+0x30>
  {
    /* Program the new number of wait states to the LATENCY bits in the FLASH_ACR register */
    MODIFY_REG(FLASH->ACR, FLASH_ACR_LATENCY, (uint32_t)(FLASH_LATENCY_DEFAULT));
 8000b4c:	4b38      	ldr	r3, [pc, #224]	@ (8000c30 <SystemInit+0x104>)
 8000b4e:	681b      	ldr	r3, [r3, #0]
 8000b50:	f023 030f 	bic.w	r3, r3, #15
 8000b54:	4a36      	ldr	r2, [pc, #216]	@ (8000c30 <SystemInit+0x104>)
 8000b56:	f043 0307 	orr.w	r3, r3, #7
 8000b5a:	6013      	str	r3, [r2, #0]
  }

  /* Set HSION bit */
  RCC->CR |= RCC_CR_HSION;
 8000b5c:	4b35      	ldr	r3, [pc, #212]	@ (8000c34 <SystemInit+0x108>)
 8000b5e:	681b      	ldr	r3, [r3, #0]
 8000b60:	4a34      	ldr	r2, [pc, #208]	@ (8000c34 <SystemInit+0x108>)
 8000b62:	f043 0301 	orr.w	r3, r3, #1
 8000b66:	6013      	str	r3, [r2, #0]

  /* Reset CFGR register */
  RCC->CFGR = 0x00000000;
 8000b68:	4b32      	ldr	r3, [pc, #200]	@ (8000c34 <SystemInit+0x108>)
 8000b6a:	2200      	movs	r2, #0
 8000b6c:	611a      	str	r2, [r3, #16]

  /* Reset HSEON, HSECSSON, CSION, HSI48ON, CSIKERON, PLL1ON, PLL2ON and PLL3ON bits */
  RCC->CR &= 0xEAF6ED7FU;
 8000b6e:	4b31      	ldr	r3, [pc, #196]	@ (8000c34 <SystemInit+0x108>)
 8000b70:	681a      	ldr	r2, [r3, #0]
 8000b72:	4930      	ldr	r1, [pc, #192]	@ (8000c34 <SystemInit+0x108>)
 8000b74:	4b30      	ldr	r3, [pc, #192]	@ (8000c38 <SystemInit+0x10c>)
 8000b76:	4013      	ands	r3, r2
 8000b78:	600b      	str	r3, [r1, #0]

   /* Decreasing the number of wait states because of lower CPU frequency */
  if(FLASH_LATENCY_DEFAULT  < (READ_BIT((FLASH->ACR), FLASH_ACR_LATENCY)))
 8000b7a:	4b2d      	ldr	r3, [pc, #180]	@ (8000c30 <SystemInit+0x104>)
 8000b7c:	681b      	ldr	r3, [r3, #0]
 8000b7e:	f003 0308 	and.w	r3, r3, #8
 8000b82:	2b00      	cmp	r3, #0
 8000b84:	d007      	beq.n	8000b96 <SystemInit+0x6a>
  {
    /* Program the new number of wait states to the LATENCY bits in the FLASH_ACR register */
    MODIFY_REG(FLASH->ACR, FLASH_ACR_LATENCY, (uint32_t)(FLASH_LATENCY_DEFAULT));
 8000b86:	4b2a      	ldr	r3, [pc, #168]	@ (8000c30 <SystemInit+0x104>)
 8000b88:	681b      	ldr	r3, [r3, #0]
 8000b8a:	f023 030f 	bic.w	r3, r3, #15
 8000b8e:	4a28      	ldr	r2, [pc, #160]	@ (8000c30 <SystemInit+0x104>)
 8000b90:	f043 0307 	orr.w	r3, r3, #7
 8000b94:	6013      	str	r3, [r2, #0]
  }

#if defined(D3_SRAM_BASE)
  /* Reset D1CFGR register */
  RCC->D1CFGR = 0x00000000;
 8000b96:	4b27      	ldr	r3, [pc, #156]	@ (8000c34 <SystemInit+0x108>)
 8000b98:	2200      	movs	r2, #0
 8000b9a:	619a      	str	r2, [r3, #24]

  /* Reset D2CFGR register */
  RCC->D2CFGR = 0x00000000;
 8000b9c:	4b25      	ldr	r3, [pc, #148]	@ (8000c34 <SystemInit+0x108>)
 8000b9e:	2200      	movs	r2, #0
 8000ba0:	61da      	str	r2, [r3, #28]

  /* Reset D3CFGR register */
  RCC->D3CFGR = 0x00000000;
 8000ba2:	4b24      	ldr	r3, [pc, #144]	@ (8000c34 <SystemInit+0x108>)
 8000ba4:	2200      	movs	r2, #0
 8000ba6:	621a      	str	r2, [r3, #32]

  /* Reset SRDCFGR register */
  RCC->SRDCFGR = 0x00000000;
#endif
  /* Reset PLLCKSELR register */
  RCC->PLLCKSELR = 0x02020200;
 8000ba8:	4b22      	ldr	r3, [pc, #136]	@ (8000c34 <SystemInit+0x108>)
 8000baa:	4a24      	ldr	r2, [pc, #144]	@ (8000c3c <SystemInit+0x110>)
 8000bac:	629a      	str	r2, [r3, #40]	@ 0x28

  /* Reset PLLCFGR register */
  RCC->PLLCFGR = 0x01FF0000;
 8000bae:	4b21      	ldr	r3, [pc, #132]	@ (8000c34 <SystemInit+0x108>)
 8000bb0:	4a23      	ldr	r2, [pc, #140]	@ (8000c40 <SystemInit+0x114>)
 8000bb2:	62da      	str	r2, [r3, #44]	@ 0x2c
  /* Reset PLL1DIVR register */
  RCC->PLL1DIVR = 0x01010280;
 8000bb4:	4b1f      	ldr	r3, [pc, #124]	@ (8000c34 <SystemInit+0x108>)
 8000bb6:	4a23      	ldr	r2, [pc, #140]	@ (8000c44 <SystemInit+0x118>)
 8000bb8:	631a      	str	r2, [r3, #48]	@ 0x30
  /* Reset PLL1FRACR register */
  RCC->PLL1FRACR = 0x00000000;
 8000bba:	4b1e      	ldr	r3, [pc, #120]	@ (8000c34 <SystemInit+0x108>)
 8000bbc:	2200      	movs	r2, #0
 8000bbe:	635a      	str	r2, [r3, #52]	@ 0x34

  /* Reset PLL2DIVR register */
  RCC->PLL2DIVR = 0x01010280;
 8000bc0:	4b1c      	ldr	r3, [pc, #112]	@ (8000c34 <SystemInit+0x108>)
 8000bc2:	4a20      	ldr	r2, [pc, #128]	@ (8000c44 <SystemInit+0x118>)
 8000bc4:	639a      	str	r2, [r3, #56]	@ 0x38

  /* Reset PLL2FRACR register */

  RCC->PLL2FRACR = 0x00000000;
 8000bc6:	4b1b      	ldr	r3, [pc, #108]	@ (8000c34 <SystemInit+0x108>)
 8000bc8:	2200      	movs	r2, #0
 8000bca:	63da      	str	r2, [r3, #60]	@ 0x3c
  /* Reset PLL3DIVR register */
  RCC->PLL3DIVR = 0x01010280;
 8000bcc:	4b19      	ldr	r3, [pc, #100]	@ (8000c34 <SystemInit+0x108>)
 8000bce:	4a1d      	ldr	r2, [pc, #116]	@ (8000c44 <SystemInit+0x118>)
 8000bd0:	641a      	str	r2, [r3, #64]	@ 0x40

  /* Reset PLL3FRACR register */
  RCC->PLL3FRACR = 0x00000000;
 8000bd2:	4b18      	ldr	r3, [pc, #96]	@ (8000c34 <SystemInit+0x108>)
 8000bd4:	2200      	movs	r2, #0
 8000bd6:	645a      	str	r2, [r3, #68]	@ 0x44

  /* Reset HSEBYP bit */
  RCC->CR &= 0xFFFBFFFFU;
 8000bd8:	4b16      	ldr	r3, [pc, #88]	@ (8000c34 <SystemInit+0x108>)
 8000bda:	681b      	ldr	r3, [r3, #0]
 8000bdc:	4a15      	ldr	r2, [pc, #84]	@ (8000c34 <SystemInit+0x108>)
 8000bde:	f423 2380 	bic.w	r3, r3, #262144	@ 0x40000
 8000be2:	6013      	str	r3, [r2, #0]

  /* Disable all interrupts */
  RCC->CIER = 0x00000000;
 8000be4:	4b13      	ldr	r3, [pc, #76]	@ (8000c34 <SystemInit+0x108>)
 8000be6:	2200      	movs	r2, #0
 8000be8:	661a      	str	r2, [r3, #96]	@ 0x60
#if defined(USER_VECT_TAB_ADDRESS)
  SCB->VTOR = VECT_TAB_BASE_ADDRESS | VECT_TAB_OFFSET; /* Vector Table Relocation in Internal D2 AXI-RAM or in Internal FLASH */
#endif /* USER_VECT_TAB_ADDRESS */

#else
  if(READ_BIT(RCC->AHB3ENR, RCC_AHB3ENR_FMCEN) == 0U)
 8000bea:	4b12      	ldr	r3, [pc, #72]	@ (8000c34 <SystemInit+0x108>)
 8000bec:	f8d3 30d4 	ldr.w	r3, [r3, #212]	@ 0xd4
 8000bf0:	f403 5380 	and.w	r3, r3, #4096	@ 0x1000
 8000bf4:	2b00      	cmp	r3, #0
 8000bf6:	d113      	bne.n	8000c20 <SystemInit+0xf4>
  {
    /* Enable the FMC interface clock */
    SET_BIT(RCC->AHB3ENR, RCC_AHB3ENR_FMCEN);
 8000bf8:	4b0e      	ldr	r3, [pc, #56]	@ (8000c34 <SystemInit+0x108>)
 8000bfa:	f8d3 30d4 	ldr.w	r3, [r3, #212]	@ 0xd4
 8000bfe:	4a0d      	ldr	r2, [pc, #52]	@ (8000c34 <SystemInit+0x108>)
 8000c00:	f443 5380 	orr.w	r3, r3, #4096	@ 0x1000
 8000c04:	f8c2 30d4 	str.w	r3, [r2, #212]	@ 0xd4
    /*
     * Disable the FMC bank1 (enabled after reset).
     * This, prevents CPU speculation access on this bank which blocks the use of FMC during
     * 24us. During this time the others FMC master (such as LTDC) cannot use it!
     */
    FMC_Bank1_R->BTCR[0] = 0x000030D2;
 8000c08:	4b0f      	ldr	r3, [pc, #60]	@ (8000c48 <SystemInit+0x11c>)
 8000c0a:	f243 02d2 	movw	r2, #12498	@ 0x30d2
 8000c0e:	601a      	str	r2, [r3, #0]

    /* Disable the FMC interface clock */
    CLEAR_BIT(RCC->AHB3ENR, RCC_AHB3ENR_FMCEN);
 8000c10:	4b08      	ldr	r3, [pc, #32]	@ (8000c34 <SystemInit+0x108>)
 8000c12:	f8d3 30d4 	ldr.w	r3, [r3, #212]	@ 0xd4
 8000c16:	4a07      	ldr	r2, [pc, #28]	@ (8000c34 <SystemInit+0x108>)
 8000c18:	f423 5380 	bic.w	r3, r3, #4096	@ 0x1000
 8000c1c:	f8c2 30d4 	str.w	r3, [r2, #212]	@ 0xd4
#if defined(USER_VECT_TAB_ADDRESS)
  SCB->VTOR = VECT_TAB_BASE_ADDRESS | VECT_TAB_OFFSET; /* Vector Table Relocation in Internal D1 AXI-RAM or in Internal FLASH */
#endif /* USER_VECT_TAB_ADDRESS */

#endif /*DUAL_CORE && CORE_CM4*/
}
 8000c20:	bf00      	nop
 8000c22:	46bd      	mov	sp, r7
 8000c24:	f85d 7b04 	ldr.w	r7, [sp], #4
 8000c28:	4770      	bx	lr
 8000c2a:	bf00      	nop
 8000c2c:	e000ed00 	.word	0xe000ed00
 8000c30:	52002000 	.word	0x52002000
 8000c34:	58024400 	.word	0x58024400
 8000c38:	eaf6ed7f 	.word	0xeaf6ed7f
 8000c3c:	02020200 	.word	0x02020200
 8000c40:	01ff0000 	.word	0x01ff0000
 8000c44:	01010280 	.word	0x01010280
 8000c48:	52004000 	.word	0x52004000

08000c4c <ExitRun0Mode>:
  #if defined(SMPS)
    /* Exit Run* mode by disabling SMPS and enabling LDO */
    PWR->CR3 = (PWR->CR3 & ~PWR_CR3_SMPSEN) | PWR_CR3_LDOEN;
  #else
    /* Enable LDO mode */
    PWR->CR3 |= PWR_CR3_LDOEN;
 8000c4c:	4b04      	ldr	r3, [pc, #16]	@ (8000c60 <ExitRun0Mode+0x14>)
 8000c4e:	68da      	ldr	r2, [r3, #12]
 8000c50:	f042 0202 	orr.w	r2, r2, #2
 8000c54:	60da      	str	r2, [r3, #12]
  #endif /* SMPS */
  /* Wait till voltage level flag is set */
  while ((PWR->CSR1 & PWR_CSR1_ACTVOSRDY) == 0U)
 8000c56:	685a      	ldr	r2, [r3, #4]
 8000c58:	0492      	lsls	r2, r2, #18
 8000c5a:	d5fc      	bpl.n	8000c56 <ExitRun0Mode+0xa>
  while ((PWR->CSR1 & PWR_CSR1_ACTVOSRDY) == 0U)
  {}
#else
  /* No system power supply configuration is selected at exit Run* mode */
#endif /* USE_PWR_LDO_SUPPLY */
}
 8000c5c:	4770      	bx	lr
 8000c5e:	bf00      	nop
 8000c60:	58024800 	.word	0x58024800

08000c64 <Reset_Handler>:

    .section  .text.Reset_Handler
  .weak  Reset_Handler
  .type  Reset_Handler, %function
Reset_Handler:
  ldr   sp, =_estack      /* set stack pointer */
 8000c64:	f8df d038 	ldr.w	sp, [pc, #56]	@ 8000ca0 <LoopForever+0x2>

/* Call the ExitRun0Mode function to configure the power supply */
  bl  ExitRun0Mode
 8000c68:	f7ff fff0 	bl	8000c4c <ExitRun0Mode>
/* Call the clock system initialization function.*/
  bl  SystemInit
 8000c6c:	f7ff ff5e 	bl	8000b2c <SystemInit>

/* Copy the data segment initializers from flash to SRAM */
  ldr r0, =_sdata
 8000c70:	480c      	ldr	r0, [pc, #48]	@ (8000ca4 <LoopForever+0x6>)
  ldr r1, =_edata
 8000c72:	490d      	ldr	r1, [pc, #52]	@ (8000ca8 <LoopForever+0xa>)
  ldr r2, =_sidata
 8000c74:	4a0d      	ldr	r2, [pc, #52]	@ (8000cac <LoopForever+0xe>)
  movs r3, #0
 8000c76:	2300      	movs	r3, #0
  b LoopCopyDataInit
 8000c78:	e002      	b.n	8000c80 <LoopCopyDataInit>

08000c7a <CopyDataInit>:

CopyDataInit:
  ldr r4, [r2, r3]
 8000c7a:	58d4      	ldr	r4, [r2, r3]
  str r4, [r0, r3]
 8000c7c:	50c4      	str	r4, [r0, r3]
  adds r3, r3, #4
 8000c7e:	3304      	adds	r3, #4

08000c80 <LoopCopyDataInit>:

LoopCopyDataInit:
  adds r4, r0, r3
 8000c80:	18c4      	adds	r4, r0, r3
  cmp r4, r1
 8000c82:	428c      	cmp	r4, r1
  bcc CopyDataInit
 8000c84:	d3f9      	bcc.n	8000c7a <CopyDataInit>
/* Zero fill the bss segment. */
  ldr r2, =_sbss
 8000c86:	4a0a      	ldr	r2, [pc, #40]	@ (8000cb0 <LoopForever+0x12>)
  ldr r4, =_ebss
 8000c88:	4c0a      	ldr	r4, [pc, #40]	@ (8000cb4 <LoopForever+0x16>)
  movs r3, #0
 8000c8a:	2300      	movs	r3, #0
  b LoopFillZerobss
 8000c8c:	e001      	b.n	8000c92 <LoopFillZerobss>

08000c8e <FillZerobss>:

FillZerobss:
  str  r3, [r2]
 8000c8e:	6013      	str	r3, [r2, #0]
  adds r2, r2, #4
 8000c90:	3204      	adds	r2, #4

08000c92 <LoopFillZerobss>:

LoopFillZerobss:
  cmp r2, r4
 8000c92:	42a2      	cmp	r2, r4
  bcc FillZerobss
 8000c94:	d3fb      	bcc.n	8000c8e <FillZerobss>

/* Call static constructors */
    bl __libc_init_array
 8000c96:	f005 fa3d 	bl	8006114 <__libc_init_array>
/* Call the application's entry point.*/
    bl  main
 8000c9a:	f7ff fccd 	bl	8000638 <main>

08000c9e <LoopForever>:
LoopForever:
    b LoopForever
 8000c9e:	e7fe      	b.n	8000c9e <LoopForever>
  ldr   sp, =_estack      /* set stack pointer */
 8000ca0:	24050000 	.word	0x24050000
  ldr r0, =_sdata
 8000ca4:	24000000 	.word	0x24000000
  ldr r1, =_edata
 8000ca8:	2400002c 	.word	0x2400002c
  ldr r2, =_sidata
 8000cac:	08006230 	.word	0x08006230
  ldr r2, =_sbss
 8000cb0:	2400002c 	.word	0x2400002c
  ldr r4, =_ebss
 8000cb4:	240001d8 	.word	0x240001d8

08000cb8 <ADC3_IRQHandler>:
 * @retval None
*/
    .section  .text.Default_Handler,"ax",%progbits
Default_Handler:
Infinite_Loop:
  b  Infinite_Loop
 8000cb8:	e7fe      	b.n	8000cb8 <ADC3_IRQHandler>
	...

08000cbc <BSP_LED_Init>:
  *     @arg  LED2
  *     @arg  LED3
  * @retval BSP status
  */
int32_t BSP_LED_Init(Led_TypeDef Led)
{
 8000cbc:	b580      	push	{r7, lr}
 8000cbe:	b08c      	sub	sp, #48	@ 0x30
 8000cc0:	af00      	add	r7, sp, #0
 8000cc2:	4603      	mov	r3, r0
 8000cc4:	71fb      	strb	r3, [r7, #7]
  int32_t ret = BSP_ERROR_NONE;
 8000cc6:	2300      	movs	r3, #0
 8000cc8:	62fb      	str	r3, [r7, #44]	@ 0x2c
  GPIO_InitTypeDef  gpio_init_structure;

  if((Led != LED1) && (Led != LED2) && (Led != LED3))
 8000cca:	79fb      	ldrb	r3, [r7, #7]
 8000ccc:	2b00      	cmp	r3, #0
 8000cce:	d009      	beq.n	8000ce4 <BSP_LED_Init+0x28>
 8000cd0:	79fb      	ldrb	r3, [r7, #7]
 8000cd2:	2b01      	cmp	r3, #1
 8000cd4:	d006      	beq.n	8000ce4 <BSP_LED_Init+0x28>
 8000cd6:	79fb      	ldrb	r3, [r7, #7]
 8000cd8:	2b02      	cmp	r3, #2
 8000cda:	d003      	beq.n	8000ce4 <BSP_LED_Init+0x28>
  {
    ret = BSP_ERROR_WRONG_PARAM;
 8000cdc:	f06f 0301 	mvn.w	r3, #1
 8000ce0:	62fb      	str	r3, [r7, #44]	@ 0x2c
 8000ce2:	e055      	b.n	8000d90 <BSP_LED_Init+0xd4>
  }
  else
  {
    /* Enable the GPIO LED Clock */
    if(Led == LED1)
 8000ce4:	79fb      	ldrb	r3, [r7, #7]
 8000ce6:	2b00      	cmp	r3, #0
 8000ce8:	d10f      	bne.n	8000d0a <BSP_LED_Init+0x4e>
    {
      LED1_GPIO_CLK_ENABLE();
 8000cea:	4b2c      	ldr	r3, [pc, #176]	@ (8000d9c <BSP_LED_Init+0xe0>)
 8000cec:	f8d3 30e0 	ldr.w	r3, [r3, #224]	@ 0xe0
 8000cf0:	4a2a      	ldr	r2, [pc, #168]	@ (8000d9c <BSP_LED_Init+0xe0>)
 8000cf2:	f043 0302 	orr.w	r3, r3, #2
 8000cf6:	f8c2 30e0 	str.w	r3, [r2, #224]	@ 0xe0
 8000cfa:	4b28      	ldr	r3, [pc, #160]	@ (8000d9c <BSP_LED_Init+0xe0>)
 8000cfc:	f8d3 30e0 	ldr.w	r3, [r3, #224]	@ 0xe0
 8000d00:	f003 0302 	and.w	r3, r3, #2
 8000d04:	617b      	str	r3, [r7, #20]
 8000d06:	697b      	ldr	r3, [r7, #20]
 8000d08:	e021      	b.n	8000d4e <BSP_LED_Init+0x92>
    }
    else if(Led == LED2)
 8000d0a:	79fb      	ldrb	r3, [r7, #7]
 8000d0c:	2b01      	cmp	r3, #1
 8000d0e:	d10f      	bne.n	8000d30 <BSP_LED_Init+0x74>
    {
      LED2_GPIO_CLK_ENABLE();
 8000d10:	4b22      	ldr	r3, [pc, #136]	@ (8000d9c <BSP_LED_Init+0xe0>)
 8000d12:	f8d3 30e0 	ldr.w	r3, [r3, #224]	@ 0xe0
 8000d16:	4a21      	ldr	r2, [pc, #132]	@ (8000d9c <BSP_LED_Init+0xe0>)
 8000d18:	f043 0310 	orr.w	r3, r3, #16
 8000d1c:	f8c2 30e0 	str.w	r3, [r2, #224]	@ 0xe0
 8000d20:	4b1e      	ldr	r3, [pc, #120]	@ (8000d9c <BSP_LED_Init+0xe0>)
 8000d22:	f8d3 30e0 	ldr.w	r3, [r3, #224]	@ 0xe0
 8000d26:	f003 0310 	and.w	r3, r3, #16
 8000d2a:	613b      	str	r3, [r7, #16]
 8000d2c:	693b      	ldr	r3, [r7, #16]
 8000d2e:	e00e      	b.n	8000d4e <BSP_LED_Init+0x92>
    }
    else
    {
      LED3_GPIO_CLK_ENABLE();
 8000d30:	4b1a      	ldr	r3, [pc, #104]	@ (8000d9c <BSP_LED_Init+0xe0>)
 8000d32:	f8d3 30e0 	ldr.w	r3, [r3, #224]	@ 0xe0
 8000d36:	4a19      	ldr	r2, [pc, #100]	@ (8000d9c <BSP_LED_Init+0xe0>)
 8000d38:	f043 0302 	orr.w	r3, r3, #2
 8000d3c:	f8c2 30e0 	str.w	r3, [r2, #224]	@ 0xe0
 8000d40:	4b16      	ldr	r3, [pc, #88]	@ (8000d9c <BSP_LED_Init+0xe0>)
 8000d42:	f8d3 30e0 	ldr.w	r3, [r3, #224]	@ 0xe0
 8000d46:	f003 0302 	and.w	r3, r3, #2
 8000d4a:	60fb      	str	r3, [r7, #12]
 8000d4c:	68fb      	ldr	r3, [r7, #12]
    }
    /* Configure the GPIO_LED pin */
    gpio_init_structure.Pin   = LED_PIN[Led];
 8000d4e:	79fb      	ldrb	r3, [r7, #7]
 8000d50:	4a13      	ldr	r2, [pc, #76]	@ (8000da0 <BSP_LED_Init+0xe4>)
 8000d52:	f832 3013 	ldrh.w	r3, [r2, r3, lsl #1]
 8000d56:	61bb      	str	r3, [r7, #24]
    gpio_init_structure.Mode  = GPIO_MODE_OUTPUT_PP;
 8000d58:	2301      	movs	r3, #1
 8000d5a:	61fb      	str	r3, [r7, #28]
    gpio_init_structure.Pull  = GPIO_NOPULL;
 8000d5c:	2300      	movs	r3, #0
 8000d5e:	623b      	str	r3, [r7, #32]
    gpio_init_structure.Speed = GPIO_SPEED_FREQ_VERY_HIGH;
 8000d60:	2303      	movs	r3, #3
 8000d62:	627b      	str	r3, [r7, #36]	@ 0x24

    HAL_GPIO_Init(LED_PORT[Led], &gpio_init_structure);
 8000d64:	79fb      	ldrb	r3, [r7, #7]
 8000d66:	4a0f      	ldr	r2, [pc, #60]	@ (8000da4 <BSP_LED_Init+0xe8>)
 8000d68:	f852 3023 	ldr.w	r3, [r2, r3, lsl #2]
 8000d6c:	f107 0218 	add.w	r2, r7, #24
 8000d70:	4611      	mov	r1, r2
 8000d72:	4618      	mov	r0, r3
 8000d74:	f001 f9b2 	bl	80020dc <HAL_GPIO_Init>
    HAL_GPIO_WritePin(LED_PORT[Led], LED_PIN[Led], GPIO_PIN_RESET);
 8000d78:	79fb      	ldrb	r3, [r7, #7]
 8000d7a:	4a0a      	ldr	r2, [pc, #40]	@ (8000da4 <BSP_LED_Init+0xe8>)
 8000d7c:	f852 0023 	ldr.w	r0, [r2, r3, lsl #2]
 8000d80:	79fb      	ldrb	r3, [r7, #7]
 8000d82:	4a07      	ldr	r2, [pc, #28]	@ (8000da0 <BSP_LED_Init+0xe4>)
 8000d84:	f832 3013 	ldrh.w	r3, [r2, r3, lsl #1]
 8000d88:	2200      	movs	r2, #0
 8000d8a:	4619      	mov	r1, r3
 8000d8c:	f001 fb58 	bl	8002440 <HAL_GPIO_WritePin>
  }

  return ret;
 8000d90:	6afb      	ldr	r3, [r7, #44]	@ 0x2c
}
 8000d92:	4618      	mov	r0, r3
 8000d94:	3730      	adds	r7, #48	@ 0x30
 8000d96:	46bd      	mov	sp, r7
 8000d98:	bd80      	pop	{r7, pc}
 8000d9a:	bf00      	nop
 8000d9c:	58024400 	.word	0x58024400
 8000da0:	080061ec 	.word	0x080061ec
 8000da4:	2400000c 	.word	0x2400000c

08000da8 <BSP_PB_Init>:
  *            @arg  BUTTON_MODE_GPIO: Button will be used as simple IO
  *            @arg  BUTTON_MODE_EXTI: Button will be connected to EXTI line
  *                                    with interrupt generation capability
  */
int32_t BSP_PB_Init(Button_TypeDef Button, ButtonMode_TypeDef ButtonMode)
{
 8000da8:	b580      	push	{r7, lr}
 8000daa:	b088      	sub	sp, #32
 8000dac:	af00      	add	r7, sp, #0
 8000dae:	4603      	mov	r3, r0
 8000db0:	460a      	mov	r2, r1
 8000db2:	71fb      	strb	r3, [r7, #7]
 8000db4:	4613      	mov	r3, r2
 8000db6:	71bb      	strb	r3, [r7, #6]
  static BSP_EXTI_LineCallback ButtonCallback[BUTTONn] = {BUTTON_USER_EXTI_Callback};
  static uint32_t  BSP_BUTTON_PRIO [BUTTONn] = {BSP_BUTTON_USER_IT_PRIORITY};
  static const uint32_t BUTTON_EXTI_LINE[BUTTONn] = {BUTTON_USER_EXTI_LINE};

  /* Enable the BUTTON clock */
  BUTTON_USER_GPIO_CLK_ENABLE();
 8000db8:	4b2e      	ldr	r3, [pc, #184]	@ (8000e74 <BSP_PB_Init+0xcc>)
 8000dba:	f8d3 30e0 	ldr.w	r3, [r3, #224]	@ 0xe0
 8000dbe:	4a2d      	ldr	r2, [pc, #180]	@ (8000e74 <BSP_PB_Init+0xcc>)
 8000dc0:	f043 0304 	orr.w	r3, r3, #4
 8000dc4:	f8c2 30e0 	str.w	r3, [r2, #224]	@ 0xe0
 8000dc8:	4b2a      	ldr	r3, [pc, #168]	@ (8000e74 <BSP_PB_Init+0xcc>)
 8000dca:	f8d3 30e0 	ldr.w	r3, [r3, #224]	@ 0xe0
 8000dce:	f003 0304 	and.w	r3, r3, #4
 8000dd2:	60bb      	str	r3, [r7, #8]
 8000dd4:	68bb      	ldr	r3, [r7, #8]

  gpio_init_structure.Pin = BUTTON_PIN [Button];
 8000dd6:	f44f 5300 	mov.w	r3, #8192	@ 0x2000
 8000dda:	60fb      	str	r3, [r7, #12]
  gpio_init_structure.Pull = GPIO_PULLDOWN;
 8000ddc:	2302      	movs	r3, #2
 8000dde:	617b      	str	r3, [r7, #20]
  gpio_init_structure.Speed = GPIO_SPEED_FREQ_HIGH;
 8000de0:	2302      	movs	r3, #2
 8000de2:	61bb      	str	r3, [r7, #24]

  if(ButtonMode == BUTTON_MODE_GPIO)
 8000de4:	79bb      	ldrb	r3, [r7, #6]
 8000de6:	2b00      	cmp	r3, #0
 8000de8:	d10c      	bne.n	8000e04 <BSP_PB_Init+0x5c>
  {
    /* Configure Button pin as input */
    gpio_init_structure.Mode = GPIO_MODE_INPUT;
 8000dea:	2300      	movs	r3, #0
 8000dec:	613b      	str	r3, [r7, #16]
    HAL_GPIO_Init(BUTTON_PORT [Button], &gpio_init_structure);
 8000dee:	79fb      	ldrb	r3, [r7, #7]
 8000df0:	4a21      	ldr	r2, [pc, #132]	@ (8000e78 <BSP_PB_Init+0xd0>)
 8000df2:	f852 3023 	ldr.w	r3, [r2, r3, lsl #2]
 8000df6:	f107 020c 	add.w	r2, r7, #12
 8000dfa:	4611      	mov	r1, r2
 8000dfc:	4618      	mov	r0, r3
 8000dfe:	f001 f96d 	bl	80020dc <HAL_GPIO_Init>
 8000e02:	e031      	b.n	8000e68 <BSP_PB_Init+0xc0>
  }
  else /* (ButtonMode == BUTTON_MODE_EXTI) */
  {
    /* Configure Button pin as input with External interrupt */
    gpio_init_structure.Mode = GPIO_MODE_IT_RISING;
 8000e04:	f44f 1388 	mov.w	r3, #1114112	@ 0x110000
 8000e08:	613b      	str	r3, [r7, #16]

    HAL_GPIO_Init(BUTTON_PORT[Button], &gpio_init_structure);
 8000e0a:	79fb      	ldrb	r3, [r7, #7]
 8000e0c:	4a1a      	ldr	r2, [pc, #104]	@ (8000e78 <BSP_PB_Init+0xd0>)
 8000e0e:	f852 3023 	ldr.w	r3, [r2, r3, lsl #2]
 8000e12:	f107 020c 	add.w	r2, r7, #12
 8000e16:	4611      	mov	r1, r2
 8000e18:	4618      	mov	r0, r3
 8000e1a:	f001 f95f 	bl	80020dc <HAL_GPIO_Init>

    (void)HAL_EXTI_GetHandle(&hpb_exti[Button], BUTTON_EXTI_LINE[Button]);
 8000e1e:	79fb      	ldrb	r3, [r7, #7]
 8000e20:	00db      	lsls	r3, r3, #3
 8000e22:	4a16      	ldr	r2, [pc, #88]	@ (8000e7c <BSP_PB_Init+0xd4>)
 8000e24:	441a      	add	r2, r3
 8000e26:	79fb      	ldrb	r3, [r7, #7]
 8000e28:	4915      	ldr	r1, [pc, #84]	@ (8000e80 <BSP_PB_Init+0xd8>)
 8000e2a:	f851 3023 	ldr.w	r3, [r1, r3, lsl #2]
 8000e2e:	4619      	mov	r1, r3
 8000e30:	4610      	mov	r0, r2
 8000e32:	f000 fb44 	bl	80014be <HAL_EXTI_GetHandle>
    (void)HAL_EXTI_RegisterCallback(&hpb_exti[Button],  HAL_EXTI_COMMON_CB_ID, ButtonCallback[Button]);
 8000e36:	79fb      	ldrb	r3, [r7, #7]
 8000e38:	00db      	lsls	r3, r3, #3
 8000e3a:	4a10      	ldr	r2, [pc, #64]	@ (8000e7c <BSP_PB_Init+0xd4>)
 8000e3c:	1898      	adds	r0, r3, r2
 8000e3e:	79fb      	ldrb	r3, [r7, #7]
 8000e40:	4a10      	ldr	r2, [pc, #64]	@ (8000e84 <BSP_PB_Init+0xdc>)
 8000e42:	f852 3023 	ldr.w	r3, [r2, r3, lsl #2]
 8000e46:	461a      	mov	r2, r3
 8000e48:	2100      	movs	r1, #0
 8000e4a:	f000 fb19 	bl	8001480 <HAL_EXTI_RegisterCallback>

    /* Enable and set Button EXTI Interrupt to the lowest priority */
    HAL_NVIC_SetPriority((BUTTON_IRQn[Button]), BSP_BUTTON_PRIO[Button], 0x00);
 8000e4e:	2028      	movs	r0, #40	@ 0x28
 8000e50:	79fb      	ldrb	r3, [r7, #7]
 8000e52:	4a0d      	ldr	r2, [pc, #52]	@ (8000e88 <BSP_PB_Init+0xe0>)
 8000e54:	f852 3023 	ldr.w	r3, [r2, r3, lsl #2]
 8000e58:	2200      	movs	r2, #0
 8000e5a:	4619      	mov	r1, r3
 8000e5c:	f000 fa63 	bl	8001326 <HAL_NVIC_SetPriority>
    HAL_NVIC_EnableIRQ((BUTTON_IRQn[Button]));
 8000e60:	2328      	movs	r3, #40	@ 0x28
 8000e62:	4618      	mov	r0, r3
 8000e64:	f000 fa79 	bl	800135a <HAL_NVIC_EnableIRQ>
  }

  return BSP_ERROR_NONE;
 8000e68:	2300      	movs	r3, #0
}
 8000e6a:	4618      	mov	r0, r3
 8000e6c:	3720      	adds	r7, #32
 8000e6e:	46bd      	mov	sp, r7
 8000e70:	bd80      	pop	{r7, pc}
 8000e72:	bf00      	nop
 8000e74:	58024400 	.word	0x58024400
 8000e78:	24000018 	.word	0x24000018
 8000e7c:	24000138 	.word	0x24000138
 8000e80:	080061f4 	.word	0x080061f4
 8000e84:	2400001c 	.word	0x2400001c
 8000e88:	24000020 	.word	0x24000020

08000e8c <BSP_PB_IRQHandler>:
  * @brief  BSP Button IRQ handler
  * @param  Button Can only be BUTTON_USER
  * @retval None
  */
void BSP_PB_IRQHandler(Button_TypeDef Button)
{
 8000e8c:	b580      	push	{r7, lr}
 8000e8e:	b082      	sub	sp, #8
 8000e90:	af00      	add	r7, sp, #0
 8000e92:	4603      	mov	r3, r0
 8000e94:	71fb      	strb	r3, [r7, #7]
  HAL_EXTI_IRQHandler(&hpb_exti[Button]);
 8000e96:	79fb      	ldrb	r3, [r7, #7]
 8000e98:	00db      	lsls	r3, r3, #3
 8000e9a:	4a04      	ldr	r2, [pc, #16]	@ (8000eac <BSP_PB_IRQHandler+0x20>)
 8000e9c:	4413      	add	r3, r2
 8000e9e:	4618      	mov	r0, r3
 8000ea0:	f000 fb22 	bl	80014e8 <HAL_EXTI_IRQHandler>
}
 8000ea4:	bf00      	nop
 8000ea6:	3708      	adds	r7, #8
 8000ea8:	46bd      	mov	sp, r7
 8000eaa:	bd80      	pop	{r7, pc}
 8000eac:	24000138 	.word	0x24000138

08000eb0 <BSP_PB_Callback>:
  * @brief  BSP Push Button callback
  * @param  Button Specifies the pin connected EXTI line
  * @retval None
  */
__weak void BSP_PB_Callback(Button_TypeDef Button)
{
 8000eb0:	b480      	push	{r7}
 8000eb2:	b083      	sub	sp, #12
 8000eb4:	af00      	add	r7, sp, #0
 8000eb6:	4603      	mov	r3, r0
 8000eb8:	71fb      	strb	r3, [r7, #7]
  /* Prevent unused argument(s) compilation warning */
  UNUSED(Button);

  /* This function should be implemented by the user application.
     It is called into this driver when an event on Button is triggered. */
}
 8000eba:	bf00      	nop
 8000ebc:	370c      	adds	r7, #12
 8000ebe:	46bd      	mov	sp, r7
 8000ec0:	f85d 7b04 	ldr.w	r7, [sp], #4
 8000ec4:	4770      	bx	lr
	...

08000ec8 <BSP_COM_Init>:
  * @param  COM_Init Pointer to a UART_HandleTypeDef structure that contains the
  *                  configuration information for the specified USART peripheral.
  * @retval BSP error code
  */
int32_t BSP_COM_Init(COM_TypeDef COM, COM_InitTypeDef *COM_Init)
{
 8000ec8:	b580      	push	{r7, lr}
 8000eca:	b084      	sub	sp, #16
 8000ecc:	af00      	add	r7, sp, #0
 8000ece:	4603      	mov	r3, r0
 8000ed0:	6039      	str	r1, [r7, #0]
 8000ed2:	71fb      	strb	r3, [r7, #7]
  int32_t ret = BSP_ERROR_NONE;
 8000ed4:	2300      	movs	r3, #0
 8000ed6:	60fb      	str	r3, [r7, #12]

  if(COM >= COMn)
 8000ed8:	79fb      	ldrb	r3, [r7, #7]
 8000eda:	2b00      	cmp	r3, #0
 8000edc:	d003      	beq.n	8000ee6 <BSP_COM_Init+0x1e>
  {
    ret = BSP_ERROR_WRONG_PARAM;
 8000ede:	f06f 0301 	mvn.w	r3, #1
 8000ee2:	60fb      	str	r3, [r7, #12]
 8000ee4:	e018      	b.n	8000f18 <BSP_COM_Init+0x50>
  }
  else
  {
#if (USE_HAL_UART_REGISTER_CALLBACKS == 0)
    /* Init the UART Msp */
    COM1_MspInit(&hcom_uart[COM]);
 8000ee6:	79fb      	ldrb	r3, [r7, #7]
 8000ee8:	2294      	movs	r2, #148	@ 0x94
 8000eea:	fb02 f303 	mul.w	r3, r2, r3
 8000eee:	4a0d      	ldr	r2, [pc, #52]	@ (8000f24 <BSP_COM_Init+0x5c>)
 8000ef0:	4413      	add	r3, r2
 8000ef2:	4618      	mov	r0, r3
 8000ef4:	f000 f852 	bl	8000f9c <COM1_MspInit>
        return BSP_ERROR_MSP_FAILURE;
      }
    }
#endif

    if(MX_USART3_Init(&hcom_uart[COM], COM_Init) != HAL_OK)
 8000ef8:	79fb      	ldrb	r3, [r7, #7]
 8000efa:	2294      	movs	r2, #148	@ 0x94
 8000efc:	fb02 f303 	mul.w	r3, r2, r3
 8000f00:	4a08      	ldr	r2, [pc, #32]	@ (8000f24 <BSP_COM_Init+0x5c>)
 8000f02:	4413      	add	r3, r2
 8000f04:	6839      	ldr	r1, [r7, #0]
 8000f06:	4618      	mov	r0, r3
 8000f08:	f000 f80e 	bl	8000f28 <MX_USART3_Init>
 8000f0c:	4603      	mov	r3, r0
 8000f0e:	2b00      	cmp	r3, #0
 8000f10:	d002      	beq.n	8000f18 <BSP_COM_Init+0x50>
    {
      ret = BSP_ERROR_PERIPH_FAILURE;
 8000f12:	f06f 0303 	mvn.w	r3, #3
 8000f16:	60fb      	str	r3, [r7, #12]
    }
  }

  return ret;
 8000f18:	68fb      	ldr	r3, [r7, #12]
}
 8000f1a:	4618      	mov	r0, r3
 8000f1c:	3710      	adds	r7, #16
 8000f1e:	46bd      	mov	sp, r7
 8000f20:	bd80      	pop	{r7, pc}
 8000f22:	bf00      	nop
 8000f24:	24000140 	.word	0x24000140

08000f28 <MX_USART3_Init>:
  * @param  COM_Init Pointer to a UART_HandleTypeDef structure that contains the
  *                  configuration information for the specified USART peripheral.
  * @retval HAL error code
  */
__weak HAL_StatusTypeDef MX_USART3_Init(UART_HandleTypeDef *huart, MX_UART_InitTypeDef *COM_Init)
{
 8000f28:	b580      	push	{r7, lr}
 8000f2a:	b082      	sub	sp, #8
 8000f2c:	af00      	add	r7, sp, #0
 8000f2e:	6078      	str	r0, [r7, #4]
 8000f30:	6039      	str	r1, [r7, #0]
  /* USART configuration */
 huart->Instance          = COM_USART[COM1];
 8000f32:	4b15      	ldr	r3, [pc, #84]	@ (8000f88 <MX_USART3_Init+0x60>)
 8000f34:	681a      	ldr	r2, [r3, #0]
 8000f36:	687b      	ldr	r3, [r7, #4]
 8000f38:	601a      	str	r2, [r3, #0]
 huart->Init.BaudRate     = COM_Init->BaudRate;
 8000f3a:	683b      	ldr	r3, [r7, #0]
 8000f3c:	681a      	ldr	r2, [r3, #0]
 8000f3e:	687b      	ldr	r3, [r7, #4]
 8000f40:	605a      	str	r2, [r3, #4]
 huart->Init.Mode         = UART_MODE_TX_RX;
 8000f42:	687b      	ldr	r3, [r7, #4]
 8000f44:	220c      	movs	r2, #12
 8000f46:	615a      	str	r2, [r3, #20]
 huart->Init.Parity       = (uint32_t)COM_Init->Parity;
 8000f48:	683b      	ldr	r3, [r7, #0]
 8000f4a:	895b      	ldrh	r3, [r3, #10]
 8000f4c:	461a      	mov	r2, r3
 8000f4e:	687b      	ldr	r3, [r7, #4]
 8000f50:	611a      	str	r2, [r3, #16]
 huart->Init.WordLength   = (uint32_t)COM_Init->WordLength;
 8000f52:	683b      	ldr	r3, [r7, #0]
 8000f54:	685a      	ldr	r2, [r3, #4]
 8000f56:	687b      	ldr	r3, [r7, #4]
 8000f58:	609a      	str	r2, [r3, #8]
 huart->Init.StopBits     = (uint32_t)COM_Init->StopBits;
 8000f5a:	683b      	ldr	r3, [r7, #0]
 8000f5c:	891b      	ldrh	r3, [r3, #8]
 8000f5e:	461a      	mov	r2, r3
 8000f60:	687b      	ldr	r3, [r7, #4]
 8000f62:	60da      	str	r2, [r3, #12]
 huart->Init.HwFlowCtl    = (uint32_t)COM_Init->HwFlowCtl;
 8000f64:	683b      	ldr	r3, [r7, #0]
 8000f66:	899b      	ldrh	r3, [r3, #12]
 8000f68:	461a      	mov	r2, r3
 8000f6a:	687b      	ldr	r3, [r7, #4]
 8000f6c:	619a      	str	r2, [r3, #24]
 huart->Init.OverSampling = UART_OVERSAMPLING_8;
 8000f6e:	687b      	ldr	r3, [r7, #4]
 8000f70:	f44f 4200 	mov.w	r2, #32768	@ 0x8000
 8000f74:	61da      	str	r2, [r3, #28]

 return HAL_UART_Init(huart);
 8000f76:	6878      	ldr	r0, [r7, #4]
 8000f78:	f003 ffde 	bl	8004f38 <HAL_UART_Init>
 8000f7c:	4603      	mov	r3, r0
}
 8000f7e:	4618      	mov	r0, r3
 8000f80:	3708      	adds	r7, #8
 8000f82:	46bd      	mov	sp, r7
 8000f84:	bd80      	pop	{r7, pc}
 8000f86:	bf00      	nop
 8000f88:	24000008 	.word	0x24000008

08000f8c <BUTTON_USER_EXTI_Callback>:
/**
  * @brief  Key EXTI line detection callbacks.
  * @retval BSP status
  */
static void BUTTON_USER_EXTI_Callback(void)
{
 8000f8c:	b580      	push	{r7, lr}
 8000f8e:	af00      	add	r7, sp, #0
  BSP_PB_Callback(BUTTON_USER);
 8000f90:	2000      	movs	r0, #0
 8000f92:	f7ff ff8d 	bl	8000eb0 <BSP_PB_Callback>
}
 8000f96:	bf00      	nop
 8000f98:	bd80      	pop	{r7, pc}
	...

08000f9c <COM1_MspInit>:
  * @brief  Initializes UART MSP.
  * @param  huart UART handle
  * @retval BSP status
  */
static void COM1_MspInit(UART_HandleTypeDef *huart)
{
 8000f9c:	b580      	push	{r7, lr}
 8000f9e:	b08a      	sub	sp, #40	@ 0x28
 8000fa0:	af00      	add	r7, sp, #0
 8000fa2:	6078      	str	r0, [r7, #4]

  /* Prevent unused argument(s) compilation warning */
  UNUSED(huart);

  /* Enable GPIO clock */
  COM1_TX_GPIO_CLK_ENABLE();
 8000fa4:	4b27      	ldr	r3, [pc, #156]	@ (8001044 <COM1_MspInit+0xa8>)
 8000fa6:	f8d3 30e0 	ldr.w	r3, [r3, #224]	@ 0xe0
 8000faa:	4a26      	ldr	r2, [pc, #152]	@ (8001044 <COM1_MspInit+0xa8>)
 8000fac:	f043 0308 	orr.w	r3, r3, #8
 8000fb0:	f8c2 30e0 	str.w	r3, [r2, #224]	@ 0xe0
 8000fb4:	4b23      	ldr	r3, [pc, #140]	@ (8001044 <COM1_MspInit+0xa8>)
 8000fb6:	f8d3 30e0 	ldr.w	r3, [r3, #224]	@ 0xe0
 8000fba:	f003 0308 	and.w	r3, r3, #8
 8000fbe:	613b      	str	r3, [r7, #16]
 8000fc0:	693b      	ldr	r3, [r7, #16]
  COM1_RX_GPIO_CLK_ENABLE();
 8000fc2:	4b20      	ldr	r3, [pc, #128]	@ (8001044 <COM1_MspInit+0xa8>)
 8000fc4:	f8d3 30e0 	ldr.w	r3, [r3, #224]	@ 0xe0
 8000fc8:	4a1e      	ldr	r2, [pc, #120]	@ (8001044 <COM1_MspInit+0xa8>)
 8000fca:	f043 0308 	orr.w	r3, r3, #8
 8000fce:	f8c2 30e0 	str.w	r3, [r2, #224]	@ 0xe0
 8000fd2:	4b1c      	ldr	r3, [pc, #112]	@ (8001044 <COM1_MspInit+0xa8>)
 8000fd4:	f8d3 30e0 	ldr.w	r3, [r3, #224]	@ 0xe0
 8000fd8:	f003 0308 	and.w	r3, r3, #8
 8000fdc:	60fb      	str	r3, [r7, #12]
 8000fde:	68fb      	ldr	r3, [r7, #12]

  /* Enable USART clock */
  COM1_CLK_ENABLE();
 8000fe0:	4b18      	ldr	r3, [pc, #96]	@ (8001044 <COM1_MspInit+0xa8>)
 8000fe2:	f8d3 30e8 	ldr.w	r3, [r3, #232]	@ 0xe8
 8000fe6:	4a17      	ldr	r2, [pc, #92]	@ (8001044 <COM1_MspInit+0xa8>)
 8000fe8:	f443 2380 	orr.w	r3, r3, #262144	@ 0x40000
 8000fec:	f8c2 30e8 	str.w	r3, [r2, #232]	@ 0xe8
 8000ff0:	4b14      	ldr	r3, [pc, #80]	@ (8001044 <COM1_MspInit+0xa8>)
 8000ff2:	f8d3 30e8 	ldr.w	r3, [r3, #232]	@ 0xe8
 8000ff6:	f403 2380 	and.w	r3, r3, #262144	@ 0x40000
 8000ffa:	60bb      	str	r3, [r7, #8]
 8000ffc:	68bb      	ldr	r3, [r7, #8]

  /* Configure USART Tx as alternate function */
  gpio_init_structure.Pin = COM1_TX_PIN;
 8000ffe:	f44f 7380 	mov.w	r3, #256	@ 0x100
 8001002:	617b      	str	r3, [r7, #20]
  gpio_init_structure.Mode = GPIO_MODE_AF_PP;
 8001004:	2302      	movs	r3, #2
 8001006:	61bb      	str	r3, [r7, #24]
  gpio_init_structure.Speed = GPIO_SPEED_FREQ_HIGH;
 8001008:	2302      	movs	r3, #2
 800100a:	623b      	str	r3, [r7, #32]
  gpio_init_structure.Pull = GPIO_PULLUP;
 800100c:	2301      	movs	r3, #1
 800100e:	61fb      	str	r3, [r7, #28]
  gpio_init_structure.Alternate = COM1_TX_AF;
 8001010:	2307      	movs	r3, #7
 8001012:	627b      	str	r3, [r7, #36]	@ 0x24
  HAL_GPIO_Init(COM1_TX_GPIO_PORT, &gpio_init_structure);
 8001014:	f107 0314 	add.w	r3, r7, #20
 8001018:	4619      	mov	r1, r3
 800101a:	480b      	ldr	r0, [pc, #44]	@ (8001048 <COM1_MspInit+0xac>)
 800101c:	f001 f85e 	bl	80020dc <HAL_GPIO_Init>

  /* Configure USART Rx as alternate function */
  gpio_init_structure.Pin = COM1_RX_PIN;
 8001020:	f44f 7300 	mov.w	r3, #512	@ 0x200
 8001024:	617b      	str	r3, [r7, #20]
  gpio_init_structure.Mode = GPIO_MODE_AF_PP;
 8001026:	2302      	movs	r3, #2
 8001028:	61bb      	str	r3, [r7, #24]
  gpio_init_structure.Alternate = COM1_RX_AF;
 800102a:	2307      	movs	r3, #7
 800102c:	627b      	str	r3, [r7, #36]	@ 0x24
  HAL_GPIO_Init(COM1_RX_GPIO_PORT, &gpio_init_structure);
 800102e:	f107 0314 	add.w	r3, r7, #20
 8001032:	4619      	mov	r1, r3
 8001034:	4804      	ldr	r0, [pc, #16]	@ (8001048 <COM1_MspInit+0xac>)
 8001036:	f001 f851 	bl	80020dc <HAL_GPIO_Init>
}
 800103a:	bf00      	nop
 800103c:	3728      	adds	r7, #40	@ 0x28
 800103e:	46bd      	mov	sp, r7
 8001040:	bd80      	pop	{r7, pc}
 8001042:	bf00      	nop
 8001044:	58024400 	.word	0x58024400
 8001048:	58020c00 	.word	0x58020c00

0800104c <HAL_Init>:
  *         need to ensure that the SysTick time base is always set to 1 millisecond
  *         to have correct HAL operation.
  * @retval HAL status
  */
HAL_StatusTypeDef HAL_Init(void)
{
 800104c:	b580      	push	{r7, lr}
 800104e:	b082      	sub	sp, #8
 8001050:	af00      	add	r7, sp, #0
   __HAL_ART_CONFIG_BASE_ADDRESS(0x08100000UL);  /* Configure the Cortex-M4 ART Base address to the Flash Bank 2 : */
   __HAL_ART_ENABLE();                           /* Enable the Cortex-M4 ART */
#endif /* DUAL_CORE &&  CORE_CM4 */

  /* Set Interrupt Group Priority */
  HAL_NVIC_SetPriorityGrouping(NVIC_PRIORITYGROUP_4);
 8001052:	2003      	movs	r0, #3
 8001054:	f000 f95c 	bl	8001310 <HAL_NVIC_SetPriorityGrouping>

  /* Update the SystemCoreClock global variable */
#if defined(RCC_D1CFGR_D1CPRE)
  common_system_clock = HAL_RCC_GetSysClockFreq() >> ((D1CorePrescTable[(RCC->D1CFGR & RCC_D1CFGR_D1CPRE)>> RCC_D1CFGR_D1CPRE_Pos]) & 0x1FU);
 8001058:	f001 ffd6 	bl	8003008 <HAL_RCC_GetSysClockFreq>
 800105c:	4602      	mov	r2, r0
 800105e:	4b15      	ldr	r3, [pc, #84]	@ (80010b4 <HAL_Init+0x68>)
 8001060:	699b      	ldr	r3, [r3, #24]
 8001062:	0a1b      	lsrs	r3, r3, #8
 8001064:	f003 030f 	and.w	r3, r3, #15
 8001068:	4913      	ldr	r1, [pc, #76]	@ (80010b8 <HAL_Init+0x6c>)
 800106a:	5ccb      	ldrb	r3, [r1, r3]
 800106c:	f003 031f 	and.w	r3, r3, #31
 8001070:	fa22 f303 	lsr.w	r3, r2, r3
 8001074:	607b      	str	r3, [r7, #4]
  common_system_clock = HAL_RCC_GetSysClockFreq() >> ((D1CorePrescTable[(RCC->CDCFGR1 & RCC_CDCFGR1_CDCPRE)>> RCC_CDCFGR1_CDCPRE_Pos]) & 0x1FU);
#endif

  /* Update the SystemD2Clock global variable */
#if defined(RCC_D1CFGR_HPRE)
  SystemD2Clock = (common_system_clock >> ((D1CorePrescTable[(RCC->D1CFGR & RCC_D1CFGR_HPRE)>> RCC_D1CFGR_HPRE_Pos]) & 0x1FU));
 8001076:	4b0f      	ldr	r3, [pc, #60]	@ (80010b4 <HAL_Init+0x68>)
 8001078:	699b      	ldr	r3, [r3, #24]
 800107a:	f003 030f 	and.w	r3, r3, #15
 800107e:	4a0e      	ldr	r2, [pc, #56]	@ (80010b8 <HAL_Init+0x6c>)
 8001080:	5cd3      	ldrb	r3, [r2, r3]
 8001082:	f003 031f 	and.w	r3, r3, #31
 8001086:	687a      	ldr	r2, [r7, #4]
 8001088:	fa22 f303 	lsr.w	r3, r2, r3
 800108c:	4a0b      	ldr	r2, [pc, #44]	@ (80010bc <HAL_Init+0x70>)
 800108e:	6013      	str	r3, [r2, #0]
#endif

#if defined(DUAL_CORE) && defined(CORE_CM4)
  SystemCoreClock = SystemD2Clock;
#else
  SystemCoreClock = common_system_clock;
 8001090:	4a0b      	ldr	r2, [pc, #44]	@ (80010c0 <HAL_Init+0x74>)
 8001092:	687b      	ldr	r3, [r7, #4]
 8001094:	6013      	str	r3, [r2, #0]
#endif /* DUAL_CORE && CORE_CM4 */

  /* Use systick as time base source and configure 1ms tick (default clock after Reset is HSI) */
  if(HAL_InitTick(TICK_INT_PRIORITY) != HAL_OK)
 8001096:	2000      	movs	r0, #0
 8001098:	f000 f814 	bl	80010c4 <HAL_InitTick>
 800109c:	4603      	mov	r3, r0
 800109e:	2b00      	cmp	r3, #0
 80010a0:	d001      	beq.n	80010a6 <HAL_Init+0x5a>
  {
    return HAL_ERROR;
 80010a2:	2301      	movs	r3, #1
 80010a4:	e002      	b.n	80010ac <HAL_Init+0x60>
  }

  /* Init the low level hardware */
  HAL_MspInit();
 80010a6:	f7ff fc89 	bl	80009bc <HAL_MspInit>

  /* Return function status */
  return HAL_OK;
 80010aa:	2300      	movs	r3, #0
}
 80010ac:	4618      	mov	r0, r3
 80010ae:	3708      	adds	r7, #8
 80010b0:	46bd      	mov	sp, r7
 80010b2:	bd80      	pop	{r7, pc}
 80010b4:	58024400 	.word	0x58024400
 80010b8:	080061dc 	.word	0x080061dc
 80010bc:	24000004 	.word	0x24000004
 80010c0:	24000000 	.word	0x24000000

080010c4 <HAL_InitTick>:
  *       implementation  in user file.
  * @param TickPriority: Tick interrupt priority.
  * @retval HAL status
  */
__weak HAL_StatusTypeDef HAL_InitTick(uint32_t TickPriority)
{
 80010c4:	b580      	push	{r7, lr}
 80010c6:	b082      	sub	sp, #8
 80010c8:	af00      	add	r7, sp, #0
 80010ca:	6078      	str	r0, [r7, #4]
  /* Check uwTickFreq for MisraC 2012 (even if uwTickFreq is a enum type that don't take the value zero)*/
  if((uint32_t)uwTickFreq == 0UL)
 80010cc:	4b15      	ldr	r3, [pc, #84]	@ (8001124 <HAL_InitTick+0x60>)
 80010ce:	781b      	ldrb	r3, [r3, #0]
 80010d0:	2b00      	cmp	r3, #0
 80010d2:	d101      	bne.n	80010d8 <HAL_InitTick+0x14>
  {
    return HAL_ERROR;
 80010d4:	2301      	movs	r3, #1
 80010d6:	e021      	b.n	800111c <HAL_InitTick+0x58>
  }

  /* Configure the SysTick to have interrupt in 1ms time basis*/
  if (HAL_SYSTICK_Config(SystemCoreClock / (1000UL / (uint32_t)uwTickFreq)) > 0U)
 80010d8:	4b13      	ldr	r3, [pc, #76]	@ (8001128 <HAL_InitTick+0x64>)
 80010da:	681a      	ldr	r2, [r3, #0]
 80010dc:	4b11      	ldr	r3, [pc, #68]	@ (8001124 <HAL_InitTick+0x60>)
 80010de:	781b      	ldrb	r3, [r3, #0]
 80010e0:	4619      	mov	r1, r3
 80010e2:	f44f 737a 	mov.w	r3, #1000	@ 0x3e8
 80010e6:	fbb3 f3f1 	udiv	r3, r3, r1
 80010ea:	fbb2 f3f3 	udiv	r3, r2, r3
 80010ee:	4618      	mov	r0, r3
 80010f0:	f000 f941 	bl	8001376 <HAL_SYSTICK_Config>
 80010f4:	4603      	mov	r3, r0
 80010f6:	2b00      	cmp	r3, #0
 80010f8:	d001      	beq.n	80010fe <HAL_InitTick+0x3a>
  {
    return HAL_ERROR;
 80010fa:	2301      	movs	r3, #1
 80010fc:	e00e      	b.n	800111c <HAL_InitTick+0x58>
  }

  /* Configure the SysTick IRQ priority */
  if (TickPriority < (1UL << __NVIC_PRIO_BITS))
 80010fe:	687b      	ldr	r3, [r7, #4]
 8001100:	2b0f      	cmp	r3, #15
 8001102:	d80a      	bhi.n	800111a <HAL_InitTick+0x56>
  {
    HAL_NVIC_SetPriority(SysTick_IRQn, TickPriority, 0U);
 8001104:	2200      	movs	r2, #0
 8001106:	6879      	ldr	r1, [r7, #4]
 8001108:	f04f 30ff 	mov.w	r0, #4294967295
 800110c:	f000 f90b 	bl	8001326 <HAL_NVIC_SetPriority>
    uwTickPrio = TickPriority;
 8001110:	4a06      	ldr	r2, [pc, #24]	@ (800112c <HAL_InitTick+0x68>)
 8001112:	687b      	ldr	r3, [r7, #4]
 8001114:	6013      	str	r3, [r2, #0]
  {
    return HAL_ERROR;
  }

  /* Return function status */
  return HAL_OK;
 8001116:	2300      	movs	r3, #0
 8001118:	e000      	b.n	800111c <HAL_InitTick+0x58>
    return HAL_ERROR;
 800111a:	2301      	movs	r3, #1
}
 800111c:	4618      	mov	r0, r3
 800111e:	3708      	adds	r7, #8
 8001120:	46bd      	mov	sp, r7
 8001122:	bd80      	pop	{r7, pc}
 8001124:	24000028 	.word	0x24000028
 8001128:	24000000 	.word	0x24000000
 800112c:	24000024 	.word	0x24000024

08001130 <HAL_IncTick>:
 * @note This function is declared as __weak to be overwritten in case of other
  *      implementations in user file.
  * @retval None
  */
__weak void HAL_IncTick(void)
{
 8001130:	b480      	push	{r7}
 8001132:	af00      	add	r7, sp, #0
  uwTick += (uint32_t)uwTickFreq;
 8001134:	4b06      	ldr	r3, [pc, #24]	@ (8001150 <HAL_IncTick+0x20>)
 8001136:	781b      	ldrb	r3, [r3, #0]
 8001138:	461a      	mov	r2, r3
 800113a:	4b06      	ldr	r3, [pc, #24]	@ (8001154 <HAL_IncTick+0x24>)
 800113c:	681b      	ldr	r3, [r3, #0]
 800113e:	4413      	add	r3, r2
 8001140:	4a04      	ldr	r2, [pc, #16]	@ (8001154 <HAL_IncTick+0x24>)
 8001142:	6013      	str	r3, [r2, #0]
}
 8001144:	bf00      	nop
 8001146:	46bd      	mov	sp, r7
 8001148:	f85d 7b04 	ldr.w	r7, [sp], #4
 800114c:	4770      	bx	lr
 800114e:	bf00      	nop
 8001150:	24000028 	.word	0x24000028
 8001154:	240001d4 	.word	0x240001d4

08001158 <HAL_GetTick>:
  * @note This function is declared as __weak to be overwritten in case of other
  *       implementations in user file.
  * @retval tick value
  */
__weak uint32_t HAL_GetTick(void)
{
 8001158:	b480      	push	{r7}
 800115a:	af00      	add	r7, sp, #0
  return uwTick;
 800115c:	4b03      	ldr	r3, [pc, #12]	@ (800116c <HAL_GetTick+0x14>)
 800115e:	681b      	ldr	r3, [r3, #0]
}
 8001160:	4618      	mov	r0, r3
 8001162:	46bd      	mov	sp, r7
 8001164:	f85d 7b04 	ldr.w	r7, [sp], #4
 8001168:	4770      	bx	lr
 800116a:	bf00      	nop
 800116c:	240001d4 	.word	0x240001d4

08001170 <__NVIC_SetPriorityGrouping>:
           In case of a conflict between priority grouping and available
           priority bits (__NVIC_PRIO_BITS), the smallest possible priority group is set.
  \param [in]      PriorityGroup  Priority grouping field.
 */
__STATIC_INLINE void __NVIC_SetPriorityGrouping(uint32_t PriorityGroup)
{
 8001170:	b480      	push	{r7}
 8001172:	b085      	sub	sp, #20
 8001174:	af00      	add	r7, sp, #0
 8001176:	6078      	str	r0, [r7, #4]
  uint32_t reg_value;
  uint32_t PriorityGroupTmp = (PriorityGroup & (uint32_t)0x07UL);             /* only values 0..7 are used          */
 8001178:	687b      	ldr	r3, [r7, #4]
 800117a:	f003 0307 	and.w	r3, r3, #7
 800117e:	60fb      	str	r3, [r7, #12]

  reg_value  =  SCB->AIRCR;                                                   /* read old register configuration    */
 8001180:	4b0b      	ldr	r3, [pc, #44]	@ (80011b0 <__NVIC_SetPriorityGrouping+0x40>)
 8001182:	68db      	ldr	r3, [r3, #12]
 8001184:	60bb      	str	r3, [r7, #8]
  reg_value &= ~((uint32_t)(SCB_AIRCR_VECTKEY_Msk | SCB_AIRCR_PRIGROUP_Msk)); /* clear bits to change               */
 8001186:	68ba      	ldr	r2, [r7, #8]
 8001188:	f64f 03ff 	movw	r3, #63743	@ 0xf8ff
 800118c:	4013      	ands	r3, r2
 800118e:	60bb      	str	r3, [r7, #8]
  reg_value  =  (reg_value                                   |
                ((uint32_t)0x5FAUL << SCB_AIRCR_VECTKEY_Pos) |
                (PriorityGroupTmp << SCB_AIRCR_PRIGROUP_Pos)  );              /* Insert write key and priority group */
 8001190:	68fb      	ldr	r3, [r7, #12]
 8001192:	021a      	lsls	r2, r3, #8
                ((uint32_t)0x5FAUL << SCB_AIRCR_VECTKEY_Pos) |
 8001194:	68bb      	ldr	r3, [r7, #8]
 8001196:	431a      	orrs	r2, r3
  reg_value  =  (reg_value                                   |
 8001198:	4b06      	ldr	r3, [pc, #24]	@ (80011b4 <__NVIC_SetPriorityGrouping+0x44>)
 800119a:	4313      	orrs	r3, r2
 800119c:	60bb      	str	r3, [r7, #8]
  SCB->AIRCR =  reg_value;
 800119e:	4a04      	ldr	r2, [pc, #16]	@ (80011b0 <__NVIC_SetPriorityGrouping+0x40>)
 80011a0:	68bb      	ldr	r3, [r7, #8]
 80011a2:	60d3      	str	r3, [r2, #12]
}
 80011a4:	bf00      	nop
 80011a6:	3714      	adds	r7, #20
 80011a8:	46bd      	mov	sp, r7
 80011aa:	f85d 7b04 	ldr.w	r7, [sp], #4
 80011ae:	4770      	bx	lr
 80011b0:	e000ed00 	.word	0xe000ed00
 80011b4:	05fa0000 	.word	0x05fa0000

080011b8 <__NVIC_GetPriorityGrouping>:
  \brief   Get Priority Grouping
  \details Reads the priority grouping field from the NVIC Interrupt Controller.
  \return                Priority grouping field (SCB->AIRCR [10:8] PRIGROUP field).
 */
__STATIC_INLINE uint32_t __NVIC_GetPriorityGrouping(void)
{
 80011b8:	b480      	push	{r7}
 80011ba:	af00      	add	r7, sp, #0
  return ((uint32_t)((SCB->AIRCR & SCB_AIRCR_PRIGROUP_Msk) >> SCB_AIRCR_PRIGROUP_Pos));
 80011bc:	4b04      	ldr	r3, [pc, #16]	@ (80011d0 <__NVIC_GetPriorityGrouping+0x18>)
 80011be:	68db      	ldr	r3, [r3, #12]
 80011c0:	0a1b      	lsrs	r3, r3, #8
 80011c2:	f003 0307 	and.w	r3, r3, #7
}
 80011c6:	4618      	mov	r0, r3
 80011c8:	46bd      	mov	sp, r7
 80011ca:	f85d 7b04 	ldr.w	r7, [sp], #4
 80011ce:	4770      	bx	lr
 80011d0:	e000ed00 	.word	0xe000ed00

080011d4 <__NVIC_EnableIRQ>:
  \details Enables a device specific interrupt in the NVIC interrupt controller.
  \param [in]      IRQn  Device specific interrupt number.
  \note    IRQn must not be negative.
 */
__STATIC_INLINE void __NVIC_EnableIRQ(IRQn_Type IRQn)
{
 80011d4:	b480      	push	{r7}
 80011d6:	b083      	sub	sp, #12
 80011d8:	af00      	add	r7, sp, #0
 80011da:	4603      	mov	r3, r0
 80011dc:	80fb      	strh	r3, [r7, #6]
  if ((int32_t)(IRQn) >= 0)
 80011de:	f9b7 3006 	ldrsh.w	r3, [r7, #6]
 80011e2:	2b00      	cmp	r3, #0
 80011e4:	db0b      	blt.n	80011fe <__NVIC_EnableIRQ+0x2a>
  {
    __COMPILER_BARRIER();
    NVIC->ISER[(((uint32_t)IRQn) >> 5UL)] = (uint32_t)(1UL << (((uint32_t)IRQn) & 0x1FUL));
 80011e6:	88fb      	ldrh	r3, [r7, #6]
 80011e8:	f003 021f 	and.w	r2, r3, #31
 80011ec:	4907      	ldr	r1, [pc, #28]	@ (800120c <__NVIC_EnableIRQ+0x38>)
 80011ee:	f9b7 3006 	ldrsh.w	r3, [r7, #6]
 80011f2:	095b      	lsrs	r3, r3, #5
 80011f4:	2001      	movs	r0, #1
 80011f6:	fa00 f202 	lsl.w	r2, r0, r2
 80011fa:	f841 2023 	str.w	r2, [r1, r3, lsl #2]
    __COMPILER_BARRIER();
  }
}
 80011fe:	bf00      	nop
 8001200:	370c      	adds	r7, #12
 8001202:	46bd      	mov	sp, r7
 8001204:	f85d 7b04 	ldr.w	r7, [sp], #4
 8001208:	4770      	bx	lr
 800120a:	bf00      	nop
 800120c:	e000e100 	.word	0xe000e100

08001210 <__NVIC_SetPriority>:
  \param [in]      IRQn  Interrupt number.
  \param [in]  priority  Priority to set.
  \note    The priority cannot be set for every processor exception.
 */
__STATIC_INLINE void __NVIC_SetPriority(IRQn_Type IRQn, uint32_t priority)
{
 8001210:	b480      	push	{r7}
 8001212:	b083      	sub	sp, #12
 8001214:	af00      	add	r7, sp, #0
 8001216:	4603      	mov	r3, r0
 8001218:	6039      	str	r1, [r7, #0]
 800121a:	80fb      	strh	r3, [r7, #6]
  if ((int32_t)(IRQn) >= 0)
 800121c:	f9b7 3006 	ldrsh.w	r3, [r7, #6]
 8001220:	2b00      	cmp	r3, #0
 8001222:	db0a      	blt.n	800123a <__NVIC_SetPriority+0x2a>
  {
    NVIC->IP[((uint32_t)IRQn)]                = (uint8_t)((priority << (8U - __NVIC_PRIO_BITS)) & (uint32_t)0xFFUL);
 8001224:	683b      	ldr	r3, [r7, #0]
 8001226:	b2da      	uxtb	r2, r3
 8001228:	490c      	ldr	r1, [pc, #48]	@ (800125c <__NVIC_SetPriority+0x4c>)
 800122a:	f9b7 3006 	ldrsh.w	r3, [r7, #6]
 800122e:	0112      	lsls	r2, r2, #4
 8001230:	b2d2      	uxtb	r2, r2
 8001232:	440b      	add	r3, r1
 8001234:	f883 2300 	strb.w	r2, [r3, #768]	@ 0x300
  }
  else
  {
    SCB->SHPR[(((uint32_t)IRQn) & 0xFUL)-4UL] = (uint8_t)((priority << (8U - __NVIC_PRIO_BITS)) & (uint32_t)0xFFUL);
  }
}
 8001238:	e00a      	b.n	8001250 <__NVIC_SetPriority+0x40>
    SCB->SHPR[(((uint32_t)IRQn) & 0xFUL)-4UL] = (uint8_t)((priority << (8U - __NVIC_PRIO_BITS)) & (uint32_t)0xFFUL);
 800123a:	683b      	ldr	r3, [r7, #0]
 800123c:	b2da      	uxtb	r2, r3
 800123e:	4908      	ldr	r1, [pc, #32]	@ (8001260 <__NVIC_SetPriority+0x50>)
 8001240:	88fb      	ldrh	r3, [r7, #6]
 8001242:	f003 030f 	and.w	r3, r3, #15
 8001246:	3b04      	subs	r3, #4
 8001248:	0112      	lsls	r2, r2, #4
 800124a:	b2d2      	uxtb	r2, r2
 800124c:	440b      	add	r3, r1
 800124e:	761a      	strb	r2, [r3, #24]
}
 8001250:	bf00      	nop
 8001252:	370c      	adds	r7, #12
 8001254:	46bd      	mov	sp, r7
 8001256:	f85d 7b04 	ldr.w	r7, [sp], #4
 800125a:	4770      	bx	lr
 800125c:	e000e100 	.word	0xe000e100
 8001260:	e000ed00 	.word	0xe000ed00

08001264 <NVIC_EncodePriority>:
  \param [in]   PreemptPriority  Preemptive priority value (starting from 0).
  \param [in]       SubPriority  Subpriority value (starting from 0).
  \return                        Encoded priority. Value can be used in the function \ref NVIC_SetPriority().
 */
__STATIC_INLINE uint32_t NVIC_EncodePriority (uint32_t PriorityGroup, uint32_t PreemptPriority, uint32_t SubPriority)
{
 8001264:	b480      	push	{r7}
 8001266:	b089      	sub	sp, #36	@ 0x24
 8001268:	af00      	add	r7, sp, #0
 800126a:	60f8      	str	r0, [r7, #12]
 800126c:	60b9      	str	r1, [r7, #8]
 800126e:	607a      	str	r2, [r7, #4]
  uint32_t PriorityGroupTmp = (PriorityGroup & (uint32_t)0x07UL);   /* only values 0..7 are used          */
 8001270:	68fb      	ldr	r3, [r7, #12]
 8001272:	f003 0307 	and.w	r3, r3, #7
 8001276:	61fb      	str	r3, [r7, #28]
  uint32_t PreemptPriorityBits;
  uint32_t SubPriorityBits;

  PreemptPriorityBits = ((7UL - PriorityGroupTmp) > (uint32_t)(__NVIC_PRIO_BITS)) ? (uint32_t)(__NVIC_PRIO_BITS) : (uint32_t)(7UL - PriorityGroupTmp);
 8001278:	69fb      	ldr	r3, [r7, #28]
 800127a:	f1c3 0307 	rsb	r3, r3, #7
 800127e:	2b04      	cmp	r3, #4
 8001280:	bf28      	it	cs
 8001282:	2304      	movcs	r3, #4
 8001284:	61bb      	str	r3, [r7, #24]
  SubPriorityBits     = ((PriorityGroupTmp + (uint32_t)(__NVIC_PRIO_BITS)) < (uint32_t)7UL) ? (uint32_t)0UL : (uint32_t)((PriorityGroupTmp - 7UL) + (uint32_t)(__NVIC_PRIO_BITS));
 8001286:	69fb      	ldr	r3, [r7, #28]
 8001288:	3304      	adds	r3, #4
 800128a:	2b06      	cmp	r3, #6
 800128c:	d902      	bls.n	8001294 <NVIC_EncodePriority+0x30>
 800128e:	69fb      	ldr	r3, [r7, #28]
 8001290:	3b03      	subs	r3, #3
 8001292:	e000      	b.n	8001296 <NVIC_EncodePriority+0x32>
 8001294:	2300      	movs	r3, #0
 8001296:	617b      	str	r3, [r7, #20]

  return (
           ((PreemptPriority & (uint32_t)((1UL << (PreemptPriorityBits)) - 1UL)) << SubPriorityBits) |
 8001298:	f04f 32ff 	mov.w	r2, #4294967295
 800129c:	69bb      	ldr	r3, [r7, #24]
 800129e:	fa02 f303 	lsl.w	r3, r2, r3
 80012a2:	43da      	mvns	r2, r3
 80012a4:	68bb      	ldr	r3, [r7, #8]
 80012a6:	401a      	ands	r2, r3
 80012a8:	697b      	ldr	r3, [r7, #20]
 80012aa:	409a      	lsls	r2, r3
           ((SubPriority     & (uint32_t)((1UL << (SubPriorityBits    )) - 1UL)))
 80012ac:	f04f 31ff 	mov.w	r1, #4294967295
 80012b0:	697b      	ldr	r3, [r7, #20]
 80012b2:	fa01 f303 	lsl.w	r3, r1, r3
 80012b6:	43d9      	mvns	r1, r3
 80012b8:	687b      	ldr	r3, [r7, #4]
 80012ba:	400b      	ands	r3, r1
           ((PreemptPriority & (uint32_t)((1UL << (PreemptPriorityBits)) - 1UL)) << SubPriorityBits) |
 80012bc:	4313      	orrs	r3, r2
         );
}
 80012be:	4618      	mov	r0, r3
 80012c0:	3724      	adds	r7, #36	@ 0x24
 80012c2:	46bd      	mov	sp, r7
 80012c4:	f85d 7b04 	ldr.w	r7, [sp], #4
 80012c8:	4770      	bx	lr
	...

080012cc <SysTick_Config>:
  \note    When the variable <b>__Vendor_SysTickConfig</b> is set to 1, then the
           function <b>SysTick_Config</b> is not included. In this case, the file <b><i>device</i>.h</b>
           must contain a vendor-specific implementation of this function.
 */
__STATIC_INLINE uint32_t SysTick_Config(uint32_t ticks)
{
 80012cc:	b580      	push	{r7, lr}
 80012ce:	b082      	sub	sp, #8
 80012d0:	af00      	add	r7, sp, #0
 80012d2:	6078      	str	r0, [r7, #4]
  if ((ticks - 1UL) > SysTick_LOAD_RELOAD_Msk)
 80012d4:	687b      	ldr	r3, [r7, #4]
 80012d6:	3b01      	subs	r3, #1
 80012d8:	f1b3 7f80 	cmp.w	r3, #16777216	@ 0x1000000
 80012dc:	d301      	bcc.n	80012e2 <SysTick_Config+0x16>
  {
    return (1UL);                                                   /* Reload value impossible */
 80012de:	2301      	movs	r3, #1
 80012e0:	e00f      	b.n	8001302 <SysTick_Config+0x36>
  }

  SysTick->LOAD  = (uint32_t)(ticks - 1UL);                         /* set reload register */
 80012e2:	4a0a      	ldr	r2, [pc, #40]	@ (800130c <SysTick_Config+0x40>)
 80012e4:	687b      	ldr	r3, [r7, #4]
 80012e6:	3b01      	subs	r3, #1
 80012e8:	6053      	str	r3, [r2, #4]
  NVIC_SetPriority (SysTick_IRQn, (1UL << __NVIC_PRIO_BITS) - 1UL); /* set Priority for Systick Interrupt */
 80012ea:	210f      	movs	r1, #15
 80012ec:	f04f 30ff 	mov.w	r0, #4294967295
 80012f0:	f7ff ff8e 	bl	8001210 <__NVIC_SetPriority>
  SysTick->VAL   = 0UL;                                             /* Load the SysTick Counter Value */
 80012f4:	4b05      	ldr	r3, [pc, #20]	@ (800130c <SysTick_Config+0x40>)
 80012f6:	2200      	movs	r2, #0
 80012f8:	609a      	str	r2, [r3, #8]
  SysTick->CTRL  = SysTick_CTRL_CLKSOURCE_Msk |
 80012fa:	4b04      	ldr	r3, [pc, #16]	@ (800130c <SysTick_Config+0x40>)
 80012fc:	2207      	movs	r2, #7
 80012fe:	601a      	str	r2, [r3, #0]
                   SysTick_CTRL_TICKINT_Msk   |
                   SysTick_CTRL_ENABLE_Msk;                         /* Enable SysTick IRQ and SysTick Timer */
  return (0UL);                                                     /* Function successful */
 8001300:	2300      	movs	r3, #0
}
 8001302:	4618      	mov	r0, r3
 8001304:	3708      	adds	r7, #8
 8001306:	46bd      	mov	sp, r7
 8001308:	bd80      	pop	{r7, pc}
 800130a:	bf00      	nop
 800130c:	e000e010 	.word	0xe000e010

08001310 <HAL_NVIC_SetPriorityGrouping>:
  * @note   When the NVIC_PriorityGroup_0 is selected, IRQ preemption is no more possible.
  *         The pending IRQ priority will be managed only by the subpriority.
  * @retval None
  */
void HAL_NVIC_SetPriorityGrouping(uint32_t PriorityGroup)
{
 8001310:	b580      	push	{r7, lr}
 8001312:	b082      	sub	sp, #8
 8001314:	af00      	add	r7, sp, #0
 8001316:	6078      	str	r0, [r7, #4]
  /* Check the parameters */
  assert_param(IS_NVIC_PRIORITY_GROUP(PriorityGroup));

  /* Set the PRIGROUP[10:8] bits according to the PriorityGroup parameter value */
  NVIC_SetPriorityGrouping(PriorityGroup);
 8001318:	6878      	ldr	r0, [r7, #4]
 800131a:	f7ff ff29 	bl	8001170 <__NVIC_SetPriorityGrouping>
}
 800131e:	bf00      	nop
 8001320:	3708      	adds	r7, #8
 8001322:	46bd      	mov	sp, r7
 8001324:	bd80      	pop	{r7, pc}

08001326 <HAL_NVIC_SetPriority>:
  *         This parameter can be a value between 0 and 15
  *         A lower priority value indicates a higher priority.
  * @retval None
  */
void HAL_NVIC_SetPriority(IRQn_Type IRQn, uint32_t PreemptPriority, uint32_t SubPriority)
{
 8001326:	b580      	push	{r7, lr}
 8001328:	b086      	sub	sp, #24
 800132a:	af00      	add	r7, sp, #0
 800132c:	4603      	mov	r3, r0
 800132e:	60b9      	str	r1, [r7, #8]
 8001330:	607a      	str	r2, [r7, #4]
 8001332:	81fb      	strh	r3, [r7, #14]

  /* Check the parameters */
  assert_param(IS_NVIC_SUB_PRIORITY(SubPriority));
  assert_param(IS_NVIC_PREEMPTION_PRIORITY(PreemptPriority));

  prioritygroup = NVIC_GetPriorityGrouping();
 8001334:	f7ff ff40 	bl	80011b8 <__NVIC_GetPriorityGrouping>
 8001338:	6178      	str	r0, [r7, #20]

  NVIC_SetPriority(IRQn, NVIC_EncodePriority(prioritygroup, PreemptPriority, SubPriority));
 800133a:	687a      	ldr	r2, [r7, #4]
 800133c:	68b9      	ldr	r1, [r7, #8]
 800133e:	6978      	ldr	r0, [r7, #20]
 8001340:	f7ff ff90 	bl	8001264 <NVIC_EncodePriority>
 8001344:	4602      	mov	r2, r0
 8001346:	f9b7 300e 	ldrsh.w	r3, [r7, #14]
 800134a:	4611      	mov	r1, r2
 800134c:	4618      	mov	r0, r3
 800134e:	f7ff ff5f 	bl	8001210 <__NVIC_SetPriority>
}
 8001352:	bf00      	nop
 8001354:	3718      	adds	r7, #24
 8001356:	46bd      	mov	sp, r7
 8001358:	bd80      	pop	{r7, pc}

0800135a <HAL_NVIC_EnableIRQ>:
  *         This parameter can be an enumerator of IRQn_Type enumeration
  *         (For the complete STM32 Devices IRQ Channels list, please refer to the appropriate CMSIS device file (stm32h7xxxx.h))
  * @retval None
  */
void HAL_NVIC_EnableIRQ(IRQn_Type IRQn)
{
 800135a:	b580      	push	{r7, lr}
 800135c:	b082      	sub	sp, #8
 800135e:	af00      	add	r7, sp, #0
 8001360:	4603      	mov	r3, r0
 8001362:	80fb      	strh	r3, [r7, #6]
  /* Check the parameters */
  assert_param(IS_NVIC_DEVICE_IRQ(IRQn));

  /* Enable interrupt */
  NVIC_EnableIRQ(IRQn);
 8001364:	f9b7 3006 	ldrsh.w	r3, [r7, #6]
 8001368:	4618      	mov	r0, r3
 800136a:	f7ff ff33 	bl	80011d4 <__NVIC_EnableIRQ>
}
 800136e:	bf00      	nop
 8001370:	3708      	adds	r7, #8
 8001372:	46bd      	mov	sp, r7
 8001374:	bd80      	pop	{r7, pc}

08001376 <HAL_SYSTICK_Config>:
  * @param  TicksNumb Specifies the ticks Number of ticks between two interrupts.
  * @retval status   - 0  Function succeeded.
  *                  - 1  Function failed.
  */
uint32_t HAL_SYSTICK_Config(uint32_t TicksNumb)
{
 8001376:	b580      	push	{r7, lr}
 8001378:	b082      	sub	sp, #8
 800137a:	af00      	add	r7, sp, #0
 800137c:	6078      	str	r0, [r7, #4]
   return SysTick_Config(TicksNumb);
 800137e:	6878      	ldr	r0, [r7, #4]
 8001380:	f7ff ffa4 	bl	80012cc <SysTick_Config>
 8001384:	4603      	mov	r3, r0
}
 8001386:	4618      	mov	r0, r3
 8001388:	3708      	adds	r7, #8
 800138a:	46bd      	mov	sp, r7
 800138c:	bd80      	pop	{r7, pc}
	...

08001390 <HAL_MPU_Disable>:
/**
  * @brief  Disables the MPU
  * @retval None
  */
void HAL_MPU_Disable(void)
{
 8001390:	b480      	push	{r7}
 8001392:	af00      	add	r7, sp, #0
  __ASM volatile ("dmb 0xF":::"memory");
 8001394:	f3bf 8f5f 	dmb	sy
}
 8001398:	bf00      	nop
  /* Make sure outstanding transfers are done */
  __DMB();

  /* Disable fault exceptions */
  SCB->SHCSR &= ~SCB_SHCSR_MEMFAULTENA_Msk;
 800139a:	4b07      	ldr	r3, [pc, #28]	@ (80013b8 <HAL_MPU_Disable+0x28>)
 800139c:	6a5b      	ldr	r3, [r3, #36]	@ 0x24
 800139e:	4a06      	ldr	r2, [pc, #24]	@ (80013b8 <HAL_MPU_Disable+0x28>)
 80013a0:	f423 3380 	bic.w	r3, r3, #65536	@ 0x10000
 80013a4:	6253      	str	r3, [r2, #36]	@ 0x24

  /* Disable the MPU and clear the control register*/
  MPU->CTRL = 0;
 80013a6:	4b05      	ldr	r3, [pc, #20]	@ (80013bc <HAL_MPU_Disable+0x2c>)
 80013a8:	2200      	movs	r2, #0
 80013aa:	605a      	str	r2, [r3, #4]
}
 80013ac:	bf00      	nop
 80013ae:	46bd      	mov	sp, r7
 80013b0:	f85d 7b04 	ldr.w	r7, [sp], #4
 80013b4:	4770      	bx	lr
 80013b6:	bf00      	nop
 80013b8:	e000ed00 	.word	0xe000ed00
 80013bc:	e000ed90 	.word	0xe000ed90

080013c0 <HAL_MPU_Enable>:
  *            @arg MPU_PRIVILEGED_DEFAULT
  *            @arg MPU_HFNMI_PRIVDEF
  * @retval None
  */
void HAL_MPU_Enable(uint32_t MPU_Control)
{
 80013c0:	b480      	push	{r7}
 80013c2:	b083      	sub	sp, #12
 80013c4:	af00      	add	r7, sp, #0
 80013c6:	6078      	str	r0, [r7, #4]
  /* Enable the MPU */
  MPU->CTRL = MPU_Control | MPU_CTRL_ENABLE_Msk;
 80013c8:	4a0b      	ldr	r2, [pc, #44]	@ (80013f8 <HAL_MPU_Enable+0x38>)
 80013ca:	687b      	ldr	r3, [r7, #4]
 80013cc:	f043 0301 	orr.w	r3, r3, #1
 80013d0:	6053      	str	r3, [r2, #4]

  /* Enable fault exceptions */
  SCB->SHCSR |= SCB_SHCSR_MEMFAULTENA_Msk;
 80013d2:	4b0a      	ldr	r3, [pc, #40]	@ (80013fc <HAL_MPU_Enable+0x3c>)
 80013d4:	6a5b      	ldr	r3, [r3, #36]	@ 0x24
 80013d6:	4a09      	ldr	r2, [pc, #36]	@ (80013fc <HAL_MPU_Enable+0x3c>)
 80013d8:	f443 3380 	orr.w	r3, r3, #65536	@ 0x10000
 80013dc:	6253      	str	r3, [r2, #36]	@ 0x24
  __ASM volatile ("dsb 0xF":::"memory");
 80013de:	f3bf 8f4f 	dsb	sy
}
 80013e2:	bf00      	nop
  __ASM volatile ("isb 0xF":::"memory");
 80013e4:	f3bf 8f6f 	isb	sy
}
 80013e8:	bf00      	nop

  /* Ensure MPU setting take effects */
  __DSB();
  __ISB();
}
 80013ea:	bf00      	nop
 80013ec:	370c      	adds	r7, #12
 80013ee:	46bd      	mov	sp, r7
 80013f0:	f85d 7b04 	ldr.w	r7, [sp], #4
 80013f4:	4770      	bx	lr
 80013f6:	bf00      	nop
 80013f8:	e000ed90 	.word	0xe000ed90
 80013fc:	e000ed00 	.word	0xe000ed00

08001400 <HAL_MPU_ConfigRegion>:
  * @param MPU_Init Pointer to a MPU_Region_InitTypeDef structure that contains
  *                the initialization and configuration information.
  * @retval None
  */
void HAL_MPU_ConfigRegion(const MPU_Region_InitTypeDef *MPU_Init)
{
 8001400:	b480      	push	{r7}
 8001402:	b083      	sub	sp, #12
 8001404:	af00      	add	r7, sp, #0
 8001406:	6078      	str	r0, [r7, #4]
  assert_param(IS_MPU_ACCESS_BUFFERABLE(MPU_Init->IsBufferable));
  assert_param(IS_MPU_SUB_REGION_DISABLE(MPU_Init->SubRegionDisable));
  assert_param(IS_MPU_REGION_SIZE(MPU_Init->Size));

  /* Set the Region number */
  MPU->RNR = MPU_Init->Number;
 8001408:	687b      	ldr	r3, [r7, #4]
 800140a:	785a      	ldrb	r2, [r3, #1]
 800140c:	4b1b      	ldr	r3, [pc, #108]	@ (800147c <HAL_MPU_ConfigRegion+0x7c>)
 800140e:	609a      	str	r2, [r3, #8]

  /* Disable the Region */
  CLEAR_BIT(MPU->RASR, MPU_RASR_ENABLE_Msk);
 8001410:	4b1a      	ldr	r3, [pc, #104]	@ (800147c <HAL_MPU_ConfigRegion+0x7c>)
 8001412:	691b      	ldr	r3, [r3, #16]
 8001414:	4a19      	ldr	r2, [pc, #100]	@ (800147c <HAL_MPU_ConfigRegion+0x7c>)
 8001416:	f023 0301 	bic.w	r3, r3, #1
 800141a:	6113      	str	r3, [r2, #16]

  /* Apply configuration */
  MPU->RBAR = MPU_Init->BaseAddress;
 800141c:	4a17      	ldr	r2, [pc, #92]	@ (800147c <HAL_MPU_ConfigRegion+0x7c>)
 800141e:	687b      	ldr	r3, [r7, #4]
 8001420:	685b      	ldr	r3, [r3, #4]
 8001422:	60d3      	str	r3, [r2, #12]
  MPU->RASR = ((uint32_t)MPU_Init->DisableExec             << MPU_RASR_XN_Pos)   |
 8001424:	687b      	ldr	r3, [r7, #4]
 8001426:	7b1b      	ldrb	r3, [r3, #12]
 8001428:	071a      	lsls	r2, r3, #28
              ((uint32_t)MPU_Init->AccessPermission        << MPU_RASR_AP_Pos)   |
 800142a:	687b      	ldr	r3, [r7, #4]
 800142c:	7adb      	ldrb	r3, [r3, #11]
 800142e:	061b      	lsls	r3, r3, #24
  MPU->RASR = ((uint32_t)MPU_Init->DisableExec             << MPU_RASR_XN_Pos)   |
 8001430:	431a      	orrs	r2, r3
              ((uint32_t)MPU_Init->TypeExtField            << MPU_RASR_TEX_Pos)  |
 8001432:	687b      	ldr	r3, [r7, #4]
 8001434:	7a9b      	ldrb	r3, [r3, #10]
 8001436:	04db      	lsls	r3, r3, #19
              ((uint32_t)MPU_Init->AccessPermission        << MPU_RASR_AP_Pos)   |
 8001438:	431a      	orrs	r2, r3
              ((uint32_t)MPU_Init->IsShareable             << MPU_RASR_S_Pos)    |
 800143a:	687b      	ldr	r3, [r7, #4]
 800143c:	7b5b      	ldrb	r3, [r3, #13]
 800143e:	049b      	lsls	r3, r3, #18
              ((uint32_t)MPU_Init->TypeExtField            << MPU_RASR_TEX_Pos)  |
 8001440:	431a      	orrs	r2, r3
              ((uint32_t)MPU_Init->IsCacheable             << MPU_RASR_C_Pos)    |
 8001442:	687b      	ldr	r3, [r7, #4]
 8001444:	7b9b      	ldrb	r3, [r3, #14]
 8001446:	045b      	lsls	r3, r3, #17
              ((uint32_t)MPU_Init->IsShareable             << MPU_RASR_S_Pos)    |
 8001448:	431a      	orrs	r2, r3
              ((uint32_t)MPU_Init->IsBufferable            << MPU_RASR_B_Pos)    |
 800144a:	687b      	ldr	r3, [r7, #4]
 800144c:	7bdb      	ldrb	r3, [r3, #15]
 800144e:	041b      	lsls	r3, r3, #16
              ((uint32_t)MPU_Init->IsCacheable             << MPU_RASR_C_Pos)    |
 8001450:	431a      	orrs	r2, r3
              ((uint32_t)MPU_Init->SubRegionDisable        << MPU_RASR_SRD_Pos)  |
 8001452:	687b      	ldr	r3, [r7, #4]
 8001454:	7a5b      	ldrb	r3, [r3, #9]
 8001456:	021b      	lsls	r3, r3, #8
              ((uint32_t)MPU_Init->IsBufferable            << MPU_RASR_B_Pos)    |
 8001458:	431a      	orrs	r2, r3
              ((uint32_t)MPU_Init->Size                    << MPU_RASR_SIZE_Pos) |
 800145a:	687b      	ldr	r3, [r7, #4]
 800145c:	7a1b      	ldrb	r3, [r3, #8]
 800145e:	005b      	lsls	r3, r3, #1
              ((uint32_t)MPU_Init->SubRegionDisable        << MPU_RASR_SRD_Pos)  |
 8001460:	4313      	orrs	r3, r2
              ((uint32_t)MPU_Init->Enable                  << MPU_RASR_ENABLE_Pos);
 8001462:	687a      	ldr	r2, [r7, #4]
 8001464:	7812      	ldrb	r2, [r2, #0]
 8001466:	4611      	mov	r1, r2
  MPU->RASR = ((uint32_t)MPU_Init->DisableExec             << MPU_RASR_XN_Pos)   |
 8001468:	4a04      	ldr	r2, [pc, #16]	@ (800147c <HAL_MPU_ConfigRegion+0x7c>)
              ((uint32_t)MPU_Init->Size                    << MPU_RASR_SIZE_Pos) |
 800146a:	430b      	orrs	r3, r1
  MPU->RASR = ((uint32_t)MPU_Init->DisableExec             << MPU_RASR_XN_Pos)   |
 800146c:	6113      	str	r3, [r2, #16]
}
 800146e:	bf00      	nop
 8001470:	370c      	adds	r7, #12
 8001472:	46bd      	mov	sp, r7
 8001474:	f85d 7b04 	ldr.w	r7, [sp], #4
 8001478:	4770      	bx	lr
 800147a:	bf00      	nop
 800147c:	e000ed90 	.word	0xe000ed90

08001480 <HAL_EXTI_RegisterCallback>:
  *         This parameter can be one of @arg @ref EXTI_CallbackIDTypeDef values.
  * @param  pPendingCbfn function pointer to be stored as callback.
  * @retval HAL Status.
  */
HAL_StatusTypeDef HAL_EXTI_RegisterCallback(EXTI_HandleTypeDef *hexti, EXTI_CallbackIDTypeDef CallbackID, void (*pPendingCbfn)(void))
{
 8001480:	b480      	push	{r7}
 8001482:	b087      	sub	sp, #28
 8001484:	af00      	add	r7, sp, #0
 8001486:	60f8      	str	r0, [r7, #12]
 8001488:	460b      	mov	r3, r1
 800148a:	607a      	str	r2, [r7, #4]
 800148c:	72fb      	strb	r3, [r7, #11]
  HAL_StatusTypeDef status = HAL_OK;
 800148e:	2300      	movs	r3, #0
 8001490:	75fb      	strb	r3, [r7, #23]

  /* Check null pointer */
  if (hexti == NULL)
 8001492:	68fb      	ldr	r3, [r7, #12]
 8001494:	2b00      	cmp	r3, #0
 8001496:	d101      	bne.n	800149c <HAL_EXTI_RegisterCallback+0x1c>
  {
    return HAL_ERROR;
 8001498:	2301      	movs	r3, #1
 800149a:	e00a      	b.n	80014b2 <HAL_EXTI_RegisterCallback+0x32>
  }

  switch (CallbackID)
 800149c:	7afb      	ldrb	r3, [r7, #11]
 800149e:	2b00      	cmp	r3, #0
 80014a0:	d103      	bne.n	80014aa <HAL_EXTI_RegisterCallback+0x2a>
  {
    case  HAL_EXTI_COMMON_CB_ID:
      hexti->PendingCallback = pPendingCbfn;
 80014a2:	68fb      	ldr	r3, [r7, #12]
 80014a4:	687a      	ldr	r2, [r7, #4]
 80014a6:	605a      	str	r2, [r3, #4]
      break;
 80014a8:	e002      	b.n	80014b0 <HAL_EXTI_RegisterCallback+0x30>

    default:
      status = HAL_ERROR;
 80014aa:	2301      	movs	r3, #1
 80014ac:	75fb      	strb	r3, [r7, #23]
      break;
 80014ae:	bf00      	nop
  }

  return status;
 80014b0:	7dfb      	ldrb	r3, [r7, #23]
}
 80014b2:	4618      	mov	r0, r3
 80014b4:	371c      	adds	r7, #28
 80014b6:	46bd      	mov	sp, r7
 80014b8:	f85d 7b04 	ldr.w	r7, [sp], #4
 80014bc:	4770      	bx	lr

080014be <HAL_EXTI_GetHandle>:
  * @param  ExtiLine EXTI line number.
  *         This parameter can be from 0 to @ref EXTI_LINE_NB.
  * @retval HAL Status.
  */
HAL_StatusTypeDef HAL_EXTI_GetHandle(EXTI_HandleTypeDef *hexti, uint32_t ExtiLine)
{
 80014be:	b480      	push	{r7}
 80014c0:	b083      	sub	sp, #12
 80014c2:	af00      	add	r7, sp, #0
 80014c4:	6078      	str	r0, [r7, #4]
 80014c6:	6039      	str	r1, [r7, #0]
  /* Check the parameters */
  assert_param(IS_EXTI_LINE(ExtiLine));

  /* Check null pointer */
  if (hexti == NULL)
 80014c8:	687b      	ldr	r3, [r7, #4]
 80014ca:	2b00      	cmp	r3, #0
 80014cc:	d101      	bne.n	80014d2 <HAL_EXTI_GetHandle+0x14>
  {
    return HAL_ERROR;
 80014ce:	2301      	movs	r3, #1
 80014d0:	e003      	b.n	80014da <HAL_EXTI_GetHandle+0x1c>
  }
  else
  {
    /* Store line number as handle private field */
    hexti->Line = ExtiLine;
 80014d2:	687b      	ldr	r3, [r7, #4]
 80014d4:	683a      	ldr	r2, [r7, #0]
 80014d6:	601a      	str	r2, [r3, #0]

    return HAL_OK;
 80014d8:	2300      	movs	r3, #0
  }
}
 80014da:	4618      	mov	r0, r3
 80014dc:	370c      	adds	r7, #12
 80014de:	46bd      	mov	sp, r7
 80014e0:	f85d 7b04 	ldr.w	r7, [sp], #4
 80014e4:	4770      	bx	lr
	...

080014e8 <HAL_EXTI_IRQHandler>:
  * @brief  Handle EXTI interrupt request.
  * @param  hexti EXTI handle.
  * @retval none.
  */
void HAL_EXTI_IRQHandler(const EXTI_HandleTypeDef *hexti)
{
 80014e8:	b580      	push	{r7, lr}
 80014ea:	b086      	sub	sp, #24
 80014ec:	af00      	add	r7, sp, #0
 80014ee:	6078      	str	r0, [r7, #4]
  uint32_t regval;
  uint32_t maskline;
  uint32_t offset;

  /* Compute line register offset and line mask */
  offset = ((hexti->Line & EXTI_REG_MASK) >> EXTI_REG_SHIFT);
 80014f0:	687b      	ldr	r3, [r7, #4]
 80014f2:	681b      	ldr	r3, [r3, #0]
 80014f4:	0c1b      	lsrs	r3, r3, #16
 80014f6:	f003 0303 	and.w	r3, r3, #3
 80014fa:	617b      	str	r3, [r7, #20]
  maskline = (1UL << (hexti->Line & EXTI_PIN_MASK));
 80014fc:	687b      	ldr	r3, [r7, #4]
 80014fe:	681b      	ldr	r3, [r3, #0]
 8001500:	f003 031f 	and.w	r3, r3, #31
 8001504:	2201      	movs	r2, #1
 8001506:	fa02 f303 	lsl.w	r3, r2, r3
 800150a:	613b      	str	r3, [r7, #16]
  {
    /* Get pending register address */
    regaddr = (__IO uint32_t *)(&EXTI->C2PR1 + (EXTI_MODE_OFFSET * offset));
  }
#else
  regaddr = (__IO uint32_t *)(&EXTI->PR1 + (EXTI_MODE_OFFSET * offset));
 800150c:	697b      	ldr	r3, [r7, #20]
 800150e:	011a      	lsls	r2, r3, #4
 8001510:	4b0c      	ldr	r3, [pc, #48]	@ (8001544 <HAL_EXTI_IRQHandler+0x5c>)
 8001512:	4413      	add	r3, r2
 8001514:	60fb      	str	r3, [r7, #12]
#endif /* DUAL_CORE */

  /* Get pending bit  */
  regval = (*regaddr & maskline);
 8001516:	68fb      	ldr	r3, [r7, #12]
 8001518:	681b      	ldr	r3, [r3, #0]
 800151a:	693a      	ldr	r2, [r7, #16]
 800151c:	4013      	ands	r3, r2
 800151e:	60bb      	str	r3, [r7, #8]

  if (regval != 0x00U)
 8001520:	68bb      	ldr	r3, [r7, #8]
 8001522:	2b00      	cmp	r3, #0
 8001524:	d009      	beq.n	800153a <HAL_EXTI_IRQHandler+0x52>
  {
    /* Clear pending bit */
    *regaddr = maskline;
 8001526:	68fb      	ldr	r3, [r7, #12]
 8001528:	693a      	ldr	r2, [r7, #16]
 800152a:	601a      	str	r2, [r3, #0]

    /* Call callback */
    if (hexti->PendingCallback != NULL)
 800152c:	687b      	ldr	r3, [r7, #4]
 800152e:	685b      	ldr	r3, [r3, #4]
 8001530:	2b00      	cmp	r3, #0
 8001532:	d002      	beq.n	800153a <HAL_EXTI_IRQHandler+0x52>
    {
      hexti->PendingCallback();
 8001534:	687b      	ldr	r3, [r7, #4]
 8001536:	685b      	ldr	r3, [r3, #4]
 8001538:	4798      	blx	r3
    }
  }
}
 800153a:	bf00      	nop
 800153c:	3718      	adds	r7, #24
 800153e:	46bd      	mov	sp, r7
 8001540:	bd80      	pop	{r7, pc}
 8001542:	bf00      	nop
 8001544:	58000088 	.word	0x58000088

08001548 <HAL_FDCAN_Init>:
  * @param  hfdcan pointer to an FDCAN_HandleTypeDef structure that contains
  *         the configuration information for the specified FDCAN.
  * @retval HAL status
  */
HAL_StatusTypeDef HAL_FDCAN_Init(FDCAN_HandleTypeDef *hfdcan)
{
 8001548:	b580      	push	{r7, lr}
 800154a:	b098      	sub	sp, #96	@ 0x60
 800154c:	af00      	add	r7, sp, #0
 800154e:	6078      	str	r0, [r7, #4]
  uint32_t tickstart;
  HAL_StatusTypeDef status;
  const uint32_t CvtEltSize[] = {0, 0, 0, 0, 0, 1, 2, 3, 4, 0, 5, 0, 0, 0, 6, 0, 0, 0, 7};
 8001550:	4a84      	ldr	r2, [pc, #528]	@ (8001764 <HAL_FDCAN_Init+0x21c>)
 8001552:	f107 030c 	add.w	r3, r7, #12
 8001556:	4611      	mov	r1, r2
 8001558:	224c      	movs	r2, #76	@ 0x4c
 800155a:	4618      	mov	r0, r3
 800155c:	f004 fdfe 	bl	800615c <memcpy>

  /* Check FDCAN handle */
  if (hfdcan == NULL)
 8001560:	687b      	ldr	r3, [r7, #4]
 8001562:	2b00      	cmp	r3, #0
 8001564:	d101      	bne.n	800156a <HAL_FDCAN_Init+0x22>
  {
    return HAL_ERROR;
 8001566:	2301      	movs	r3, #1
 8001568:	e1c6      	b.n	80018f8 <HAL_FDCAN_Init+0x3b0>
  }

  /* Check function parameters */
  assert_param(IS_FDCAN_ALL_INSTANCE(hfdcan->Instance));
  if (hfdcan->Instance == FDCAN1)
 800156a:	687b      	ldr	r3, [r7, #4]
 800156c:	681b      	ldr	r3, [r3, #0]
 800156e:	4a7e      	ldr	r2, [pc, #504]	@ (8001768 <HAL_FDCAN_Init+0x220>)
 8001570:	4293      	cmp	r3, r2
 8001572:	d106      	bne.n	8001582 <HAL_FDCAN_Init+0x3a>
  {
    hfdcan->ttcan = (TTCAN_TypeDef *)((uint32_t)hfdcan->Instance + 0x100U);
 8001574:	687b      	ldr	r3, [r7, #4]
 8001576:	681b      	ldr	r3, [r3, #0]
 8001578:	f503 7380 	add.w	r3, r3, #256	@ 0x100
 800157c:	461a      	mov	r2, r3
 800157e:	687b      	ldr	r3, [r7, #4]
 8001580:	605a      	str	r2, [r3, #4]

    /* Init the low level hardware: CLOCK, NVIC */
    hfdcan->MspInitCallback(hfdcan);
  }
#else
  if (hfdcan->State == HAL_FDCAN_STATE_RESET)
 8001582:	687b      	ldr	r3, [r7, #4]
 8001584:	f893 3098 	ldrb.w	r3, [r3, #152]	@ 0x98
 8001588:	b2db      	uxtb	r3, r3
 800158a:	2b00      	cmp	r3, #0
 800158c:	d106      	bne.n	800159c <HAL_FDCAN_Init+0x54>
  {
    /* Allocate lock resource and initialize it */
    hfdcan->Lock = HAL_UNLOCKED;
 800158e:	687b      	ldr	r3, [r7, #4]
 8001590:	2200      	movs	r2, #0
 8001592:	f883 2099 	strb.w	r2, [r3, #153]	@ 0x99

    /* Init the low level hardware: CLOCK, NVIC */
    HAL_FDCAN_MspInit(hfdcan);
 8001596:	6878      	ldr	r0, [r7, #4]
 8001598:	f7ff fa2a 	bl	80009f0 <HAL_FDCAN_MspInit>
  }
#endif /* USE_HAL_FDCAN_REGISTER_CALLBACKS */

  /* Exit from Sleep mode */
  CLEAR_BIT(hfdcan->Instance->CCCR, FDCAN_CCCR_CSR);
 800159c:	687b      	ldr	r3, [r7, #4]
 800159e:	681b      	ldr	r3, [r3, #0]
 80015a0:	699a      	ldr	r2, [r3, #24]
 80015a2:	687b      	ldr	r3, [r7, #4]
 80015a4:	681b      	ldr	r3, [r3, #0]
 80015a6:	f022 0210 	bic.w	r2, r2, #16
 80015aa:	619a      	str	r2, [r3, #24]

  /* Get tick */
  tickstart = HAL_GetTick();
 80015ac:	f7ff fdd4 	bl	8001158 <HAL_GetTick>
 80015b0:	65f8      	str	r0, [r7, #92]	@ 0x5c

  /* Check Sleep mode acknowledge */
  while ((hfdcan->Instance->CCCR & FDCAN_CCCR_CSA) == FDCAN_CCCR_CSA)
 80015b2:	e014      	b.n	80015de <HAL_FDCAN_Init+0x96>
  {
    if ((HAL_GetTick() - tickstart) > FDCAN_TIMEOUT_VALUE)
 80015b4:	f7ff fdd0 	bl	8001158 <HAL_GetTick>
 80015b8:	4602      	mov	r2, r0
 80015ba:	6dfb      	ldr	r3, [r7, #92]	@ 0x5c
 80015bc:	1ad3      	subs	r3, r2, r3
 80015be:	2b0a      	cmp	r3, #10
 80015c0:	d90d      	bls.n	80015de <HAL_FDCAN_Init+0x96>
    {
      /* Update error code */
      hfdcan->ErrorCode |= HAL_FDCAN_ERROR_TIMEOUT;
 80015c2:	687b      	ldr	r3, [r7, #4]
 80015c4:	f8d3 309c 	ldr.w	r3, [r3, #156]	@ 0x9c
 80015c8:	f043 0201 	orr.w	r2, r3, #1
 80015cc:	687b      	ldr	r3, [r7, #4]
 80015ce:	f8c3 209c 	str.w	r2, [r3, #156]	@ 0x9c

      /* Change FDCAN state */
      hfdcan->State = HAL_FDCAN_STATE_ERROR;
 80015d2:	687b      	ldr	r3, [r7, #4]
 80015d4:	2203      	movs	r2, #3
 80015d6:	f883 2098 	strb.w	r2, [r3, #152]	@ 0x98

      return HAL_ERROR;
 80015da:	2301      	movs	r3, #1
 80015dc:	e18c      	b.n	80018f8 <HAL_FDCAN_Init+0x3b0>
  while ((hfdcan->Instance->CCCR & FDCAN_CCCR_CSA) == FDCAN_CCCR_CSA)
 80015de:	687b      	ldr	r3, [r7, #4]
 80015e0:	681b      	ldr	r3, [r3, #0]
 80015e2:	699b      	ldr	r3, [r3, #24]
 80015e4:	f003 0308 	and.w	r3, r3, #8
 80015e8:	2b08      	cmp	r3, #8
 80015ea:	d0e3      	beq.n	80015b4 <HAL_FDCAN_Init+0x6c>
    }
  }

  /* Request initialisation */
  SET_BIT(hfdcan->Instance->CCCR, FDCAN_CCCR_INIT);
 80015ec:	687b      	ldr	r3, [r7, #4]
 80015ee:	681b      	ldr	r3, [r3, #0]
 80015f0:	699a      	ldr	r2, [r3, #24]
 80015f2:	687b      	ldr	r3, [r7, #4]
 80015f4:	681b      	ldr	r3, [r3, #0]
 80015f6:	f042 0201 	orr.w	r2, r2, #1
 80015fa:	619a      	str	r2, [r3, #24]

  /* Get tick */
  tickstart = HAL_GetTick();
 80015fc:	f7ff fdac 	bl	8001158 <HAL_GetTick>
 8001600:	65f8      	str	r0, [r7, #92]	@ 0x5c

  /* Wait until the INIT bit into CCCR register is set */
  while ((hfdcan->Instance->CCCR & FDCAN_CCCR_INIT) == 0U)
 8001602:	e014      	b.n	800162e <HAL_FDCAN_Init+0xe6>
  {
    /* Check for the Timeout */
    if ((HAL_GetTick() - tickstart) > FDCAN_TIMEOUT_VALUE)
 8001604:	f7ff fda8 	bl	8001158 <HAL_GetTick>
 8001608:	4602      	mov	r2, r0
 800160a:	6dfb      	ldr	r3, [r7, #92]	@ 0x5c
 800160c:	1ad3      	subs	r3, r2, r3
 800160e:	2b0a      	cmp	r3, #10
 8001610:	d90d      	bls.n	800162e <HAL_FDCAN_Init+0xe6>
    {
      /* Update error code */
      hfdcan->ErrorCode |= HAL_FDCAN_ERROR_TIMEOUT;
 8001612:	687b      	ldr	r3, [r7, #4]
 8001614:	f8d3 309c 	ldr.w	r3, [r3, #156]	@ 0x9c
 8001618:	f043 0201 	orr.w	r2, r3, #1
 800161c:	687b      	ldr	r3, [r7, #4]
 800161e:	f8c3 209c 	str.w	r2, [r3, #156]	@ 0x9c

      /* Change FDCAN state */
      hfdcan->State = HAL_FDCAN_STATE_ERROR;
 8001622:	687b      	ldr	r3, [r7, #4]
 8001624:	2203      	movs	r2, #3
 8001626:	f883 2098 	strb.w	r2, [r3, #152]	@ 0x98

      return HAL_ERROR;
 800162a:	2301      	movs	r3, #1
 800162c:	e164      	b.n	80018f8 <HAL_FDCAN_Init+0x3b0>
  while ((hfdcan->Instance->CCCR & FDCAN_CCCR_INIT) == 0U)
 800162e:	687b      	ldr	r3, [r7, #4]
 8001630:	681b      	ldr	r3, [r3, #0]
 8001632:	699b      	ldr	r3, [r3, #24]
 8001634:	f003 0301 	and.w	r3, r3, #1
 8001638:	2b00      	cmp	r3, #0
 800163a:	d0e3      	beq.n	8001604 <HAL_FDCAN_Init+0xbc>
    }
  }

  /* Enable configuration change */
  SET_BIT(hfdcan->Instance->CCCR, FDCAN_CCCR_CCE);
 800163c:	687b      	ldr	r3, [r7, #4]
 800163e:	681b      	ldr	r3, [r3, #0]
 8001640:	699a      	ldr	r2, [r3, #24]
 8001642:	687b      	ldr	r3, [r7, #4]
 8001644:	681b      	ldr	r3, [r3, #0]
 8001646:	f042 0202 	orr.w	r2, r2, #2
 800164a:	619a      	str	r2, [r3, #24]

  /* Set the no automatic retransmission */
  if (hfdcan->Init.AutoRetransmission == ENABLE)
 800164c:	687b      	ldr	r3, [r7, #4]
 800164e:	7c1b      	ldrb	r3, [r3, #16]
 8001650:	2b01      	cmp	r3, #1
 8001652:	d108      	bne.n	8001666 <HAL_FDCAN_Init+0x11e>
  {
    CLEAR_BIT(hfdcan->Instance->CCCR, FDCAN_CCCR_DAR);
 8001654:	687b      	ldr	r3, [r7, #4]
 8001656:	681b      	ldr	r3, [r3, #0]
 8001658:	699a      	ldr	r2, [r3, #24]
 800165a:	687b      	ldr	r3, [r7, #4]
 800165c:	681b      	ldr	r3, [r3, #0]
 800165e:	f022 0240 	bic.w	r2, r2, #64	@ 0x40
 8001662:	619a      	str	r2, [r3, #24]
 8001664:	e007      	b.n	8001676 <HAL_FDCAN_Init+0x12e>
  }
  else
  {
    SET_BIT(hfdcan->Instance->CCCR, FDCAN_CCCR_DAR);
 8001666:	687b      	ldr	r3, [r7, #4]
 8001668:	681b      	ldr	r3, [r3, #0]
 800166a:	699a      	ldr	r2, [r3, #24]
 800166c:	687b      	ldr	r3, [r7, #4]
 800166e:	681b      	ldr	r3, [r3, #0]
 8001670:	f042 0240 	orr.w	r2, r2, #64	@ 0x40
 8001674:	619a      	str	r2, [r3, #24]
  }

  /* Set the transmit pause feature */
  if (hfdcan->Init.TransmitPause == ENABLE)
 8001676:	687b      	ldr	r3, [r7, #4]
 8001678:	7c5b      	ldrb	r3, [r3, #17]
 800167a:	2b01      	cmp	r3, #1
 800167c:	d108      	bne.n	8001690 <HAL_FDCAN_Init+0x148>
  {
    SET_BIT(hfdcan->Instance->CCCR, FDCAN_CCCR_TXP);
 800167e:	687b      	ldr	r3, [r7, #4]
 8001680:	681b      	ldr	r3, [r3, #0]
 8001682:	699a      	ldr	r2, [r3, #24]
 8001684:	687b      	ldr	r3, [r7, #4]
 8001686:	681b      	ldr	r3, [r3, #0]
 8001688:	f442 4280 	orr.w	r2, r2, #16384	@ 0x4000
 800168c:	619a      	str	r2, [r3, #24]
 800168e:	e007      	b.n	80016a0 <HAL_FDCAN_Init+0x158>
  }
  else
  {
    CLEAR_BIT(hfdcan->Instance->CCCR, FDCAN_CCCR_TXP);
 8001690:	687b      	ldr	r3, [r7, #4]
 8001692:	681b      	ldr	r3, [r3, #0]
 8001694:	699a      	ldr	r2, [r3, #24]
 8001696:	687b      	ldr	r3, [r7, #4]
 8001698:	681b      	ldr	r3, [r3, #0]
 800169a:	f422 4280 	bic.w	r2, r2, #16384	@ 0x4000
 800169e:	619a      	str	r2, [r3, #24]
  }

  /* Set the Protocol Exception Handling */
  if (hfdcan->Init.ProtocolException == ENABLE)
 80016a0:	687b      	ldr	r3, [r7, #4]
 80016a2:	7c9b      	ldrb	r3, [r3, #18]
 80016a4:	2b01      	cmp	r3, #1
 80016a6:	d108      	bne.n	80016ba <HAL_FDCAN_Init+0x172>
  {
    CLEAR_BIT(hfdcan->Instance->CCCR, FDCAN_CCCR_PXHD);
 80016a8:	687b      	ldr	r3, [r7, #4]
 80016aa:	681b      	ldr	r3, [r3, #0]
 80016ac:	699a      	ldr	r2, [r3, #24]
 80016ae:	687b      	ldr	r3, [r7, #4]
 80016b0:	681b      	ldr	r3, [r3, #0]
 80016b2:	f422 5280 	bic.w	r2, r2, #4096	@ 0x1000
 80016b6:	619a      	str	r2, [r3, #24]
 80016b8:	e007      	b.n	80016ca <HAL_FDCAN_Init+0x182>
  }
  else
  {
    SET_BIT(hfdcan->Instance->CCCR, FDCAN_CCCR_PXHD);
 80016ba:	687b      	ldr	r3, [r7, #4]
 80016bc:	681b      	ldr	r3, [r3, #0]
 80016be:	699a      	ldr	r2, [r3, #24]
 80016c0:	687b      	ldr	r3, [r7, #4]
 80016c2:	681b      	ldr	r3, [r3, #0]
 80016c4:	f442 5280 	orr.w	r2, r2, #4096	@ 0x1000
 80016c8:	619a      	str	r2, [r3, #24]
  }

  /* Set FDCAN Frame Format */
  MODIFY_REG(hfdcan->Instance->CCCR, FDCAN_FRAME_FD_BRS, hfdcan->Init.FrameFormat);
 80016ca:	687b      	ldr	r3, [r7, #4]
 80016cc:	681b      	ldr	r3, [r3, #0]
 80016ce:	699b      	ldr	r3, [r3, #24]
 80016d0:	f423 7140 	bic.w	r1, r3, #768	@ 0x300
 80016d4:	687b      	ldr	r3, [r7, #4]
 80016d6:	689a      	ldr	r2, [r3, #8]
 80016d8:	687b      	ldr	r3, [r7, #4]
 80016da:	681b      	ldr	r3, [r3, #0]
 80016dc:	430a      	orrs	r2, r1
 80016de:	619a      	str	r2, [r3, #24]

  /* Reset FDCAN Operation Mode */
  CLEAR_BIT(hfdcan->Instance->CCCR, (FDCAN_CCCR_TEST | FDCAN_CCCR_MON | FDCAN_CCCR_ASM));
 80016e0:	687b      	ldr	r3, [r7, #4]
 80016e2:	681b      	ldr	r3, [r3, #0]
 80016e4:	699a      	ldr	r2, [r3, #24]
 80016e6:	687b      	ldr	r3, [r7, #4]
 80016e8:	681b      	ldr	r3, [r3, #0]
 80016ea:	f022 02a4 	bic.w	r2, r2, #164	@ 0xa4
 80016ee:	619a      	str	r2, [r3, #24]
  CLEAR_BIT(hfdcan->Instance->TEST, FDCAN_TEST_LBCK);
 80016f0:	687b      	ldr	r3, [r7, #4]
 80016f2:	681b      	ldr	r3, [r3, #0]
 80016f4:	691a      	ldr	r2, [r3, #16]
 80016f6:	687b      	ldr	r3, [r7, #4]
 80016f8:	681b      	ldr	r3, [r3, #0]
 80016fa:	f022 0210 	bic.w	r2, r2, #16
 80016fe:	611a      	str	r2, [r3, #16]
     CCCR.TEST |   0    |     0      |     0      |    1     |    1
     CCCR.MON  |   0    |     0      |     1      |    1     |    0
     TEST.LBCK |   0    |     0      |     0      |    1     |    1
     CCCR.ASM  |   0    |     1      |     0      |    0     |    0
  */
  if (hfdcan->Init.Mode == FDCAN_MODE_RESTRICTED_OPERATION)
 8001700:	687b      	ldr	r3, [r7, #4]
 8001702:	68db      	ldr	r3, [r3, #12]
 8001704:	2b01      	cmp	r3, #1
 8001706:	d108      	bne.n	800171a <HAL_FDCAN_Init+0x1d2>
  {
    /* Enable Restricted Operation mode */
    SET_BIT(hfdcan->Instance->CCCR, FDCAN_CCCR_ASM);
 8001708:	687b      	ldr	r3, [r7, #4]
 800170a:	681b      	ldr	r3, [r3, #0]
 800170c:	699a      	ldr	r2, [r3, #24]
 800170e:	687b      	ldr	r3, [r7, #4]
 8001710:	681b      	ldr	r3, [r3, #0]
 8001712:	f042 0204 	orr.w	r2, r2, #4
 8001716:	619a      	str	r2, [r3, #24]
 8001718:	e030      	b.n	800177c <HAL_FDCAN_Init+0x234>
  }
  else if (hfdcan->Init.Mode != FDCAN_MODE_NORMAL)
 800171a:	687b      	ldr	r3, [r7, #4]
 800171c:	68db      	ldr	r3, [r3, #12]
 800171e:	2b00      	cmp	r3, #0
 8001720:	d02c      	beq.n	800177c <HAL_FDCAN_Init+0x234>
  {
    if (hfdcan->Init.Mode != FDCAN_MODE_BUS_MONITORING)
 8001722:	687b      	ldr	r3, [r7, #4]
 8001724:	68db      	ldr	r3, [r3, #12]
 8001726:	2b02      	cmp	r3, #2
 8001728:	d020      	beq.n	800176c <HAL_FDCAN_Init+0x224>
    {
      /* Enable write access to TEST register */
      SET_BIT(hfdcan->Instance->CCCR, FDCAN_CCCR_TEST);
 800172a:	687b      	ldr	r3, [r7, #4]
 800172c:	681b      	ldr	r3, [r3, #0]
 800172e:	699a      	ldr	r2, [r3, #24]
 8001730:	687b      	ldr	r3, [r7, #4]
 8001732:	681b      	ldr	r3, [r3, #0]
 8001734:	f042 0280 	orr.w	r2, r2, #128	@ 0x80
 8001738:	619a      	str	r2, [r3, #24]

      /* Enable LoopBack mode */
      SET_BIT(hfdcan->Instance->TEST, FDCAN_TEST_LBCK);
 800173a:	687b      	ldr	r3, [r7, #4]
 800173c:	681b      	ldr	r3, [r3, #0]
 800173e:	691a      	ldr	r2, [r3, #16]
 8001740:	687b      	ldr	r3, [r7, #4]
 8001742:	681b      	ldr	r3, [r3, #0]
 8001744:	f042 0210 	orr.w	r2, r2, #16
 8001748:	611a      	str	r2, [r3, #16]

      if (hfdcan->Init.Mode == FDCAN_MODE_INTERNAL_LOOPBACK)
 800174a:	687b      	ldr	r3, [r7, #4]
 800174c:	68db      	ldr	r3, [r3, #12]
 800174e:	2b03      	cmp	r3, #3
 8001750:	d114      	bne.n	800177c <HAL_FDCAN_Init+0x234>
      {
        SET_BIT(hfdcan->Instance->CCCR, FDCAN_CCCR_MON);
 8001752:	687b      	ldr	r3, [r7, #4]
 8001754:	681b      	ldr	r3, [r3, #0]
 8001756:	699a      	ldr	r2, [r3, #24]
 8001758:	687b      	ldr	r3, [r7, #4]
 800175a:	681b      	ldr	r3, [r3, #0]
 800175c:	f042 0220 	orr.w	r2, r2, #32
 8001760:	619a      	str	r2, [r3, #24]
 8001762:	e00b      	b.n	800177c <HAL_FDCAN_Init+0x234>
 8001764:	08006190 	.word	0x08006190
 8001768:	4000a000 	.word	0x4000a000
      }
    }
    else
    {
      /* Enable bus monitoring mode */
      SET_BIT(hfdcan->Instance->CCCR, FDCAN_CCCR_MON);
 800176c:	687b      	ldr	r3, [r7, #4]
 800176e:	681b      	ldr	r3, [r3, #0]
 8001770:	699a      	ldr	r2, [r3, #24]
 8001772:	687b      	ldr	r3, [r7, #4]
 8001774:	681b      	ldr	r3, [r3, #0]
 8001776:	f042 0220 	orr.w	r2, r2, #32
 800177a:	619a      	str	r2, [r3, #24]
  {
    /* Nothing to do: normal mode */
  }

  /* Set the nominal bit timing register */
  hfdcan->Instance->NBTP = ((((uint32_t)hfdcan->Init.NominalSyncJumpWidth - 1U) << FDCAN_NBTP_NSJW_Pos) | \
 800177c:	687b      	ldr	r3, [r7, #4]
 800177e:	699b      	ldr	r3, [r3, #24]
 8001780:	3b01      	subs	r3, #1
 8001782:	065a      	lsls	r2, r3, #25
                            (((uint32_t)hfdcan->Init.NominalTimeSeg1 - 1U) << FDCAN_NBTP_NTSEG1_Pos)    | \
 8001784:	687b      	ldr	r3, [r7, #4]
 8001786:	69db      	ldr	r3, [r3, #28]
 8001788:	3b01      	subs	r3, #1
 800178a:	021b      	lsls	r3, r3, #8
  hfdcan->Instance->NBTP = ((((uint32_t)hfdcan->Init.NominalSyncJumpWidth - 1U) << FDCAN_NBTP_NSJW_Pos) | \
 800178c:	431a      	orrs	r2, r3
                            (((uint32_t)hfdcan->Init.NominalTimeSeg2 - 1U) << FDCAN_NBTP_NTSEG2_Pos)    | \
 800178e:	687b      	ldr	r3, [r7, #4]
 8001790:	6a1b      	ldr	r3, [r3, #32]
 8001792:	3b01      	subs	r3, #1
                            (((uint32_t)hfdcan->Init.NominalTimeSeg1 - 1U) << FDCAN_NBTP_NTSEG1_Pos)    | \
 8001794:	ea42 0103 	orr.w	r1, r2, r3
                            (((uint32_t)hfdcan->Init.NominalPrescaler - 1U) << FDCAN_NBTP_NBRP_Pos));
 8001798:	687b      	ldr	r3, [r7, #4]
 800179a:	695b      	ldr	r3, [r3, #20]
 800179c:	3b01      	subs	r3, #1
 800179e:	041a      	lsls	r2, r3, #16
  hfdcan->Instance->NBTP = ((((uint32_t)hfdcan->Init.NominalSyncJumpWidth - 1U) << FDCAN_NBTP_NSJW_Pos) | \
 80017a0:	687b      	ldr	r3, [r7, #4]
 80017a2:	681b      	ldr	r3, [r3, #0]
                            (((uint32_t)hfdcan->Init.NominalTimeSeg2 - 1U) << FDCAN_NBTP_NTSEG2_Pos)    | \
 80017a4:	430a      	orrs	r2, r1
  hfdcan->Instance->NBTP = ((((uint32_t)hfdcan->Init.NominalSyncJumpWidth - 1U) << FDCAN_NBTP_NSJW_Pos) | \
 80017a6:	61da      	str	r2, [r3, #28]

  /* If FD operation with BRS is selected, set the data bit timing register */
  if (hfdcan->Init.FrameFormat == FDCAN_FRAME_FD_BRS)
 80017a8:	687b      	ldr	r3, [r7, #4]
 80017aa:	689b      	ldr	r3, [r3, #8]
 80017ac:	f5b3 7f40 	cmp.w	r3, #768	@ 0x300
 80017b0:	d115      	bne.n	80017de <HAL_FDCAN_Init+0x296>
  {
    hfdcan->Instance->DBTP = ((((uint32_t)hfdcan->Init.DataSyncJumpWidth - 1U) << FDCAN_DBTP_DSJW_Pos)  | \
 80017b2:	687b      	ldr	r3, [r7, #4]
 80017b4:	6a9b      	ldr	r3, [r3, #40]	@ 0x28
 80017b6:	1e5a      	subs	r2, r3, #1
                              (((uint32_t)hfdcan->Init.DataTimeSeg1 - 1U) << FDCAN_DBTP_DTSEG1_Pos)     | \
 80017b8:	687b      	ldr	r3, [r7, #4]
 80017ba:	6adb      	ldr	r3, [r3, #44]	@ 0x2c
 80017bc:	3b01      	subs	r3, #1
 80017be:	021b      	lsls	r3, r3, #8
    hfdcan->Instance->DBTP = ((((uint32_t)hfdcan->Init.DataSyncJumpWidth - 1U) << FDCAN_DBTP_DSJW_Pos)  | \
 80017c0:	431a      	orrs	r2, r3
                              (((uint32_t)hfdcan->Init.DataTimeSeg2 - 1U) << FDCAN_DBTP_DTSEG2_Pos)     | \
 80017c2:	687b      	ldr	r3, [r7, #4]
 80017c4:	6b1b      	ldr	r3, [r3, #48]	@ 0x30
 80017c6:	3b01      	subs	r3, #1
 80017c8:	011b      	lsls	r3, r3, #4
                              (((uint32_t)hfdcan->Init.DataTimeSeg1 - 1U) << FDCAN_DBTP_DTSEG1_Pos)     | \
 80017ca:	ea42 0103 	orr.w	r1, r2, r3
                              (((uint32_t)hfdcan->Init.DataPrescaler - 1U) << FDCAN_DBTP_DBRP_Pos));
 80017ce:	687b      	ldr	r3, [r7, #4]
 80017d0:	6a5b      	ldr	r3, [r3, #36]	@ 0x24
 80017d2:	3b01      	subs	r3, #1
 80017d4:	041a      	lsls	r2, r3, #16
    hfdcan->Instance->DBTP = ((((uint32_t)hfdcan->Init.DataSyncJumpWidth - 1U) << FDCAN_DBTP_DSJW_Pos)  | \
 80017d6:	687b      	ldr	r3, [r7, #4]
 80017d8:	681b      	ldr	r3, [r3, #0]
                              (((uint32_t)hfdcan->Init.DataTimeSeg2 - 1U) << FDCAN_DBTP_DTSEG2_Pos)     | \
 80017da:	430a      	orrs	r2, r1
    hfdcan->Instance->DBTP = ((((uint32_t)hfdcan->Init.DataSyncJumpWidth - 1U) << FDCAN_DBTP_DSJW_Pos)  | \
 80017dc:	60da      	str	r2, [r3, #12]
  }

  if (hfdcan->Init.TxFifoQueueElmtsNbr > 0U)
 80017de:	687b      	ldr	r3, [r7, #4]
 80017e0:	6e1b      	ldr	r3, [r3, #96]	@ 0x60
 80017e2:	2b00      	cmp	r3, #0
 80017e4:	d00a      	beq.n	80017fc <HAL_FDCAN_Init+0x2b4>
  {
    /* Select between Tx FIFO and Tx Queue operation modes */
    SET_BIT(hfdcan->Instance->TXBC, hfdcan->Init.TxFifoQueueMode);
 80017e6:	687b      	ldr	r3, [r7, #4]
 80017e8:	681b      	ldr	r3, [r3, #0]
 80017ea:	f8d3 10c0 	ldr.w	r1, [r3, #192]	@ 0xc0
 80017ee:	687b      	ldr	r3, [r7, #4]
 80017f0:	6e5a      	ldr	r2, [r3, #100]	@ 0x64
 80017f2:	687b      	ldr	r3, [r7, #4]
 80017f4:	681b      	ldr	r3, [r3, #0]
 80017f6:	430a      	orrs	r2, r1
 80017f8:	f8c3 20c0 	str.w	r2, [r3, #192]	@ 0xc0
  }

  /* Configure Tx element size */
  if ((hfdcan->Init.TxBuffersNbr + hfdcan->Init.TxFifoQueueElmtsNbr) > 0U)
 80017fc:	687b      	ldr	r3, [r7, #4]
 80017fe:	6dda      	ldr	r2, [r3, #92]	@ 0x5c
 8001800:	687b      	ldr	r3, [r7, #4]
 8001802:	6e1b      	ldr	r3, [r3, #96]	@ 0x60
 8001804:	4413      	add	r3, r2
 8001806:	2b00      	cmp	r3, #0
 8001808:	d011      	beq.n	800182e <HAL_FDCAN_Init+0x2e6>
  {
    MODIFY_REG(hfdcan->Instance->TXESC, FDCAN_TXESC_TBDS, CvtEltSize[hfdcan->Init.TxElmtSize]);
 800180a:	687b      	ldr	r3, [r7, #4]
 800180c:	681b      	ldr	r3, [r3, #0]
 800180e:	f8d3 30c8 	ldr.w	r3, [r3, #200]	@ 0xc8
 8001812:	f023 0107 	bic.w	r1, r3, #7
 8001816:	687b      	ldr	r3, [r7, #4]
 8001818:	6e9b      	ldr	r3, [r3, #104]	@ 0x68
 800181a:	009b      	lsls	r3, r3, #2
 800181c:	3360      	adds	r3, #96	@ 0x60
 800181e:	443b      	add	r3, r7
 8001820:	f853 2c54 	ldr.w	r2, [r3, #-84]
 8001824:	687b      	ldr	r3, [r7, #4]
 8001826:	681b      	ldr	r3, [r3, #0]
 8001828:	430a      	orrs	r2, r1
 800182a:	f8c3 20c8 	str.w	r2, [r3, #200]	@ 0xc8
  }

  /* Configure Rx FIFO 0 element size */
  if (hfdcan->Init.RxFifo0ElmtsNbr > 0U)
 800182e:	687b      	ldr	r3, [r7, #4]
 8001830:	6c1b      	ldr	r3, [r3, #64]	@ 0x40
 8001832:	2b00      	cmp	r3, #0
 8001834:	d011      	beq.n	800185a <HAL_FDCAN_Init+0x312>
  {
    MODIFY_REG(hfdcan->Instance->RXESC, FDCAN_RXESC_F0DS,
 8001836:	687b      	ldr	r3, [r7, #4]
 8001838:	681b      	ldr	r3, [r3, #0]
 800183a:	f8d3 30bc 	ldr.w	r3, [r3, #188]	@ 0xbc
 800183e:	f023 0107 	bic.w	r1, r3, #7
 8001842:	687b      	ldr	r3, [r7, #4]
 8001844:	6c5b      	ldr	r3, [r3, #68]	@ 0x44
 8001846:	009b      	lsls	r3, r3, #2
 8001848:	3360      	adds	r3, #96	@ 0x60
 800184a:	443b      	add	r3, r7
 800184c:	f853 2c54 	ldr.w	r2, [r3, #-84]
 8001850:	687b      	ldr	r3, [r7, #4]
 8001852:	681b      	ldr	r3, [r3, #0]
 8001854:	430a      	orrs	r2, r1
 8001856:	f8c3 20bc 	str.w	r2, [r3, #188]	@ 0xbc
               (CvtEltSize[hfdcan->Init.RxFifo0ElmtSize] << FDCAN_RXESC_F0DS_Pos));
  }

  /* Configure Rx FIFO 1 element size */
  if (hfdcan->Init.RxFifo1ElmtsNbr > 0U)
 800185a:	687b      	ldr	r3, [r7, #4]
 800185c:	6c9b      	ldr	r3, [r3, #72]	@ 0x48
 800185e:	2b00      	cmp	r3, #0
 8001860:	d012      	beq.n	8001888 <HAL_FDCAN_Init+0x340>
  {
    MODIFY_REG(hfdcan->Instance->RXESC, FDCAN_RXESC_F1DS,
 8001862:	687b      	ldr	r3, [r7, #4]
 8001864:	681b      	ldr	r3, [r3, #0]
 8001866:	f8d3 30bc 	ldr.w	r3, [r3, #188]	@ 0xbc
 800186a:	f023 0170 	bic.w	r1, r3, #112	@ 0x70
 800186e:	687b      	ldr	r3, [r7, #4]
 8001870:	6cdb      	ldr	r3, [r3, #76]	@ 0x4c
 8001872:	009b      	lsls	r3, r3, #2
 8001874:	3360      	adds	r3, #96	@ 0x60
 8001876:	443b      	add	r3, r7
 8001878:	f853 3c54 	ldr.w	r3, [r3, #-84]
 800187c:	011a      	lsls	r2, r3, #4
 800187e:	687b      	ldr	r3, [r7, #4]
 8001880:	681b      	ldr	r3, [r3, #0]
 8001882:	430a      	orrs	r2, r1
 8001884:	f8c3 20bc 	str.w	r2, [r3, #188]	@ 0xbc
               (CvtEltSize[hfdcan->Init.RxFifo1ElmtSize] << FDCAN_RXESC_F1DS_Pos));
  }

  /* Configure Rx buffer element size */
  if (hfdcan->Init.RxBuffersNbr > 0U)
 8001888:	687b      	ldr	r3, [r7, #4]
 800188a:	6d1b      	ldr	r3, [r3, #80]	@ 0x50
 800188c:	2b00      	cmp	r3, #0
 800188e:	d012      	beq.n	80018b6 <HAL_FDCAN_Init+0x36e>
  {
    MODIFY_REG(hfdcan->Instance->RXESC, FDCAN_RXESC_RBDS,
 8001890:	687b      	ldr	r3, [r7, #4]
 8001892:	681b      	ldr	r3, [r3, #0]
 8001894:	f8d3 30bc 	ldr.w	r3, [r3, #188]	@ 0xbc
 8001898:	f423 61e0 	bic.w	r1, r3, #1792	@ 0x700
 800189c:	687b      	ldr	r3, [r7, #4]
 800189e:	6d5b      	ldr	r3, [r3, #84]	@ 0x54
 80018a0:	009b      	lsls	r3, r3, #2
 80018a2:	3360      	adds	r3, #96	@ 0x60
 80018a4:	443b      	add	r3, r7
 80018a6:	f853 3c54 	ldr.w	r3, [r3, #-84]
 80018aa:	021a      	lsls	r2, r3, #8
 80018ac:	687b      	ldr	r3, [r7, #4]
 80018ae:	681b      	ldr	r3, [r3, #0]
 80018b0:	430a      	orrs	r2, r1
 80018b2:	f8c3 20bc 	str.w	r2, [r3, #188]	@ 0xbc
  }

  /* By default operation mode is set to Event-driven communication.
     If Time-triggered communication is needed, user should call the
     HAL_FDCAN_TT_ConfigOperation function just after the HAL_FDCAN_Init */
  if (hfdcan->Instance == FDCAN1)
 80018b6:	687b      	ldr	r3, [r7, #4]
 80018b8:	681b      	ldr	r3, [r3, #0]
 80018ba:	4a11      	ldr	r2, [pc, #68]	@ (8001900 <HAL_FDCAN_Init+0x3b8>)
 80018bc:	4293      	cmp	r3, r2
 80018be:	d107      	bne.n	80018d0 <HAL_FDCAN_Init+0x388>
  {
    CLEAR_BIT(hfdcan->ttcan->TTOCF, FDCAN_TTOCF_OM);
 80018c0:	687b      	ldr	r3, [r7, #4]
 80018c2:	685b      	ldr	r3, [r3, #4]
 80018c4:	689a      	ldr	r2, [r3, #8]
 80018c6:	687b      	ldr	r3, [r7, #4]
 80018c8:	685b      	ldr	r3, [r3, #4]
 80018ca:	f022 0203 	bic.w	r2, r2, #3
 80018ce:	609a      	str	r2, [r3, #8]
  }

  /* Initialize the Latest Tx FIFO/Queue request buffer index */
  hfdcan->LatestTxFifoQRequest = 0U;
 80018d0:	687b      	ldr	r3, [r7, #4]
 80018d2:	2200      	movs	r2, #0
 80018d4:	f8c3 2094 	str.w	r2, [r3, #148]	@ 0x94

  /* Initialize the error code */
  hfdcan->ErrorCode = HAL_FDCAN_ERROR_NONE;
 80018d8:	687b      	ldr	r3, [r7, #4]
 80018da:	2200      	movs	r2, #0
 80018dc:	f8c3 209c 	str.w	r2, [r3, #156]	@ 0x9c

  /* Initialize the FDCAN state */
  hfdcan->State = HAL_FDCAN_STATE_READY;
 80018e0:	687b      	ldr	r3, [r7, #4]
 80018e2:	2201      	movs	r2, #1
 80018e4:	f883 2098 	strb.w	r2, [r3, #152]	@ 0x98

  /* Calculate each RAM block address */
  status = FDCAN_CalculateRamBlockAddresses(hfdcan);
 80018e8:	6878      	ldr	r0, [r7, #4]
 80018ea:	f000 fa71 	bl	8001dd0 <FDCAN_CalculateRamBlockAddresses>
 80018ee:	4603      	mov	r3, r0
 80018f0:	f887 305b 	strb.w	r3, [r7, #91]	@ 0x5b

  /* Return function status */
  return status;
 80018f4:	f897 305b 	ldrb.w	r3, [r7, #91]	@ 0x5b
}
 80018f8:	4618      	mov	r0, r3
 80018fa:	3760      	adds	r7, #96	@ 0x60
 80018fc:	46bd      	mov	sp, r7
 80018fe:	bd80      	pop	{r7, pc}
 8001900:	4000a000 	.word	0x4000a000

08001904 <HAL_FDCAN_ConfigFilter>:
  * @param  sFilterConfig pointer to an FDCAN_FilterTypeDef structure that
  *         contains the filter configuration information
  * @retval HAL status
  */
HAL_StatusTypeDef HAL_FDCAN_ConfigFilter(FDCAN_HandleTypeDef *hfdcan, const FDCAN_FilterTypeDef *sFilterConfig)
{
 8001904:	b480      	push	{r7}
 8001906:	b087      	sub	sp, #28
 8001908:	af00      	add	r7, sp, #0
 800190a:	6078      	str	r0, [r7, #4]
 800190c:	6039      	str	r1, [r7, #0]
  uint32_t FilterElementW1;
  uint32_t FilterElementW2;
  uint32_t *FilterAddress;
  HAL_FDCAN_StateTypeDef state = hfdcan->State;
 800190e:	687b      	ldr	r3, [r7, #4]
 8001910:	f893 3098 	ldrb.w	r3, [r3, #152]	@ 0x98
 8001914:	73fb      	strb	r3, [r7, #15]

  if ((state == HAL_FDCAN_STATE_READY) || (state == HAL_FDCAN_STATE_BUSY))
 8001916:	7bfb      	ldrb	r3, [r7, #15]
 8001918:	2b01      	cmp	r3, #1
 800191a:	d002      	beq.n	8001922 <HAL_FDCAN_ConfigFilter+0x1e>
 800191c:	7bfb      	ldrb	r3, [r7, #15]
 800191e:	2b02      	cmp	r3, #2
 8001920:	d157      	bne.n	80019d2 <HAL_FDCAN_ConfigFilter+0xce>
    {
      assert_param(IS_FDCAN_MAX_VALUE(sFilterConfig->RxBufferIndex, (SRAMCAN_RB_NBR - 1U)));
      assert_param(IS_FDCAN_MAX_VALUE(sFilterConfig->IsCalibrationMsg, 1U));
    }

    if (sFilterConfig->IdType == FDCAN_STANDARD_ID)
 8001922:	683b      	ldr	r3, [r7, #0]
 8001924:	681b      	ldr	r3, [r3, #0]
 8001926:	2b00      	cmp	r3, #0
 8001928:	d12b      	bne.n	8001982 <HAL_FDCAN_ConfigFilter+0x7e>
        assert_param(IS_FDCAN_MAX_VALUE(sFilterConfig->FilterID2, 0x7FFU));
        assert_param(IS_FDCAN_STD_FILTER_TYPE(sFilterConfig->FilterType));
      }

      /* Build filter element */
      if (sFilterConfig->FilterConfig == FDCAN_FILTER_TO_RXBUFFER)
 800192a:	683b      	ldr	r3, [r7, #0]
 800192c:	68db      	ldr	r3, [r3, #12]
 800192e:	2b07      	cmp	r3, #7
 8001930:	d10d      	bne.n	800194e <HAL_FDCAN_ConfigFilter+0x4a>
      {
        FilterElementW1 = ((FDCAN_FILTER_TO_RXBUFFER << 27U)       |
                           (sFilterConfig->FilterID1 << 16U)       |
 8001932:	683b      	ldr	r3, [r7, #0]
 8001934:	691b      	ldr	r3, [r3, #16]
 8001936:	041a      	lsls	r2, r3, #16
                           (sFilterConfig->IsCalibrationMsg << 8U) |
 8001938:	683b      	ldr	r3, [r7, #0]
 800193a:	69db      	ldr	r3, [r3, #28]
 800193c:	021b      	lsls	r3, r3, #8
                           (sFilterConfig->FilterID1 << 16U)       |
 800193e:	431a      	orrs	r2, r3
                           sFilterConfig->RxBufferIndex);
 8001940:	683b      	ldr	r3, [r7, #0]
 8001942:	699b      	ldr	r3, [r3, #24]
                           (sFilterConfig->IsCalibrationMsg << 8U) |
 8001944:	4313      	orrs	r3, r2
        FilterElementW1 = ((FDCAN_FILTER_TO_RXBUFFER << 27U)       |
 8001946:	f043 5360 	orr.w	r3, r3, #939524096	@ 0x38000000
 800194a:	617b      	str	r3, [r7, #20]
 800194c:	e00e      	b.n	800196c <HAL_FDCAN_ConfigFilter+0x68>
      }
      else
      {
        FilterElementW1 = ((sFilterConfig->FilterType << 30U)   |
 800194e:	683b      	ldr	r3, [r7, #0]
 8001950:	689b      	ldr	r3, [r3, #8]
 8001952:	079a      	lsls	r2, r3, #30
                           (sFilterConfig->FilterConfig << 27U) |
 8001954:	683b      	ldr	r3, [r7, #0]
 8001956:	68db      	ldr	r3, [r3, #12]
 8001958:	06db      	lsls	r3, r3, #27
        FilterElementW1 = ((sFilterConfig->FilterType << 30U)   |
 800195a:	431a      	orrs	r2, r3
                           (sFilterConfig->FilterID1 << 16U)    |
 800195c:	683b      	ldr	r3, [r7, #0]
 800195e:	691b      	ldr	r3, [r3, #16]
 8001960:	041b      	lsls	r3, r3, #16
                           (sFilterConfig->FilterConfig << 27U) |
 8001962:	431a      	orrs	r2, r3
                           sFilterConfig->FilterID2);
 8001964:	683b      	ldr	r3, [r7, #0]
 8001966:	695b      	ldr	r3, [r3, #20]
        FilterElementW1 = ((sFilterConfig->FilterType << 30U)   |
 8001968:	4313      	orrs	r3, r2
 800196a:	617b      	str	r3, [r7, #20]
      }

      /* Calculate filter address */
      FilterAddress = (uint32_t *)(hfdcan->msgRam.StandardFilterSA + (sFilterConfig->FilterIndex * SRAMCAN_FLS_SIZE));
 800196c:	687b      	ldr	r3, [r7, #4]
 800196e:	6eda      	ldr	r2, [r3, #108]	@ 0x6c
 8001970:	683b      	ldr	r3, [r7, #0]
 8001972:	685b      	ldr	r3, [r3, #4]
 8001974:	009b      	lsls	r3, r3, #2
 8001976:	4413      	add	r3, r2
 8001978:	60bb      	str	r3, [r7, #8]

      /* Write filter element to the message RAM */
      *FilterAddress = FilterElementW1;
 800197a:	68bb      	ldr	r3, [r7, #8]
 800197c:	697a      	ldr	r2, [r7, #20]
 800197e:	601a      	str	r2, [r3, #0]
 8001980:	e025      	b.n	80019ce <HAL_FDCAN_ConfigFilter+0xca>
        assert_param(IS_FDCAN_MAX_VALUE(sFilterConfig->FilterID2, 0x1FFFFFFFU));
        assert_param(IS_FDCAN_EXT_FILTER_TYPE(sFilterConfig->FilterType));
      }

      /* Build first word of filter element */
      FilterElementW1 = ((sFilterConfig->FilterConfig << 29U) | sFilterConfig->FilterID1);
 8001982:	683b      	ldr	r3, [r7, #0]
 8001984:	68db      	ldr	r3, [r3, #12]
 8001986:	075a      	lsls	r2, r3, #29
 8001988:	683b      	ldr	r3, [r7, #0]
 800198a:	691b      	ldr	r3, [r3, #16]
 800198c:	4313      	orrs	r3, r2
 800198e:	617b      	str	r3, [r7, #20]

      /* Build second word of filter element */
      if (sFilterConfig->FilterConfig == FDCAN_FILTER_TO_RXBUFFER)
 8001990:	683b      	ldr	r3, [r7, #0]
 8001992:	68db      	ldr	r3, [r3, #12]
 8001994:	2b07      	cmp	r3, #7
 8001996:	d103      	bne.n	80019a0 <HAL_FDCAN_ConfigFilter+0x9c>
      {
        FilterElementW2 = sFilterConfig->RxBufferIndex;
 8001998:	683b      	ldr	r3, [r7, #0]
 800199a:	699b      	ldr	r3, [r3, #24]
 800199c:	613b      	str	r3, [r7, #16]
 800199e:	e006      	b.n	80019ae <HAL_FDCAN_ConfigFilter+0xaa>
      }
      else
      {
        FilterElementW2 = ((sFilterConfig->FilterType << 30U) | sFilterConfig->FilterID2);
 80019a0:	683b      	ldr	r3, [r7, #0]
 80019a2:	689b      	ldr	r3, [r3, #8]
 80019a4:	079a      	lsls	r2, r3, #30
 80019a6:	683b      	ldr	r3, [r7, #0]
 80019a8:	695b      	ldr	r3, [r3, #20]
 80019aa:	4313      	orrs	r3, r2
 80019ac:	613b      	str	r3, [r7, #16]
      }

      /* Calculate filter address */
      FilterAddress = (uint32_t *)(hfdcan->msgRam.ExtendedFilterSA + (sFilterConfig->FilterIndex * SRAMCAN_FLE_SIZE));
 80019ae:	687b      	ldr	r3, [r7, #4]
 80019b0:	6f1a      	ldr	r2, [r3, #112]	@ 0x70
 80019b2:	683b      	ldr	r3, [r7, #0]
 80019b4:	685b      	ldr	r3, [r3, #4]
 80019b6:	00db      	lsls	r3, r3, #3
 80019b8:	4413      	add	r3, r2
 80019ba:	60bb      	str	r3, [r7, #8]

      /* Write filter element to the message RAM */
      *FilterAddress = FilterElementW1;
 80019bc:	68bb      	ldr	r3, [r7, #8]
 80019be:	697a      	ldr	r2, [r7, #20]
 80019c0:	601a      	str	r2, [r3, #0]
      FilterAddress++;
 80019c2:	68bb      	ldr	r3, [r7, #8]
 80019c4:	3304      	adds	r3, #4
 80019c6:	60bb      	str	r3, [r7, #8]
      *FilterAddress = FilterElementW2;
 80019c8:	68bb      	ldr	r3, [r7, #8]
 80019ca:	693a      	ldr	r2, [r7, #16]
 80019cc:	601a      	str	r2, [r3, #0]
    }

    /* Return function status */
    return HAL_OK;
 80019ce:	2300      	movs	r3, #0
 80019d0:	e008      	b.n	80019e4 <HAL_FDCAN_ConfigFilter+0xe0>
  }
  else
  {
    /* Update error code */
    hfdcan->ErrorCode |= HAL_FDCAN_ERROR_NOT_INITIALIZED;
 80019d2:	687b      	ldr	r3, [r7, #4]
 80019d4:	f8d3 309c 	ldr.w	r3, [r3, #156]	@ 0x9c
 80019d8:	f043 0202 	orr.w	r2, r3, #2
 80019dc:	687b      	ldr	r3, [r7, #4]
 80019de:	f8c3 209c 	str.w	r2, [r3, #156]	@ 0x9c

    return HAL_ERROR;
 80019e2:	2301      	movs	r3, #1
  }
}
 80019e4:	4618      	mov	r0, r3
 80019e6:	371c      	adds	r7, #28
 80019e8:	46bd      	mov	sp, r7
 80019ea:	f85d 7b04 	ldr.w	r7, [sp], #4
 80019ee:	4770      	bx	lr

080019f0 <HAL_FDCAN_ConfigGlobalFilter>:
HAL_StatusTypeDef HAL_FDCAN_ConfigGlobalFilter(FDCAN_HandleTypeDef *hfdcan,
                                               uint32_t NonMatchingStd,
                                               uint32_t NonMatchingExt,
                                               uint32_t RejectRemoteStd,
                                               uint32_t RejectRemoteExt)
{
 80019f0:	b480      	push	{r7}
 80019f2:	b085      	sub	sp, #20
 80019f4:	af00      	add	r7, sp, #0
 80019f6:	60f8      	str	r0, [r7, #12]
 80019f8:	60b9      	str	r1, [r7, #8]
 80019fa:	607a      	str	r2, [r7, #4]
 80019fc:	603b      	str	r3, [r7, #0]
  assert_param(IS_FDCAN_NON_MATCHING(NonMatchingStd));
  assert_param(IS_FDCAN_NON_MATCHING(NonMatchingExt));
  assert_param(IS_FDCAN_REJECT_REMOTE(RejectRemoteStd));
  assert_param(IS_FDCAN_REJECT_REMOTE(RejectRemoteExt));

  if (hfdcan->State == HAL_FDCAN_STATE_READY)
 80019fe:	68fb      	ldr	r3, [r7, #12]
 8001a00:	f893 3098 	ldrb.w	r3, [r3, #152]	@ 0x98
 8001a04:	b2db      	uxtb	r3, r3
 8001a06:	2b01      	cmp	r3, #1
 8001a08:	d110      	bne.n	8001a2c <HAL_FDCAN_ConfigGlobalFilter+0x3c>
  {
    /* Configure global filter */
    hfdcan->Instance->GFC = ((NonMatchingStd << FDCAN_GFC_ANFS_Pos)  |
 8001a0a:	68bb      	ldr	r3, [r7, #8]
 8001a0c:	011a      	lsls	r2, r3, #4
                             (NonMatchingExt << FDCAN_GFC_ANFE_Pos)  |
 8001a0e:	687b      	ldr	r3, [r7, #4]
 8001a10:	009b      	lsls	r3, r3, #2
    hfdcan->Instance->GFC = ((NonMatchingStd << FDCAN_GFC_ANFS_Pos)  |
 8001a12:	431a      	orrs	r2, r3
                             (RejectRemoteStd << FDCAN_GFC_RRFS_Pos) |
 8001a14:	683b      	ldr	r3, [r7, #0]
 8001a16:	005b      	lsls	r3, r3, #1
                             (NonMatchingExt << FDCAN_GFC_ANFE_Pos)  |
 8001a18:	ea42 0103 	orr.w	r1, r2, r3
    hfdcan->Instance->GFC = ((NonMatchingStd << FDCAN_GFC_ANFS_Pos)  |
 8001a1c:	68fb      	ldr	r3, [r7, #12]
 8001a1e:	681b      	ldr	r3, [r3, #0]
                             (RejectRemoteStd << FDCAN_GFC_RRFS_Pos) |
 8001a20:	69ba      	ldr	r2, [r7, #24]
 8001a22:	430a      	orrs	r2, r1
    hfdcan->Instance->GFC = ((NonMatchingStd << FDCAN_GFC_ANFS_Pos)  |
 8001a24:	f8c3 2080 	str.w	r2, [r3, #128]	@ 0x80
                             (RejectRemoteExt << FDCAN_GFC_RRFE_Pos));

    /* Return function status */
    return HAL_OK;
 8001a28:	2300      	movs	r3, #0
 8001a2a:	e008      	b.n	8001a3e <HAL_FDCAN_ConfigGlobalFilter+0x4e>
  }
  else
  {
    /* Update error code */
    hfdcan->ErrorCode |= HAL_FDCAN_ERROR_NOT_READY;
 8001a2c:	68fb      	ldr	r3, [r7, #12]
 8001a2e:	f8d3 309c 	ldr.w	r3, [r3, #156]	@ 0x9c
 8001a32:	f043 0204 	orr.w	r2, r3, #4
 8001a36:	68fb      	ldr	r3, [r7, #12]
 8001a38:	f8c3 209c 	str.w	r2, [r3, #156]	@ 0x9c

    return HAL_ERROR;
 8001a3c:	2301      	movs	r3, #1
  }
}
 8001a3e:	4618      	mov	r0, r3
 8001a40:	3714      	adds	r7, #20
 8001a42:	46bd      	mov	sp, r7
 8001a44:	f85d 7b04 	ldr.w	r7, [sp], #4
 8001a48:	4770      	bx	lr

08001a4a <HAL_FDCAN_Start>:
  * @param  hfdcan pointer to an FDCAN_HandleTypeDef structure that contains
  *         the configuration information for the specified FDCAN.
  * @retval HAL status
  */
HAL_StatusTypeDef HAL_FDCAN_Start(FDCAN_HandleTypeDef *hfdcan)
{
 8001a4a:	b480      	push	{r7}
 8001a4c:	b083      	sub	sp, #12
 8001a4e:	af00      	add	r7, sp, #0
 8001a50:	6078      	str	r0, [r7, #4]
  if (hfdcan->State == HAL_FDCAN_STATE_READY)
 8001a52:	687b      	ldr	r3, [r7, #4]
 8001a54:	f893 3098 	ldrb.w	r3, [r3, #152]	@ 0x98
 8001a58:	b2db      	uxtb	r3, r3
 8001a5a:	2b01      	cmp	r3, #1
 8001a5c:	d111      	bne.n	8001a82 <HAL_FDCAN_Start+0x38>
  {
    /* Change FDCAN peripheral state */
    hfdcan->State = HAL_FDCAN_STATE_BUSY;
 8001a5e:	687b      	ldr	r3, [r7, #4]
 8001a60:	2202      	movs	r2, #2
 8001a62:	f883 2098 	strb.w	r2, [r3, #152]	@ 0x98

    /* Request leave initialisation */
    CLEAR_BIT(hfdcan->Instance->CCCR, FDCAN_CCCR_INIT);
 8001a66:	687b      	ldr	r3, [r7, #4]
 8001a68:	681b      	ldr	r3, [r3, #0]
 8001a6a:	699a      	ldr	r2, [r3, #24]
 8001a6c:	687b      	ldr	r3, [r7, #4]
 8001a6e:	681b      	ldr	r3, [r3, #0]
 8001a70:	f022 0201 	bic.w	r2, r2, #1
 8001a74:	619a      	str	r2, [r3, #24]

    /* Reset the FDCAN ErrorCode */
    hfdcan->ErrorCode = HAL_FDCAN_ERROR_NONE;
 8001a76:	687b      	ldr	r3, [r7, #4]
 8001a78:	2200      	movs	r2, #0
 8001a7a:	f8c3 209c 	str.w	r2, [r3, #156]	@ 0x9c

    /* Return function status */
    return HAL_OK;
 8001a7e:	2300      	movs	r3, #0
 8001a80:	e008      	b.n	8001a94 <HAL_FDCAN_Start+0x4a>
  }
  else
  {
    /* Update error code */
    hfdcan->ErrorCode |= HAL_FDCAN_ERROR_NOT_READY;
 8001a82:	687b      	ldr	r3, [r7, #4]
 8001a84:	f8d3 309c 	ldr.w	r3, [r3, #156]	@ 0x9c
 8001a88:	f043 0204 	orr.w	r2, r3, #4
 8001a8c:	687b      	ldr	r3, [r7, #4]
 8001a8e:	f8c3 209c 	str.w	r2, [r3, #156]	@ 0x9c

    return HAL_ERROR;
 8001a92:	2301      	movs	r3, #1
  }
}
 8001a94:	4618      	mov	r0, r3
 8001a96:	370c      	adds	r7, #12
 8001a98:	46bd      	mov	sp, r7
 8001a9a:	f85d 7b04 	ldr.w	r7, [sp], #4
 8001a9e:	4770      	bx	lr

08001aa0 <HAL_FDCAN_GetRxMessage>:
  * @param  pRxData pointer to a buffer where the payload of the Rx frame will be stored.
  * @retval HAL status
  */
HAL_StatusTypeDef HAL_FDCAN_GetRxMessage(FDCAN_HandleTypeDef *hfdcan, uint32_t RxLocation,
                                         FDCAN_RxHeaderTypeDef *pRxHeader, uint8_t *pRxData)
{
 8001aa0:	b480      	push	{r7}
 8001aa2:	b08b      	sub	sp, #44	@ 0x2c
 8001aa4:	af00      	add	r7, sp, #0
 8001aa6:	60f8      	str	r0, [r7, #12]
 8001aa8:	60b9      	str	r1, [r7, #8]
 8001aaa:	607a      	str	r2, [r7, #4]
 8001aac:	603b      	str	r3, [r7, #0]
  uint32_t *RxAddress;
  uint8_t  *pData;
  uint32_t ByteCounter;
  uint32_t GetIndex = 0;
 8001aae:	2300      	movs	r3, #0
 8001ab0:	61fb      	str	r3, [r7, #28]
  HAL_FDCAN_StateTypeDef state = hfdcan->State;
 8001ab2:	68fb      	ldr	r3, [r7, #12]
 8001ab4:	f893 3098 	ldrb.w	r3, [r3, #152]	@ 0x98
 8001ab8:	76fb      	strb	r3, [r7, #27]

  if (state == HAL_FDCAN_STATE_BUSY)
 8001aba:	7efb      	ldrb	r3, [r7, #27]
 8001abc:	2b02      	cmp	r3, #2
 8001abe:	f040 8157 	bne.w	8001d70 <HAL_FDCAN_GetRxMessage+0x2d0>
  {
    if (RxLocation == FDCAN_RX_FIFO0) /* Rx element is assigned to the Rx FIFO 0 */
 8001ac2:	68bb      	ldr	r3, [r7, #8]
 8001ac4:	2b40      	cmp	r3, #64	@ 0x40
 8001ac6:	d153      	bne.n	8001b70 <HAL_FDCAN_GetRxMessage+0xd0>
    {
      /* Check that the Rx FIFO 0 has an allocated area into the RAM */
      if ((hfdcan->Instance->RXF0C & FDCAN_RXF0C_F0S) == 0U)
 8001ac8:	68fb      	ldr	r3, [r7, #12]
 8001aca:	681b      	ldr	r3, [r3, #0]
 8001acc:	f8d3 30a0 	ldr.w	r3, [r3, #160]	@ 0xa0
 8001ad0:	f403 03fe 	and.w	r3, r3, #8323072	@ 0x7f0000
 8001ad4:	2b00      	cmp	r3, #0
 8001ad6:	d109      	bne.n	8001aec <HAL_FDCAN_GetRxMessage+0x4c>
      {
        /* Update error code */
        hfdcan->ErrorCode |= HAL_FDCAN_ERROR_PARAM;
 8001ad8:	68fb      	ldr	r3, [r7, #12]
 8001ada:	f8d3 309c 	ldr.w	r3, [r3, #156]	@ 0x9c
 8001ade:	f043 0220 	orr.w	r2, r3, #32
 8001ae2:	68fb      	ldr	r3, [r7, #12]
 8001ae4:	f8c3 209c 	str.w	r2, [r3, #156]	@ 0x9c

        return HAL_ERROR;
 8001ae8:	2301      	movs	r3, #1
 8001aea:	e14a      	b.n	8001d82 <HAL_FDCAN_GetRxMessage+0x2e2>
      }

      /* Check that the Rx FIFO 0 is not empty */
      if ((hfdcan->Instance->RXF0S & FDCAN_RXF0S_F0FL) == 0U)
 8001aec:	68fb      	ldr	r3, [r7, #12]
 8001aee:	681b      	ldr	r3, [r3, #0]
 8001af0:	f8d3 30a4 	ldr.w	r3, [r3, #164]	@ 0xa4
 8001af4:	f003 037f 	and.w	r3, r3, #127	@ 0x7f
 8001af8:	2b00      	cmp	r3, #0
 8001afa:	d109      	bne.n	8001b10 <HAL_FDCAN_GetRxMessage+0x70>
      {
        /* Update error code */
        hfdcan->ErrorCode |= HAL_FDCAN_ERROR_FIFO_EMPTY;
 8001afc:	68fb      	ldr	r3, [r7, #12]
 8001afe:	f8d3 309c 	ldr.w	r3, [r3, #156]	@ 0x9c
 8001b02:	f443 7280 	orr.w	r2, r3, #256	@ 0x100
 8001b06:	68fb      	ldr	r3, [r7, #12]
 8001b08:	f8c3 209c 	str.w	r2, [r3, #156]	@ 0x9c

        return HAL_ERROR;
 8001b0c:	2301      	movs	r3, #1
 8001b0e:	e138      	b.n	8001d82 <HAL_FDCAN_GetRxMessage+0x2e2>
      }
      else
      {
        /* Calculate Rx FIFO 0 element index */
        GetIndex = ((hfdcan->Instance->RXF0S & FDCAN_RXF0S_F0GI) >> FDCAN_RXF0S_F0GI_Pos);
 8001b10:	68fb      	ldr	r3, [r7, #12]
 8001b12:	681b      	ldr	r3, [r3, #0]
 8001b14:	f8d3 30a4 	ldr.w	r3, [r3, #164]	@ 0xa4
 8001b18:	0a1b      	lsrs	r3, r3, #8
 8001b1a:	f003 033f 	and.w	r3, r3, #63	@ 0x3f
 8001b1e:	61fb      	str	r3, [r7, #28]

        /* Check that the Rx FIFO 0 is full & overwrite mode is on */
        if (((hfdcan->Instance->RXF0S & FDCAN_RXF0S_F0F) >> FDCAN_RXF0S_F0F_Pos) == 1U)
 8001b20:	68fb      	ldr	r3, [r7, #12]
 8001b22:	681b      	ldr	r3, [r3, #0]
 8001b24:	f8d3 30a4 	ldr.w	r3, [r3, #164]	@ 0xa4
 8001b28:	f003 7380 	and.w	r3, r3, #16777216	@ 0x1000000
 8001b2c:	f1b3 7f80 	cmp.w	r3, #16777216	@ 0x1000000
 8001b30:	d113      	bne.n	8001b5a <HAL_FDCAN_GetRxMessage+0xba>
        {
          if (((hfdcan->Instance->RXF0C & FDCAN_RXF0C_F0OM) >> FDCAN_RXF0C_F0OM_Pos) == FDCAN_RX_FIFO_OVERWRITE)
 8001b32:	68fb      	ldr	r3, [r7, #12]
 8001b34:	681b      	ldr	r3, [r3, #0]
 8001b36:	f8d3 30a0 	ldr.w	r3, [r3, #160]	@ 0xa0
 8001b3a:	f003 4300 	and.w	r3, r3, #2147483648	@ 0x80000000
 8001b3e:	f1b3 4f00 	cmp.w	r3, #2147483648	@ 0x80000000
 8001b42:	d10a      	bne.n	8001b5a <HAL_FDCAN_GetRxMessage+0xba>
          {
            /* When overwrite status is on discard first message in FIFO */
            /* GetIndex is incremented by one and wraps to 0 in case it overflows the FIFO size */
            GetIndex = (GetIndex + 1U) & ((hfdcan->Instance->RXF0C & FDCAN_RXF0C_F0S) >> FDCAN_RXF0C_F0S_Pos);
 8001b44:	69fb      	ldr	r3, [r7, #28]
 8001b46:	1c5a      	adds	r2, r3, #1
 8001b48:	68fb      	ldr	r3, [r7, #12]
 8001b4a:	681b      	ldr	r3, [r3, #0]
 8001b4c:	f8d3 30a0 	ldr.w	r3, [r3, #160]	@ 0xa0
 8001b50:	0c1b      	lsrs	r3, r3, #16
 8001b52:	4013      	ands	r3, r2
 8001b54:	f003 037f 	and.w	r3, r3, #127	@ 0x7f
 8001b58:	61fb      	str	r3, [r7, #28]
          }
        }

        /* Calculate Rx FIFO 0 element address */
        RxAddress = (uint32_t *)(hfdcan->msgRam.RxFIFO0SA + (GetIndex * hfdcan->Init.RxFifo0ElmtSize * 4U));
 8001b5a:	68fb      	ldr	r3, [r7, #12]
 8001b5c:	6f5a      	ldr	r2, [r3, #116]	@ 0x74
 8001b5e:	68fb      	ldr	r3, [r7, #12]
 8001b60:	6c5b      	ldr	r3, [r3, #68]	@ 0x44
 8001b62:	69f9      	ldr	r1, [r7, #28]
 8001b64:	fb01 f303 	mul.w	r3, r1, r3
 8001b68:	009b      	lsls	r3, r3, #2
 8001b6a:	4413      	add	r3, r2
 8001b6c:	627b      	str	r3, [r7, #36]	@ 0x24
 8001b6e:	e06f      	b.n	8001c50 <HAL_FDCAN_GetRxMessage+0x1b0>
      }
    }
    else if (RxLocation == FDCAN_RX_FIFO1) /* Rx element is assigned to the Rx FIFO 1 */
 8001b70:	68bb      	ldr	r3, [r7, #8]
 8001b72:	2b41      	cmp	r3, #65	@ 0x41
 8001b74:	d153      	bne.n	8001c1e <HAL_FDCAN_GetRxMessage+0x17e>
    {
      /* Check that the Rx FIFO 1 has an allocated area into the RAM */
      if ((hfdcan->Instance->RXF1C & FDCAN_RXF1C_F1S) == 0U)
 8001b76:	68fb      	ldr	r3, [r7, #12]
 8001b78:	681b      	ldr	r3, [r3, #0]
 8001b7a:	f8d3 30b0 	ldr.w	r3, [r3, #176]	@ 0xb0
 8001b7e:	f403 03fe 	and.w	r3, r3, #8323072	@ 0x7f0000
 8001b82:	2b00      	cmp	r3, #0
 8001b84:	d109      	bne.n	8001b9a <HAL_FDCAN_GetRxMessage+0xfa>
      {
        /* Update error code */
        hfdcan->ErrorCode |= HAL_FDCAN_ERROR_PARAM;
 8001b86:	68fb      	ldr	r3, [r7, #12]
 8001b88:	f8d3 309c 	ldr.w	r3, [r3, #156]	@ 0x9c
 8001b8c:	f043 0220 	orr.w	r2, r3, #32
 8001b90:	68fb      	ldr	r3, [r7, #12]
 8001b92:	f8c3 209c 	str.w	r2, [r3, #156]	@ 0x9c

        return HAL_ERROR;
 8001b96:	2301      	movs	r3, #1
 8001b98:	e0f3      	b.n	8001d82 <HAL_FDCAN_GetRxMessage+0x2e2>
      }

      /* Check that the Rx FIFO 1 is not empty */
      if ((hfdcan->Instance->RXF1S & FDCAN_RXF1S_F1FL) == 0U)
 8001b9a:	68fb      	ldr	r3, [r7, #12]
 8001b9c:	681b      	ldr	r3, [r3, #0]
 8001b9e:	f8d3 30b4 	ldr.w	r3, [r3, #180]	@ 0xb4
 8001ba2:	f003 037f 	and.w	r3, r3, #127	@ 0x7f
 8001ba6:	2b00      	cmp	r3, #0
 8001ba8:	d109      	bne.n	8001bbe <HAL_FDCAN_GetRxMessage+0x11e>
      {
        /* Update error code */
        hfdcan->ErrorCode |= HAL_FDCAN_ERROR_FIFO_EMPTY;
 8001baa:	68fb      	ldr	r3, [r7, #12]
 8001bac:	f8d3 309c 	ldr.w	r3, [r3, #156]	@ 0x9c
 8001bb0:	f443 7280 	orr.w	r2, r3, #256	@ 0x100
 8001bb4:	68fb      	ldr	r3, [r7, #12]
 8001bb6:	f8c3 209c 	str.w	r2, [r3, #156]	@ 0x9c

        return HAL_ERROR;
 8001bba:	2301      	movs	r3, #1
 8001bbc:	e0e1      	b.n	8001d82 <HAL_FDCAN_GetRxMessage+0x2e2>
      }
      else
      {
        /* Calculate Rx FIFO 1 element index */
        GetIndex = ((hfdcan->Instance->RXF1S & FDCAN_RXF1S_F1GI) >> FDCAN_RXF1S_F1GI_Pos);
 8001bbe:	68fb      	ldr	r3, [r7, #12]
 8001bc0:	681b      	ldr	r3, [r3, #0]
 8001bc2:	f8d3 30b4 	ldr.w	r3, [r3, #180]	@ 0xb4
 8001bc6:	0a1b      	lsrs	r3, r3, #8
 8001bc8:	f003 033f 	and.w	r3, r3, #63	@ 0x3f
 8001bcc:	61fb      	str	r3, [r7, #28]

        /* Check that the Rx FIFO 1 is full & overwrite mode is on */
        if (((hfdcan->Instance->RXF1S & FDCAN_RXF1S_F1F) >> FDCAN_RXF1S_F1F_Pos) == 1U)
 8001bce:	68fb      	ldr	r3, [r7, #12]
 8001bd0:	681b      	ldr	r3, [r3, #0]
 8001bd2:	f8d3 30b4 	ldr.w	r3, [r3, #180]	@ 0xb4
 8001bd6:	f003 7380 	and.w	r3, r3, #16777216	@ 0x1000000
 8001bda:	f1b3 7f80 	cmp.w	r3, #16777216	@ 0x1000000
 8001bde:	d113      	bne.n	8001c08 <HAL_FDCAN_GetRxMessage+0x168>
        {
          if (((hfdcan->Instance->RXF1C & FDCAN_RXF1C_F1OM) >> FDCAN_RXF1C_F1OM_Pos) == FDCAN_RX_FIFO_OVERWRITE)
 8001be0:	68fb      	ldr	r3, [r7, #12]
 8001be2:	681b      	ldr	r3, [r3, #0]
 8001be4:	f8d3 30b0 	ldr.w	r3, [r3, #176]	@ 0xb0
 8001be8:	f003 4300 	and.w	r3, r3, #2147483648	@ 0x80000000
 8001bec:	f1b3 4f00 	cmp.w	r3, #2147483648	@ 0x80000000
 8001bf0:	d10a      	bne.n	8001c08 <HAL_FDCAN_GetRxMessage+0x168>
          {
            /* When overwrite status is on discard first message in FIFO */
            /* GetIndex is incremented by one and wraps to 0 in case it overflows the FIFO size */
            GetIndex = (GetIndex + 1U) & ((hfdcan->Instance->RXF1C & FDCAN_RXF1C_F1S) >> FDCAN_RXF1C_F1S_Pos);
 8001bf2:	69fb      	ldr	r3, [r7, #28]
 8001bf4:	1c5a      	adds	r2, r3, #1
 8001bf6:	68fb      	ldr	r3, [r7, #12]
 8001bf8:	681b      	ldr	r3, [r3, #0]
 8001bfa:	f8d3 30b0 	ldr.w	r3, [r3, #176]	@ 0xb0
 8001bfe:	0c1b      	lsrs	r3, r3, #16
 8001c00:	4013      	ands	r3, r2
 8001c02:	f003 037f 	and.w	r3, r3, #127	@ 0x7f
 8001c06:	61fb      	str	r3, [r7, #28]
          }
        }

        /* Calculate Rx FIFO 1 element address */
        RxAddress = (uint32_t *)(hfdcan->msgRam.RxFIFO1SA + (GetIndex * hfdcan->Init.RxFifo1ElmtSize * 4U));
 8001c08:	68fb      	ldr	r3, [r7, #12]
 8001c0a:	6f9a      	ldr	r2, [r3, #120]	@ 0x78
 8001c0c:	68fb      	ldr	r3, [r7, #12]
 8001c0e:	6cdb      	ldr	r3, [r3, #76]	@ 0x4c
 8001c10:	69f9      	ldr	r1, [r7, #28]
 8001c12:	fb01 f303 	mul.w	r3, r1, r3
 8001c16:	009b      	lsls	r3, r3, #2
 8001c18:	4413      	add	r3, r2
 8001c1a:	627b      	str	r3, [r7, #36]	@ 0x24
 8001c1c:	e018      	b.n	8001c50 <HAL_FDCAN_GetRxMessage+0x1b0>
      }
    }
    else /* Rx element is assigned to a dedicated Rx buffer */
    {
      /* Check that the selected buffer has an allocated area into the RAM */
      if (RxLocation >= hfdcan->Init.RxBuffersNbr)
 8001c1e:	68fb      	ldr	r3, [r7, #12]
 8001c20:	6d1b      	ldr	r3, [r3, #80]	@ 0x50
 8001c22:	68ba      	ldr	r2, [r7, #8]
 8001c24:	429a      	cmp	r2, r3
 8001c26:	d309      	bcc.n	8001c3c <HAL_FDCAN_GetRxMessage+0x19c>
      {
        /* Update error code */
        hfdcan->ErrorCode |= HAL_FDCAN_ERROR_PARAM;
 8001c28:	68fb      	ldr	r3, [r7, #12]
 8001c2a:	f8d3 309c 	ldr.w	r3, [r3, #156]	@ 0x9c
 8001c2e:	f043 0220 	orr.w	r2, r3, #32
 8001c32:	68fb      	ldr	r3, [r7, #12]
 8001c34:	f8c3 209c 	str.w	r2, [r3, #156]	@ 0x9c

        return HAL_ERROR;
 8001c38:	2301      	movs	r3, #1
 8001c3a:	e0a2      	b.n	8001d82 <HAL_FDCAN_GetRxMessage+0x2e2>
      }
      else
      {
        /* Calculate Rx buffer address */
        RxAddress = (uint32_t *)(hfdcan->msgRam.RxBufferSA + (RxLocation * hfdcan->Init.RxBufferSize * 4U));
 8001c3c:	68fb      	ldr	r3, [r7, #12]
 8001c3e:	6fda      	ldr	r2, [r3, #124]	@ 0x7c
 8001c40:	68fb      	ldr	r3, [r7, #12]
 8001c42:	6d5b      	ldr	r3, [r3, #84]	@ 0x54
 8001c44:	68b9      	ldr	r1, [r7, #8]
 8001c46:	fb01 f303 	mul.w	r3, r1, r3
 8001c4a:	009b      	lsls	r3, r3, #2
 8001c4c:	4413      	add	r3, r2
 8001c4e:	627b      	str	r3, [r7, #36]	@ 0x24
      }
    }

    /* Retrieve IdType */
    pRxHeader->IdType = *RxAddress & FDCAN_ELEMENT_MASK_XTD;
 8001c50:	6a7b      	ldr	r3, [r7, #36]	@ 0x24
 8001c52:	681b      	ldr	r3, [r3, #0]
 8001c54:	f003 4280 	and.w	r2, r3, #1073741824	@ 0x40000000
 8001c58:	687b      	ldr	r3, [r7, #4]
 8001c5a:	605a      	str	r2, [r3, #4]

    /* Retrieve Identifier */
    if (pRxHeader->IdType == FDCAN_STANDARD_ID) /* Standard ID element */
 8001c5c:	687b      	ldr	r3, [r7, #4]
 8001c5e:	685b      	ldr	r3, [r3, #4]
 8001c60:	2b00      	cmp	r3, #0
 8001c62:	d107      	bne.n	8001c74 <HAL_FDCAN_GetRxMessage+0x1d4>
    {
      pRxHeader->Identifier = ((*RxAddress & FDCAN_ELEMENT_MASK_STDID) >> 18U);
 8001c64:	6a7b      	ldr	r3, [r7, #36]	@ 0x24
 8001c66:	681b      	ldr	r3, [r3, #0]
 8001c68:	0c9b      	lsrs	r3, r3, #18
 8001c6a:	f3c3 020a 	ubfx	r2, r3, #0, #11
 8001c6e:	687b      	ldr	r3, [r7, #4]
 8001c70:	601a      	str	r2, [r3, #0]
 8001c72:	e005      	b.n	8001c80 <HAL_FDCAN_GetRxMessage+0x1e0>
    }
    else /* Extended ID element */
    {
      pRxHeader->Identifier = (*RxAddress & FDCAN_ELEMENT_MASK_EXTID);
 8001c74:	6a7b      	ldr	r3, [r7, #36]	@ 0x24
 8001c76:	681b      	ldr	r3, [r3, #0]
 8001c78:	f023 4260 	bic.w	r2, r3, #3758096384	@ 0xe0000000
 8001c7c:	687b      	ldr	r3, [r7, #4]
 8001c7e:	601a      	str	r2, [r3, #0]
    }

    /* Retrieve RxFrameType */
    pRxHeader->RxFrameType = (*RxAddress & FDCAN_ELEMENT_MASK_RTR);
 8001c80:	6a7b      	ldr	r3, [r7, #36]	@ 0x24
 8001c82:	681b      	ldr	r3, [r3, #0]
 8001c84:	f003 5200 	and.w	r2, r3, #536870912	@ 0x20000000
 8001c88:	687b      	ldr	r3, [r7, #4]
 8001c8a:	609a      	str	r2, [r3, #8]

    /* Retrieve ErrorStateIndicator */
    pRxHeader->ErrorStateIndicator = (*RxAddress & FDCAN_ELEMENT_MASK_ESI);
 8001c8c:	6a7b      	ldr	r3, [r7, #36]	@ 0x24
 8001c8e:	681b      	ldr	r3, [r3, #0]
 8001c90:	f003 4200 	and.w	r2, r3, #2147483648	@ 0x80000000
 8001c94:	687b      	ldr	r3, [r7, #4]
 8001c96:	611a      	str	r2, [r3, #16]

    /* Increment RxAddress pointer to second word of Rx FIFO element */
    RxAddress++;
 8001c98:	6a7b      	ldr	r3, [r7, #36]	@ 0x24
 8001c9a:	3304      	adds	r3, #4
 8001c9c:	627b      	str	r3, [r7, #36]	@ 0x24

    /* Retrieve RxTimestamp */
    pRxHeader->RxTimestamp = (*RxAddress & FDCAN_ELEMENT_MASK_TS);
 8001c9e:	6a7b      	ldr	r3, [r7, #36]	@ 0x24
 8001ca0:	681b      	ldr	r3, [r3, #0]
 8001ca2:	b29a      	uxth	r2, r3
 8001ca4:	687b      	ldr	r3, [r7, #4]
 8001ca6:	61da      	str	r2, [r3, #28]

    /* Retrieve DataLength */
    pRxHeader->DataLength = ((*RxAddress & FDCAN_ELEMENT_MASK_DLC) >> 16U);
 8001ca8:	6a7b      	ldr	r3, [r7, #36]	@ 0x24
 8001caa:	681b      	ldr	r3, [r3, #0]
 8001cac:	0c1b      	lsrs	r3, r3, #16
 8001cae:	f003 020f 	and.w	r2, r3, #15
 8001cb2:	687b      	ldr	r3, [r7, #4]
 8001cb4:	60da      	str	r2, [r3, #12]

    /* Retrieve BitRateSwitch */
    pRxHeader->BitRateSwitch = (*RxAddress & FDCAN_ELEMENT_MASK_BRS);
 8001cb6:	6a7b      	ldr	r3, [r7, #36]	@ 0x24
 8001cb8:	681b      	ldr	r3, [r3, #0]
 8001cba:	f403 1280 	and.w	r2, r3, #1048576	@ 0x100000
 8001cbe:	687b      	ldr	r3, [r7, #4]
 8001cc0:	615a      	str	r2, [r3, #20]

    /* Retrieve FDFormat */
    pRxHeader->FDFormat = (*RxAddress & FDCAN_ELEMENT_MASK_FDF);
 8001cc2:	6a7b      	ldr	r3, [r7, #36]	@ 0x24
 8001cc4:	681b      	ldr	r3, [r3, #0]
 8001cc6:	f403 1200 	and.w	r2, r3, #2097152	@ 0x200000
 8001cca:	687b      	ldr	r3, [r7, #4]
 8001ccc:	619a      	str	r2, [r3, #24]

    /* Retrieve FilterIndex */
    pRxHeader->FilterIndex = ((*RxAddress & FDCAN_ELEMENT_MASK_FIDX) >> 24U);
 8001cce:	6a7b      	ldr	r3, [r7, #36]	@ 0x24
 8001cd0:	681b      	ldr	r3, [r3, #0]
 8001cd2:	0e1b      	lsrs	r3, r3, #24
 8001cd4:	f003 027f 	and.w	r2, r3, #127	@ 0x7f
 8001cd8:	687b      	ldr	r3, [r7, #4]
 8001cda:	621a      	str	r2, [r3, #32]

    /* Retrieve NonMatchingFrame */
    pRxHeader->IsFilterMatchingFrame = ((*RxAddress & FDCAN_ELEMENT_MASK_ANMF) >> 31U);
 8001cdc:	6a7b      	ldr	r3, [r7, #36]	@ 0x24
 8001cde:	681b      	ldr	r3, [r3, #0]
 8001ce0:	0fda      	lsrs	r2, r3, #31
 8001ce2:	687b      	ldr	r3, [r7, #4]
 8001ce4:	625a      	str	r2, [r3, #36]	@ 0x24

    /* Increment RxAddress pointer to payload of Rx FIFO element */
    RxAddress++;
 8001ce6:	6a7b      	ldr	r3, [r7, #36]	@ 0x24
 8001ce8:	3304      	adds	r3, #4
 8001cea:	627b      	str	r3, [r7, #36]	@ 0x24

    /* Retrieve Rx payload */
    pData = (uint8_t *)RxAddress;
 8001cec:	6a7b      	ldr	r3, [r7, #36]	@ 0x24
 8001cee:	617b      	str	r3, [r7, #20]
    for (ByteCounter = 0; ByteCounter < DLCtoBytes[pRxHeader->DataLength]; ByteCounter++)
 8001cf0:	2300      	movs	r3, #0
 8001cf2:	623b      	str	r3, [r7, #32]
 8001cf4:	e00a      	b.n	8001d0c <HAL_FDCAN_GetRxMessage+0x26c>
    {
      pRxData[ByteCounter] = pData[ByteCounter];
 8001cf6:	697a      	ldr	r2, [r7, #20]
 8001cf8:	6a3b      	ldr	r3, [r7, #32]
 8001cfa:	441a      	add	r2, r3
 8001cfc:	6839      	ldr	r1, [r7, #0]
 8001cfe:	6a3b      	ldr	r3, [r7, #32]
 8001d00:	440b      	add	r3, r1
 8001d02:	7812      	ldrb	r2, [r2, #0]
 8001d04:	701a      	strb	r2, [r3, #0]
    for (ByteCounter = 0; ByteCounter < DLCtoBytes[pRxHeader->DataLength]; ByteCounter++)
 8001d06:	6a3b      	ldr	r3, [r7, #32]
 8001d08:	3301      	adds	r3, #1
 8001d0a:	623b      	str	r3, [r7, #32]
 8001d0c:	687b      	ldr	r3, [r7, #4]
 8001d0e:	68db      	ldr	r3, [r3, #12]
 8001d10:	4a1f      	ldr	r2, [pc, #124]	@ (8001d90 <HAL_FDCAN_GetRxMessage+0x2f0>)
 8001d12:	5cd3      	ldrb	r3, [r2, r3]
 8001d14:	461a      	mov	r2, r3
 8001d16:	6a3b      	ldr	r3, [r7, #32]
 8001d18:	4293      	cmp	r3, r2
 8001d1a:	d3ec      	bcc.n	8001cf6 <HAL_FDCAN_GetRxMessage+0x256>
    }

    if (RxLocation == FDCAN_RX_FIFO0) /* Rx element is assigned to the Rx FIFO 0 */
 8001d1c:	68bb      	ldr	r3, [r7, #8]
 8001d1e:	2b40      	cmp	r3, #64	@ 0x40
 8001d20:	d105      	bne.n	8001d2e <HAL_FDCAN_GetRxMessage+0x28e>
    {
      /* Acknowledge the Rx FIFO 0 that the oldest element is read so that it increments the GetIndex */
      hfdcan->Instance->RXF0A = GetIndex;
 8001d22:	68fb      	ldr	r3, [r7, #12]
 8001d24:	681b      	ldr	r3, [r3, #0]
 8001d26:	69fa      	ldr	r2, [r7, #28]
 8001d28:	f8c3 20a8 	str.w	r2, [r3, #168]	@ 0xa8
 8001d2c:	e01e      	b.n	8001d6c <HAL_FDCAN_GetRxMessage+0x2cc>
    }
    else if (RxLocation == FDCAN_RX_FIFO1) /* Rx element is assigned to the Rx FIFO 1 */
 8001d2e:	68bb      	ldr	r3, [r7, #8]
 8001d30:	2b41      	cmp	r3, #65	@ 0x41
 8001d32:	d105      	bne.n	8001d40 <HAL_FDCAN_GetRxMessage+0x2a0>
    {
      /* Acknowledge the Rx FIFO 1 that the oldest element is read so that it increments the GetIndex */
      hfdcan->Instance->RXF1A = GetIndex;
 8001d34:	68fb      	ldr	r3, [r7, #12]
 8001d36:	681b      	ldr	r3, [r3, #0]
 8001d38:	69fa      	ldr	r2, [r7, #28]
 8001d3a:	f8c3 20b8 	str.w	r2, [r3, #184]	@ 0xb8
 8001d3e:	e015      	b.n	8001d6c <HAL_FDCAN_GetRxMessage+0x2cc>
    }
    else /* Rx element is assigned to a dedicated Rx buffer */
    {
      /* Clear the New Data flag of the current Rx buffer */
      if (RxLocation < FDCAN_RX_BUFFER32)
 8001d40:	68bb      	ldr	r3, [r7, #8]
 8001d42:	2b1f      	cmp	r3, #31
 8001d44:	d808      	bhi.n	8001d58 <HAL_FDCAN_GetRxMessage+0x2b8>
      {
        hfdcan->Instance->NDAT1 = ((uint32_t)1U << RxLocation);
 8001d46:	68fb      	ldr	r3, [r7, #12]
 8001d48:	681b      	ldr	r3, [r3, #0]
 8001d4a:	2101      	movs	r1, #1
 8001d4c:	68ba      	ldr	r2, [r7, #8]
 8001d4e:	fa01 f202 	lsl.w	r2, r1, r2
 8001d52:	f8c3 2098 	str.w	r2, [r3, #152]	@ 0x98
 8001d56:	e009      	b.n	8001d6c <HAL_FDCAN_GetRxMessage+0x2cc>
      }
      else /* FDCAN_RX_BUFFER32 <= RxLocation <= FDCAN_RX_BUFFER63 */
      {
        hfdcan->Instance->NDAT2 = ((uint32_t)1U << (RxLocation & 0x1FU));
 8001d58:	68bb      	ldr	r3, [r7, #8]
 8001d5a:	f003 021f 	and.w	r2, r3, #31
 8001d5e:	68fb      	ldr	r3, [r7, #12]
 8001d60:	681b      	ldr	r3, [r3, #0]
 8001d62:	2101      	movs	r1, #1
 8001d64:	fa01 f202 	lsl.w	r2, r1, r2
 8001d68:	f8c3 209c 	str.w	r2, [r3, #156]	@ 0x9c
      }
    }

    /* Return function status */
    return HAL_OK;
 8001d6c:	2300      	movs	r3, #0
 8001d6e:	e008      	b.n	8001d82 <HAL_FDCAN_GetRxMessage+0x2e2>
  }
  else
  {
    /* Update error code */
    hfdcan->ErrorCode |= HAL_FDCAN_ERROR_NOT_STARTED;
 8001d70:	68fb      	ldr	r3, [r7, #12]
 8001d72:	f8d3 309c 	ldr.w	r3, [r3, #156]	@ 0x9c
 8001d76:	f043 0208 	orr.w	r2, r3, #8
 8001d7a:	68fb      	ldr	r3, [r7, #12]
 8001d7c:	f8c3 209c 	str.w	r2, [r3, #156]	@ 0x9c

    return HAL_ERROR;
 8001d80:	2301      	movs	r3, #1
  }
}
 8001d82:	4618      	mov	r0, r3
 8001d84:	372c      	adds	r7, #44	@ 0x2c
 8001d86:	46bd      	mov	sp, r7
 8001d88:	f85d 7b04 	ldr.w	r7, [sp], #4
 8001d8c:	4770      	bx	lr
 8001d8e:	bf00      	nop
 8001d90:	080061f8 	.word	0x080061f8

08001d94 <HAL_FDCAN_GetRxFifoFillLevel>:
  *           @arg FDCAN_RX_FIFO0: Rx FIFO 0
  *           @arg FDCAN_RX_FIFO1: Rx FIFO 1
  * @retval Rx FIFO fill level.
  */
uint32_t HAL_FDCAN_GetRxFifoFillLevel(const FDCAN_HandleTypeDef *hfdcan, uint32_t RxFifo)
{
 8001d94:	b480      	push	{r7}
 8001d96:	b085      	sub	sp, #20
 8001d98:	af00      	add	r7, sp, #0
 8001d9a:	6078      	str	r0, [r7, #4]
 8001d9c:	6039      	str	r1, [r7, #0]
  uint32_t FillLevel;

  /* Check function parameters */
  assert_param(IS_FDCAN_RX_FIFO(RxFifo));

  if (RxFifo == FDCAN_RX_FIFO0)
 8001d9e:	683b      	ldr	r3, [r7, #0]
 8001da0:	2b40      	cmp	r3, #64	@ 0x40
 8001da2:	d107      	bne.n	8001db4 <HAL_FDCAN_GetRxFifoFillLevel+0x20>
  {
    FillLevel = hfdcan->Instance->RXF0S & FDCAN_RXF0S_F0FL;
 8001da4:	687b      	ldr	r3, [r7, #4]
 8001da6:	681b      	ldr	r3, [r3, #0]
 8001da8:	f8d3 30a4 	ldr.w	r3, [r3, #164]	@ 0xa4
 8001dac:	f003 037f 	and.w	r3, r3, #127	@ 0x7f
 8001db0:	60fb      	str	r3, [r7, #12]
 8001db2:	e006      	b.n	8001dc2 <HAL_FDCAN_GetRxFifoFillLevel+0x2e>
  }
  else /* RxFifo == FDCAN_RX_FIFO1 */
  {
    FillLevel = hfdcan->Instance->RXF1S & FDCAN_RXF1S_F1FL;
 8001db4:	687b      	ldr	r3, [r7, #4]
 8001db6:	681b      	ldr	r3, [r3, #0]
 8001db8:	f8d3 30b4 	ldr.w	r3, [r3, #180]	@ 0xb4
 8001dbc:	f003 037f 	and.w	r3, r3, #127	@ 0x7f
 8001dc0:	60fb      	str	r3, [r7, #12]
  }

  /* Return Rx FIFO fill level */
  return FillLevel;
 8001dc2:	68fb      	ldr	r3, [r7, #12]
}
 8001dc4:	4618      	mov	r0, r3
 8001dc6:	3714      	adds	r7, #20
 8001dc8:	46bd      	mov	sp, r7
 8001dca:	f85d 7b04 	ldr.w	r7, [sp], #4
 8001dce:	4770      	bx	lr

08001dd0 <FDCAN_CalculateRamBlockAddresses>:
  * @param  hfdcan pointer to an FDCAN_HandleTypeDef structure that contains
  *         the configuration information for the specified FDCAN.
  * @retval HAL status
 */
static HAL_StatusTypeDef FDCAN_CalculateRamBlockAddresses(FDCAN_HandleTypeDef *hfdcan)
{
 8001dd0:	b480      	push	{r7}
 8001dd2:	b085      	sub	sp, #20
 8001dd4:	af00      	add	r7, sp, #0
 8001dd6:	6078      	str	r0, [r7, #4]
  uint32_t RAMcounter;
  uint32_t StartAddress;

  StartAddress = hfdcan->Init.MessageRAMOffset;
 8001dd8:	687b      	ldr	r3, [r7, #4]
 8001dda:	6b5b      	ldr	r3, [r3, #52]	@ 0x34
 8001ddc:	60bb      	str	r3, [r7, #8]

  /* Standard filter list start address */
  MODIFY_REG(hfdcan->Instance->SIDFC, FDCAN_SIDFC_FLSSA, (StartAddress << FDCAN_SIDFC_FLSSA_Pos));
 8001dde:	687b      	ldr	r3, [r7, #4]
 8001de0:	681b      	ldr	r3, [r3, #0]
 8001de2:	f8d3 2084 	ldr.w	r2, [r3, #132]	@ 0x84
 8001de6:	4ba7      	ldr	r3, [pc, #668]	@ (8002084 <FDCAN_CalculateRamBlockAddresses+0x2b4>)
 8001de8:	4013      	ands	r3, r2
 8001dea:	68ba      	ldr	r2, [r7, #8]
 8001dec:	0091      	lsls	r1, r2, #2
 8001dee:	687a      	ldr	r2, [r7, #4]
 8001df0:	6812      	ldr	r2, [r2, #0]
 8001df2:	430b      	orrs	r3, r1
 8001df4:	f8c2 3084 	str.w	r3, [r2, #132]	@ 0x84

  /* Standard filter elements number */
  MODIFY_REG(hfdcan->Instance->SIDFC, FDCAN_SIDFC_LSS, (hfdcan->Init.StdFiltersNbr << FDCAN_SIDFC_LSS_Pos));
 8001df8:	687b      	ldr	r3, [r7, #4]
 8001dfa:	681b      	ldr	r3, [r3, #0]
 8001dfc:	f8d3 3084 	ldr.w	r3, [r3, #132]	@ 0x84
 8001e00:	f423 017f 	bic.w	r1, r3, #16711680	@ 0xff0000
 8001e04:	687b      	ldr	r3, [r7, #4]
 8001e06:	6b9b      	ldr	r3, [r3, #56]	@ 0x38
 8001e08:	041a      	lsls	r2, r3, #16
 8001e0a:	687b      	ldr	r3, [r7, #4]
 8001e0c:	681b      	ldr	r3, [r3, #0]
 8001e0e:	430a      	orrs	r2, r1
 8001e10:	f8c3 2084 	str.w	r2, [r3, #132]	@ 0x84

  /* Extended filter list start address */
  StartAddress += hfdcan->Init.StdFiltersNbr;
 8001e14:	687b      	ldr	r3, [r7, #4]
 8001e16:	6b9b      	ldr	r3, [r3, #56]	@ 0x38
 8001e18:	68ba      	ldr	r2, [r7, #8]
 8001e1a:	4413      	add	r3, r2
 8001e1c:	60bb      	str	r3, [r7, #8]
  MODIFY_REG(hfdcan->Instance->XIDFC, FDCAN_XIDFC_FLESA, (StartAddress << FDCAN_XIDFC_FLESA_Pos));
 8001e1e:	687b      	ldr	r3, [r7, #4]
 8001e20:	681b      	ldr	r3, [r3, #0]
 8001e22:	f8d3 2088 	ldr.w	r2, [r3, #136]	@ 0x88
 8001e26:	4b97      	ldr	r3, [pc, #604]	@ (8002084 <FDCAN_CalculateRamBlockAddresses+0x2b4>)
 8001e28:	4013      	ands	r3, r2
 8001e2a:	68ba      	ldr	r2, [r7, #8]
 8001e2c:	0091      	lsls	r1, r2, #2
 8001e2e:	687a      	ldr	r2, [r7, #4]
 8001e30:	6812      	ldr	r2, [r2, #0]
 8001e32:	430b      	orrs	r3, r1
 8001e34:	f8c2 3088 	str.w	r3, [r2, #136]	@ 0x88

  /* Extended filter elements number */
  MODIFY_REG(hfdcan->Instance->XIDFC, FDCAN_XIDFC_LSE, (hfdcan->Init.ExtFiltersNbr << FDCAN_XIDFC_LSE_Pos));
 8001e38:	687b      	ldr	r3, [r7, #4]
 8001e3a:	681b      	ldr	r3, [r3, #0]
 8001e3c:	f8d3 3088 	ldr.w	r3, [r3, #136]	@ 0x88
 8001e40:	f423 01fe 	bic.w	r1, r3, #8323072	@ 0x7f0000
 8001e44:	687b      	ldr	r3, [r7, #4]
 8001e46:	6bdb      	ldr	r3, [r3, #60]	@ 0x3c
 8001e48:	041a      	lsls	r2, r3, #16
 8001e4a:	687b      	ldr	r3, [r7, #4]
 8001e4c:	681b      	ldr	r3, [r3, #0]
 8001e4e:	430a      	orrs	r2, r1
 8001e50:	f8c3 2088 	str.w	r2, [r3, #136]	@ 0x88

  /* Rx FIFO 0 start address */
  StartAddress += (hfdcan->Init.ExtFiltersNbr * 2U);
 8001e54:	687b      	ldr	r3, [r7, #4]
 8001e56:	6bdb      	ldr	r3, [r3, #60]	@ 0x3c
 8001e58:	005b      	lsls	r3, r3, #1
 8001e5a:	68ba      	ldr	r2, [r7, #8]
 8001e5c:	4413      	add	r3, r2
 8001e5e:	60bb      	str	r3, [r7, #8]
  MODIFY_REG(hfdcan->Instance->RXF0C, FDCAN_RXF0C_F0SA, (StartAddress << FDCAN_RXF0C_F0SA_Pos));
 8001e60:	687b      	ldr	r3, [r7, #4]
 8001e62:	681b      	ldr	r3, [r3, #0]
 8001e64:	f8d3 20a0 	ldr.w	r2, [r3, #160]	@ 0xa0
 8001e68:	4b86      	ldr	r3, [pc, #536]	@ (8002084 <FDCAN_CalculateRamBlockAddresses+0x2b4>)
 8001e6a:	4013      	ands	r3, r2
 8001e6c:	68ba      	ldr	r2, [r7, #8]
 8001e6e:	0091      	lsls	r1, r2, #2
 8001e70:	687a      	ldr	r2, [r7, #4]
 8001e72:	6812      	ldr	r2, [r2, #0]
 8001e74:	430b      	orrs	r3, r1
 8001e76:	f8c2 30a0 	str.w	r3, [r2, #160]	@ 0xa0

  /* Rx FIFO 0 elements number */
  MODIFY_REG(hfdcan->Instance->RXF0C, FDCAN_RXF0C_F0S, (hfdcan->Init.RxFifo0ElmtsNbr << FDCAN_RXF0C_F0S_Pos));
 8001e7a:	687b      	ldr	r3, [r7, #4]
 8001e7c:	681b      	ldr	r3, [r3, #0]
 8001e7e:	f8d3 30a0 	ldr.w	r3, [r3, #160]	@ 0xa0
 8001e82:	f423 01fe 	bic.w	r1, r3, #8323072	@ 0x7f0000
 8001e86:	687b      	ldr	r3, [r7, #4]
 8001e88:	6c1b      	ldr	r3, [r3, #64]	@ 0x40
 8001e8a:	041a      	lsls	r2, r3, #16
 8001e8c:	687b      	ldr	r3, [r7, #4]
 8001e8e:	681b      	ldr	r3, [r3, #0]
 8001e90:	430a      	orrs	r2, r1
 8001e92:	f8c3 20a0 	str.w	r2, [r3, #160]	@ 0xa0

  /* Rx FIFO 1 start address */
  StartAddress += (hfdcan->Init.RxFifo0ElmtsNbr * hfdcan->Init.RxFifo0ElmtSize);
 8001e96:	687b      	ldr	r3, [r7, #4]
 8001e98:	6c1b      	ldr	r3, [r3, #64]	@ 0x40
 8001e9a:	687a      	ldr	r2, [r7, #4]
 8001e9c:	6c52      	ldr	r2, [r2, #68]	@ 0x44
 8001e9e:	fb02 f303 	mul.w	r3, r2, r3
 8001ea2:	68ba      	ldr	r2, [r7, #8]
 8001ea4:	4413      	add	r3, r2
 8001ea6:	60bb      	str	r3, [r7, #8]
  MODIFY_REG(hfdcan->Instance->RXF1C, FDCAN_RXF1C_F1SA, (StartAddress << FDCAN_RXF1C_F1SA_Pos));
 8001ea8:	687b      	ldr	r3, [r7, #4]
 8001eaa:	681b      	ldr	r3, [r3, #0]
 8001eac:	f8d3 20b0 	ldr.w	r2, [r3, #176]	@ 0xb0
 8001eb0:	4b74      	ldr	r3, [pc, #464]	@ (8002084 <FDCAN_CalculateRamBlockAddresses+0x2b4>)
 8001eb2:	4013      	ands	r3, r2
 8001eb4:	68ba      	ldr	r2, [r7, #8]
 8001eb6:	0091      	lsls	r1, r2, #2
 8001eb8:	687a      	ldr	r2, [r7, #4]
 8001eba:	6812      	ldr	r2, [r2, #0]
 8001ebc:	430b      	orrs	r3, r1
 8001ebe:	f8c2 30b0 	str.w	r3, [r2, #176]	@ 0xb0

  /* Rx FIFO 1 elements number */
  MODIFY_REG(hfdcan->Instance->RXF1C, FDCAN_RXF1C_F1S, (hfdcan->Init.RxFifo1ElmtsNbr << FDCAN_RXF1C_F1S_Pos));
 8001ec2:	687b      	ldr	r3, [r7, #4]
 8001ec4:	681b      	ldr	r3, [r3, #0]
 8001ec6:	f8d3 30b0 	ldr.w	r3, [r3, #176]	@ 0xb0
 8001eca:	f423 01fe 	bic.w	r1, r3, #8323072	@ 0x7f0000
 8001ece:	687b      	ldr	r3, [r7, #4]
 8001ed0:	6c9b      	ldr	r3, [r3, #72]	@ 0x48
 8001ed2:	041a      	lsls	r2, r3, #16
 8001ed4:	687b      	ldr	r3, [r7, #4]
 8001ed6:	681b      	ldr	r3, [r3, #0]
 8001ed8:	430a      	orrs	r2, r1
 8001eda:	f8c3 20b0 	str.w	r2, [r3, #176]	@ 0xb0

  /* Rx buffer list start address */
  StartAddress += (hfdcan->Init.RxFifo1ElmtsNbr * hfdcan->Init.RxFifo1ElmtSize);
 8001ede:	687b      	ldr	r3, [r7, #4]
 8001ee0:	6c9b      	ldr	r3, [r3, #72]	@ 0x48
 8001ee2:	687a      	ldr	r2, [r7, #4]
 8001ee4:	6cd2      	ldr	r2, [r2, #76]	@ 0x4c
 8001ee6:	fb02 f303 	mul.w	r3, r2, r3
 8001eea:	68ba      	ldr	r2, [r7, #8]
 8001eec:	4413      	add	r3, r2
 8001eee:	60bb      	str	r3, [r7, #8]
  MODIFY_REG(hfdcan->Instance->RXBC, FDCAN_RXBC_RBSA, (StartAddress << FDCAN_RXBC_RBSA_Pos));
 8001ef0:	687b      	ldr	r3, [r7, #4]
 8001ef2:	681b      	ldr	r3, [r3, #0]
 8001ef4:	f8d3 20ac 	ldr.w	r2, [r3, #172]	@ 0xac
 8001ef8:	4b62      	ldr	r3, [pc, #392]	@ (8002084 <FDCAN_CalculateRamBlockAddresses+0x2b4>)
 8001efa:	4013      	ands	r3, r2
 8001efc:	68ba      	ldr	r2, [r7, #8]
 8001efe:	0091      	lsls	r1, r2, #2
 8001f00:	687a      	ldr	r2, [r7, #4]
 8001f02:	6812      	ldr	r2, [r2, #0]
 8001f04:	430b      	orrs	r3, r1
 8001f06:	f8c2 30ac 	str.w	r3, [r2, #172]	@ 0xac

  /* Tx event FIFO start address */
  StartAddress += (hfdcan->Init.RxBuffersNbr * hfdcan->Init.RxBufferSize);
 8001f0a:	687b      	ldr	r3, [r7, #4]
 8001f0c:	6d1b      	ldr	r3, [r3, #80]	@ 0x50
 8001f0e:	687a      	ldr	r2, [r7, #4]
 8001f10:	6d52      	ldr	r2, [r2, #84]	@ 0x54
 8001f12:	fb02 f303 	mul.w	r3, r2, r3
 8001f16:	68ba      	ldr	r2, [r7, #8]
 8001f18:	4413      	add	r3, r2
 8001f1a:	60bb      	str	r3, [r7, #8]
  MODIFY_REG(hfdcan->Instance->TXEFC, FDCAN_TXEFC_EFSA, (StartAddress << FDCAN_TXEFC_EFSA_Pos));
 8001f1c:	687b      	ldr	r3, [r7, #4]
 8001f1e:	681b      	ldr	r3, [r3, #0]
 8001f20:	f8d3 20f0 	ldr.w	r2, [r3, #240]	@ 0xf0
 8001f24:	4b57      	ldr	r3, [pc, #348]	@ (8002084 <FDCAN_CalculateRamBlockAddresses+0x2b4>)
 8001f26:	4013      	ands	r3, r2
 8001f28:	68ba      	ldr	r2, [r7, #8]
 8001f2a:	0091      	lsls	r1, r2, #2
 8001f2c:	687a      	ldr	r2, [r7, #4]
 8001f2e:	6812      	ldr	r2, [r2, #0]
 8001f30:	430b      	orrs	r3, r1
 8001f32:	f8c2 30f0 	str.w	r3, [r2, #240]	@ 0xf0

  /* Tx event FIFO elements number */
  MODIFY_REG(hfdcan->Instance->TXEFC, FDCAN_TXEFC_EFS, (hfdcan->Init.TxEventsNbr << FDCAN_TXEFC_EFS_Pos));
 8001f36:	687b      	ldr	r3, [r7, #4]
 8001f38:	681b      	ldr	r3, [r3, #0]
 8001f3a:	f8d3 30f0 	ldr.w	r3, [r3, #240]	@ 0xf0
 8001f3e:	f423 117c 	bic.w	r1, r3, #4128768	@ 0x3f0000
 8001f42:	687b      	ldr	r3, [r7, #4]
 8001f44:	6d9b      	ldr	r3, [r3, #88]	@ 0x58
 8001f46:	041a      	lsls	r2, r3, #16
 8001f48:	687b      	ldr	r3, [r7, #4]
 8001f4a:	681b      	ldr	r3, [r3, #0]
 8001f4c:	430a      	orrs	r2, r1
 8001f4e:	f8c3 20f0 	str.w	r2, [r3, #240]	@ 0xf0

  /* Tx buffer list start address */
  StartAddress += (hfdcan->Init.TxEventsNbr * 2U);
 8001f52:	687b      	ldr	r3, [r7, #4]
 8001f54:	6d9b      	ldr	r3, [r3, #88]	@ 0x58
 8001f56:	005b      	lsls	r3, r3, #1
 8001f58:	68ba      	ldr	r2, [r7, #8]
 8001f5a:	4413      	add	r3, r2
 8001f5c:	60bb      	str	r3, [r7, #8]
  MODIFY_REG(hfdcan->Instance->TXBC, FDCAN_TXBC_TBSA, (StartAddress << FDCAN_TXBC_TBSA_Pos));
 8001f5e:	687b      	ldr	r3, [r7, #4]
 8001f60:	681b      	ldr	r3, [r3, #0]
 8001f62:	f8d3 20c0 	ldr.w	r2, [r3, #192]	@ 0xc0
 8001f66:	4b47      	ldr	r3, [pc, #284]	@ (8002084 <FDCAN_CalculateRamBlockAddresses+0x2b4>)
 8001f68:	4013      	ands	r3, r2
 8001f6a:	68ba      	ldr	r2, [r7, #8]
 8001f6c:	0091      	lsls	r1, r2, #2
 8001f6e:	687a      	ldr	r2, [r7, #4]
 8001f70:	6812      	ldr	r2, [r2, #0]
 8001f72:	430b      	orrs	r3, r1
 8001f74:	f8c2 30c0 	str.w	r3, [r2, #192]	@ 0xc0

  /* Dedicated Tx buffers number */
  MODIFY_REG(hfdcan->Instance->TXBC, FDCAN_TXBC_NDTB, (hfdcan->Init.TxBuffersNbr << FDCAN_TXBC_NDTB_Pos));
 8001f78:	687b      	ldr	r3, [r7, #4]
 8001f7a:	681b      	ldr	r3, [r3, #0]
 8001f7c:	f8d3 30c0 	ldr.w	r3, [r3, #192]	@ 0xc0
 8001f80:	f423 117c 	bic.w	r1, r3, #4128768	@ 0x3f0000
 8001f84:	687b      	ldr	r3, [r7, #4]
 8001f86:	6ddb      	ldr	r3, [r3, #92]	@ 0x5c
 8001f88:	041a      	lsls	r2, r3, #16
 8001f8a:	687b      	ldr	r3, [r7, #4]
 8001f8c:	681b      	ldr	r3, [r3, #0]
 8001f8e:	430a      	orrs	r2, r1
 8001f90:	f8c3 20c0 	str.w	r2, [r3, #192]	@ 0xc0

  /* Tx FIFO/queue elements number */
  MODIFY_REG(hfdcan->Instance->TXBC, FDCAN_TXBC_TFQS, (hfdcan->Init.TxFifoQueueElmtsNbr << FDCAN_TXBC_TFQS_Pos));
 8001f94:	687b      	ldr	r3, [r7, #4]
 8001f96:	681b      	ldr	r3, [r3, #0]
 8001f98:	f8d3 30c0 	ldr.w	r3, [r3, #192]	@ 0xc0
 8001f9c:	f023 517c 	bic.w	r1, r3, #1056964608	@ 0x3f000000
 8001fa0:	687b      	ldr	r3, [r7, #4]
 8001fa2:	6e1b      	ldr	r3, [r3, #96]	@ 0x60
 8001fa4:	061a      	lsls	r2, r3, #24
 8001fa6:	687b      	ldr	r3, [r7, #4]
 8001fa8:	681b      	ldr	r3, [r3, #0]
 8001faa:	430a      	orrs	r2, r1
 8001fac:	f8c3 20c0 	str.w	r2, [r3, #192]	@ 0xc0

  hfdcan->msgRam.StandardFilterSA = SRAMCAN_BASE + (hfdcan->Init.MessageRAMOffset * 4U);
 8001fb0:	687b      	ldr	r3, [r7, #4]
 8001fb2:	6b5a      	ldr	r2, [r3, #52]	@ 0x34
 8001fb4:	4b34      	ldr	r3, [pc, #208]	@ (8002088 <FDCAN_CalculateRamBlockAddresses+0x2b8>)
 8001fb6:	4413      	add	r3, r2
 8001fb8:	009a      	lsls	r2, r3, #2
 8001fba:	687b      	ldr	r3, [r7, #4]
 8001fbc:	66da      	str	r2, [r3, #108]	@ 0x6c
  hfdcan->msgRam.ExtendedFilterSA = hfdcan->msgRam.StandardFilterSA + (hfdcan->Init.StdFiltersNbr * 4U);
 8001fbe:	687b      	ldr	r3, [r7, #4]
 8001fc0:	6eda      	ldr	r2, [r3, #108]	@ 0x6c
 8001fc2:	687b      	ldr	r3, [r7, #4]
 8001fc4:	6b9b      	ldr	r3, [r3, #56]	@ 0x38
 8001fc6:	009b      	lsls	r3, r3, #2
 8001fc8:	441a      	add	r2, r3
 8001fca:	687b      	ldr	r3, [r7, #4]
 8001fcc:	671a      	str	r2, [r3, #112]	@ 0x70
  hfdcan->msgRam.RxFIFO0SA = hfdcan->msgRam.ExtendedFilterSA + (hfdcan->Init.ExtFiltersNbr * 2U * 4U);
 8001fce:	687b      	ldr	r3, [r7, #4]
 8001fd0:	6f1a      	ldr	r2, [r3, #112]	@ 0x70
 8001fd2:	687b      	ldr	r3, [r7, #4]
 8001fd4:	6bdb      	ldr	r3, [r3, #60]	@ 0x3c
 8001fd6:	00db      	lsls	r3, r3, #3
 8001fd8:	441a      	add	r2, r3
 8001fda:	687b      	ldr	r3, [r7, #4]
 8001fdc:	675a      	str	r2, [r3, #116]	@ 0x74
  hfdcan->msgRam.RxFIFO1SA = hfdcan->msgRam.RxFIFO0SA +
 8001fde:	687b      	ldr	r3, [r7, #4]
 8001fe0:	6f5a      	ldr	r2, [r3, #116]	@ 0x74
                             (hfdcan->Init.RxFifo0ElmtsNbr * hfdcan->Init.RxFifo0ElmtSize * 4U);
 8001fe2:	687b      	ldr	r3, [r7, #4]
 8001fe4:	6c1b      	ldr	r3, [r3, #64]	@ 0x40
 8001fe6:	6879      	ldr	r1, [r7, #4]
 8001fe8:	6c49      	ldr	r1, [r1, #68]	@ 0x44
 8001fea:	fb01 f303 	mul.w	r3, r1, r3
 8001fee:	009b      	lsls	r3, r3, #2
  hfdcan->msgRam.RxFIFO1SA = hfdcan->msgRam.RxFIFO0SA +
 8001ff0:	441a      	add	r2, r3
 8001ff2:	687b      	ldr	r3, [r7, #4]
 8001ff4:	679a      	str	r2, [r3, #120]	@ 0x78
  hfdcan->msgRam.RxBufferSA = hfdcan->msgRam.RxFIFO1SA +
 8001ff6:	687b      	ldr	r3, [r7, #4]
 8001ff8:	6f9a      	ldr	r2, [r3, #120]	@ 0x78
                              (hfdcan->Init.RxFifo1ElmtsNbr * hfdcan->Init.RxFifo1ElmtSize * 4U);
 8001ffa:	687b      	ldr	r3, [r7, #4]
 8001ffc:	6c9b      	ldr	r3, [r3, #72]	@ 0x48
 8001ffe:	6879      	ldr	r1, [r7, #4]
 8002000:	6cc9      	ldr	r1, [r1, #76]	@ 0x4c
 8002002:	fb01 f303 	mul.w	r3, r1, r3
 8002006:	009b      	lsls	r3, r3, #2
  hfdcan->msgRam.RxBufferSA = hfdcan->msgRam.RxFIFO1SA +
 8002008:	441a      	add	r2, r3
 800200a:	687b      	ldr	r3, [r7, #4]
 800200c:	67da      	str	r2, [r3, #124]	@ 0x7c
  hfdcan->msgRam.TxEventFIFOSA = hfdcan->msgRam.RxBufferSA +
 800200e:	687b      	ldr	r3, [r7, #4]
 8002010:	6fda      	ldr	r2, [r3, #124]	@ 0x7c
                                 (hfdcan->Init.RxBuffersNbr * hfdcan->Init.RxBufferSize * 4U);
 8002012:	687b      	ldr	r3, [r7, #4]
 8002014:	6d1b      	ldr	r3, [r3, #80]	@ 0x50
 8002016:	6879      	ldr	r1, [r7, #4]
 8002018:	6d49      	ldr	r1, [r1, #84]	@ 0x54
 800201a:	fb01 f303 	mul.w	r3, r1, r3
 800201e:	009b      	lsls	r3, r3, #2
  hfdcan->msgRam.TxEventFIFOSA = hfdcan->msgRam.RxBufferSA +
 8002020:	441a      	add	r2, r3
 8002022:	687b      	ldr	r3, [r7, #4]
 8002024:	f8c3 2080 	str.w	r2, [r3, #128]	@ 0x80
  hfdcan->msgRam.TxBufferSA = hfdcan->msgRam.TxEventFIFOSA + (hfdcan->Init.TxEventsNbr * 2U * 4U);
 8002028:	687b      	ldr	r3, [r7, #4]
 800202a:	f8d3 2080 	ldr.w	r2, [r3, #128]	@ 0x80
 800202e:	687b      	ldr	r3, [r7, #4]
 8002030:	6d9b      	ldr	r3, [r3, #88]	@ 0x58
 8002032:	00db      	lsls	r3, r3, #3
 8002034:	441a      	add	r2, r3
 8002036:	687b      	ldr	r3, [r7, #4]
 8002038:	f8c3 2084 	str.w	r2, [r3, #132]	@ 0x84
  hfdcan->msgRam.TxFIFOQSA = hfdcan->msgRam.TxBufferSA + (hfdcan->Init.TxBuffersNbr * hfdcan->Init.TxElmtSize * 4U);
 800203c:	687b      	ldr	r3, [r7, #4]
 800203e:	f8d3 2084 	ldr.w	r2, [r3, #132]	@ 0x84
 8002042:	687b      	ldr	r3, [r7, #4]
 8002044:	6ddb      	ldr	r3, [r3, #92]	@ 0x5c
 8002046:	6879      	ldr	r1, [r7, #4]
 8002048:	6e89      	ldr	r1, [r1, #104]	@ 0x68
 800204a:	fb01 f303 	mul.w	r3, r1, r3
 800204e:	009b      	lsls	r3, r3, #2
 8002050:	441a      	add	r2, r3
 8002052:	687b      	ldr	r3, [r7, #4]
 8002054:	f8c3 2088 	str.w	r2, [r3, #136]	@ 0x88

  hfdcan->msgRam.EndAddress = hfdcan->msgRam.TxFIFOQSA +
 8002058:	687b      	ldr	r3, [r7, #4]
 800205a:	f8d3 2088 	ldr.w	r2, [r3, #136]	@ 0x88
                              (hfdcan->Init.TxFifoQueueElmtsNbr * hfdcan->Init.TxElmtSize * 4U);
 800205e:	687b      	ldr	r3, [r7, #4]
 8002060:	6e1b      	ldr	r3, [r3, #96]	@ 0x60
 8002062:	6879      	ldr	r1, [r7, #4]
 8002064:	6e89      	ldr	r1, [r1, #104]	@ 0x68
 8002066:	fb01 f303 	mul.w	r3, r1, r3
 800206a:	009b      	lsls	r3, r3, #2
  hfdcan->msgRam.EndAddress = hfdcan->msgRam.TxFIFOQSA +
 800206c:	441a      	add	r2, r3
 800206e:	687b      	ldr	r3, [r7, #4]
 8002070:	f8c3 2090 	str.w	r2, [r3, #144]	@ 0x90

  if (hfdcan->msgRam.EndAddress > FDCAN_MESSAGE_RAM_END_ADDRESS) /* Last address of the Message RAM */
 8002074:	687b      	ldr	r3, [r7, #4]
 8002076:	f8d3 3090 	ldr.w	r3, [r3, #144]	@ 0x90
 800207a:	4a04      	ldr	r2, [pc, #16]	@ (800208c <FDCAN_CalculateRamBlockAddresses+0x2bc>)
 800207c:	4293      	cmp	r3, r2
 800207e:	d915      	bls.n	80020ac <FDCAN_CalculateRamBlockAddresses+0x2dc>
 8002080:	e006      	b.n	8002090 <FDCAN_CalculateRamBlockAddresses+0x2c0>
 8002082:	bf00      	nop
 8002084:	ffff0003 	.word	0xffff0003
 8002088:	10002b00 	.word	0x10002b00
 800208c:	4000d3fc 	.word	0x4000d3fc
  {
    /* Update error code.
       Message RAM overflow */
    hfdcan->ErrorCode |= HAL_FDCAN_ERROR_PARAM;
 8002090:	687b      	ldr	r3, [r7, #4]
 8002092:	f8d3 309c 	ldr.w	r3, [r3, #156]	@ 0x9c
 8002096:	f043 0220 	orr.w	r2, r3, #32
 800209a:	687b      	ldr	r3, [r7, #4]
 800209c:	f8c3 209c 	str.w	r2, [r3, #156]	@ 0x9c

    /* Change FDCAN state */
    hfdcan->State = HAL_FDCAN_STATE_ERROR;
 80020a0:	687b      	ldr	r3, [r7, #4]
 80020a2:	2203      	movs	r2, #3
 80020a4:	f883 2098 	strb.w	r2, [r3, #152]	@ 0x98

    return HAL_ERROR;
 80020a8:	2301      	movs	r3, #1
 80020aa:	e010      	b.n	80020ce <FDCAN_CalculateRamBlockAddresses+0x2fe>
  }
  else
  {
    /* Flush the allocated Message RAM area */
    for (RAMcounter = hfdcan->msgRam.StandardFilterSA; RAMcounter < hfdcan->msgRam.EndAddress; RAMcounter += 4U)
 80020ac:	687b      	ldr	r3, [r7, #4]
 80020ae:	6edb      	ldr	r3, [r3, #108]	@ 0x6c
 80020b0:	60fb      	str	r3, [r7, #12]
 80020b2:	e005      	b.n	80020c0 <FDCAN_CalculateRamBlockAddresses+0x2f0>
    {
      *(uint32_t *)(RAMcounter) = 0x00000000;
 80020b4:	68fb      	ldr	r3, [r7, #12]
 80020b6:	2200      	movs	r2, #0
 80020b8:	601a      	str	r2, [r3, #0]
    for (RAMcounter = hfdcan->msgRam.StandardFilterSA; RAMcounter < hfdcan->msgRam.EndAddress; RAMcounter += 4U)
 80020ba:	68fb      	ldr	r3, [r7, #12]
 80020bc:	3304      	adds	r3, #4
 80020be:	60fb      	str	r3, [r7, #12]
 80020c0:	687b      	ldr	r3, [r7, #4]
 80020c2:	f8d3 3090 	ldr.w	r3, [r3, #144]	@ 0x90
 80020c6:	68fa      	ldr	r2, [r7, #12]
 80020c8:	429a      	cmp	r2, r3
 80020ca:	d3f3      	bcc.n	80020b4 <FDCAN_CalculateRamBlockAddresses+0x2e4>
    }
  }

  /* Return function status */
  return HAL_OK;
 80020cc:	2300      	movs	r3, #0
}
 80020ce:	4618      	mov	r0, r3
 80020d0:	3714      	adds	r7, #20
 80020d2:	46bd      	mov	sp, r7
 80020d4:	f85d 7b04 	ldr.w	r7, [sp], #4
 80020d8:	4770      	bx	lr
 80020da:	bf00      	nop

080020dc <HAL_GPIO_Init>:
  * @param  GPIO_Init: pointer to a GPIO_InitTypeDef structure that contains
  *         the configuration information for the specified GPIO peripheral.
  * @retval None
  */
void HAL_GPIO_Init(GPIO_TypeDef  *GPIOx, const GPIO_InitTypeDef *GPIO_Init)
{
 80020dc:	b480      	push	{r7}
 80020de:	b089      	sub	sp, #36	@ 0x24
 80020e0:	af00      	add	r7, sp, #0
 80020e2:	6078      	str	r0, [r7, #4]
 80020e4:	6039      	str	r1, [r7, #0]
  uint32_t position = 0x00U;
 80020e6:	2300      	movs	r3, #0
 80020e8:	61fb      	str	r3, [r7, #28]
  EXTI_Core_TypeDef *EXTI_CurrentCPU;

#if defined(DUAL_CORE) && defined(CORE_CM4)
  EXTI_CurrentCPU = EXTI_D2; /* EXTI for CM4 CPU */
#else
  EXTI_CurrentCPU = EXTI_D1; /* EXTI for CM7 CPU */
 80020ea:	4b8b      	ldr	r3, [pc, #556]	@ (8002318 <HAL_GPIO_Init+0x23c>)
 80020ec:	617b      	str	r3, [r7, #20]
  assert_param(IS_GPIO_ALL_INSTANCE(GPIOx));
  assert_param(IS_GPIO_PIN(GPIO_Init->Pin));
  assert_param(IS_GPIO_MODE(GPIO_Init->Mode));

  /* Configure the port pins */
  while (((GPIO_Init->Pin) >> position) != 0x00U)
 80020ee:	e196      	b.n	800241e <HAL_GPIO_Init+0x342>
  {
    /* Get current io position */
    iocurrent = (GPIO_Init->Pin) & (1UL << position);
 80020f0:	683b      	ldr	r3, [r7, #0]
 80020f2:	681a      	ldr	r2, [r3, #0]
 80020f4:	2101      	movs	r1, #1
 80020f6:	69fb      	ldr	r3, [r7, #28]
 80020f8:	fa01 f303 	lsl.w	r3, r1, r3
 80020fc:	4013      	ands	r3, r2
 80020fe:	613b      	str	r3, [r7, #16]

    if (iocurrent != 0x00U)
 8002100:	693b      	ldr	r3, [r7, #16]
 8002102:	2b00      	cmp	r3, #0
 8002104:	f000 8188 	beq.w	8002418 <HAL_GPIO_Init+0x33c>
    {
      /*--------------------- GPIO Mode Configuration ------------------------*/
      /* In case of Output or Alternate function mode selection */
      if (((GPIO_Init->Mode & GPIO_MODE) == MODE_OUTPUT) || ((GPIO_Init->Mode & GPIO_MODE) == MODE_AF))
 8002108:	683b      	ldr	r3, [r7, #0]
 800210a:	685b      	ldr	r3, [r3, #4]
 800210c:	f003 0303 	and.w	r3, r3, #3
 8002110:	2b01      	cmp	r3, #1
 8002112:	d005      	beq.n	8002120 <HAL_GPIO_Init+0x44>
 8002114:	683b      	ldr	r3, [r7, #0]
 8002116:	685b      	ldr	r3, [r3, #4]
 8002118:	f003 0303 	and.w	r3, r3, #3
 800211c:	2b02      	cmp	r3, #2
 800211e:	d130      	bne.n	8002182 <HAL_GPIO_Init+0xa6>
      {
        /* Check the Speed parameter */
        assert_param(IS_GPIO_SPEED(GPIO_Init->Speed));

        /* Configure the IO Speed */
        temp = GPIOx->OSPEEDR;
 8002120:	687b      	ldr	r3, [r7, #4]
 8002122:	689b      	ldr	r3, [r3, #8]
 8002124:	61bb      	str	r3, [r7, #24]
        temp &= ~(GPIO_OSPEEDR_OSPEED0 << (position * 2U));
 8002126:	69fb      	ldr	r3, [r7, #28]
 8002128:	005b      	lsls	r3, r3, #1
 800212a:	2203      	movs	r2, #3
 800212c:	fa02 f303 	lsl.w	r3, r2, r3
 8002130:	43db      	mvns	r3, r3
 8002132:	69ba      	ldr	r2, [r7, #24]
 8002134:	4013      	ands	r3, r2
 8002136:	61bb      	str	r3, [r7, #24]
        temp |= (GPIO_Init->Speed << (position * 2U));
 8002138:	683b      	ldr	r3, [r7, #0]
 800213a:	68da      	ldr	r2, [r3, #12]
 800213c:	69fb      	ldr	r3, [r7, #28]
 800213e:	005b      	lsls	r3, r3, #1
 8002140:	fa02 f303 	lsl.w	r3, r2, r3
 8002144:	69ba      	ldr	r2, [r7, #24]
 8002146:	4313      	orrs	r3, r2
 8002148:	61bb      	str	r3, [r7, #24]
        GPIOx->OSPEEDR = temp;
 800214a:	687b      	ldr	r3, [r7, #4]
 800214c:	69ba      	ldr	r2, [r7, #24]
 800214e:	609a      	str	r2, [r3, #8]

        /* Configure the IO Output Type */
        temp = GPIOx->OTYPER;
 8002150:	687b      	ldr	r3, [r7, #4]
 8002152:	685b      	ldr	r3, [r3, #4]
 8002154:	61bb      	str	r3, [r7, #24]
        temp &= ~(GPIO_OTYPER_OT0 << position) ;
 8002156:	2201      	movs	r2, #1
 8002158:	69fb      	ldr	r3, [r7, #28]
 800215a:	fa02 f303 	lsl.w	r3, r2, r3
 800215e:	43db      	mvns	r3, r3
 8002160:	69ba      	ldr	r2, [r7, #24]
 8002162:	4013      	ands	r3, r2
 8002164:	61bb      	str	r3, [r7, #24]
        temp |= (((GPIO_Init->Mode & OUTPUT_TYPE) >> OUTPUT_TYPE_Pos) << position);
 8002166:	683b      	ldr	r3, [r7, #0]
 8002168:	685b      	ldr	r3, [r3, #4]
 800216a:	091b      	lsrs	r3, r3, #4
 800216c:	f003 0201 	and.w	r2, r3, #1
 8002170:	69fb      	ldr	r3, [r7, #28]
 8002172:	fa02 f303 	lsl.w	r3, r2, r3
 8002176:	69ba      	ldr	r2, [r7, #24]
 8002178:	4313      	orrs	r3, r2
 800217a:	61bb      	str	r3, [r7, #24]
        GPIOx->OTYPER = temp;
 800217c:	687b      	ldr	r3, [r7, #4]
 800217e:	69ba      	ldr	r2, [r7, #24]
 8002180:	605a      	str	r2, [r3, #4]
      }

      if (((GPIO_Init->Mode & GPIO_MODE) != MODE_ANALOG) ||
 8002182:	683b      	ldr	r3, [r7, #0]
 8002184:	685b      	ldr	r3, [r3, #4]
 8002186:	f003 0303 	and.w	r3, r3, #3
 800218a:	2b03      	cmp	r3, #3
 800218c:	d109      	bne.n	80021a2 <HAL_GPIO_Init+0xc6>
          (((GPIO_Init->Mode & GPIO_MODE) == MODE_ANALOG) && (GPIO_Init->Pull != GPIO_PULLUP)))
 800218e:	683b      	ldr	r3, [r7, #0]
 8002190:	685b      	ldr	r3, [r3, #4]
 8002192:	f003 0303 	and.w	r3, r3, #3
      if (((GPIO_Init->Mode & GPIO_MODE) != MODE_ANALOG) ||
 8002196:	2b03      	cmp	r3, #3
 8002198:	d11b      	bne.n	80021d2 <HAL_GPIO_Init+0xf6>
          (((GPIO_Init->Mode & GPIO_MODE) == MODE_ANALOG) && (GPIO_Init->Pull != GPIO_PULLUP)))
 800219a:	683b      	ldr	r3, [r7, #0]
 800219c:	689b      	ldr	r3, [r3, #8]
 800219e:	2b01      	cmp	r3, #1
 80021a0:	d017      	beq.n	80021d2 <HAL_GPIO_Init+0xf6>
      {
       /* Check the Pull parameter */
       assert_param(IS_GPIO_PULL(GPIO_Init->Pull));

      /* Activate the Pull-up or Pull down resistor for the current IO */
      temp = GPIOx->PUPDR;
 80021a2:	687b      	ldr	r3, [r7, #4]
 80021a4:	68db      	ldr	r3, [r3, #12]
 80021a6:	61bb      	str	r3, [r7, #24]
      temp &= ~(GPIO_PUPDR_PUPD0 << (position * 2U));
 80021a8:	69fb      	ldr	r3, [r7, #28]
 80021aa:	005b      	lsls	r3, r3, #1
 80021ac:	2203      	movs	r2, #3
 80021ae:	fa02 f303 	lsl.w	r3, r2, r3
 80021b2:	43db      	mvns	r3, r3
 80021b4:	69ba      	ldr	r2, [r7, #24]
 80021b6:	4013      	ands	r3, r2
 80021b8:	61bb      	str	r3, [r7, #24]
      temp |= ((GPIO_Init->Pull) << (position * 2U));
 80021ba:	683b      	ldr	r3, [r7, #0]
 80021bc:	689a      	ldr	r2, [r3, #8]
 80021be:	69fb      	ldr	r3, [r7, #28]
 80021c0:	005b      	lsls	r3, r3, #1
 80021c2:	fa02 f303 	lsl.w	r3, r2, r3
 80021c6:	69ba      	ldr	r2, [r7, #24]
 80021c8:	4313      	orrs	r3, r2
 80021ca:	61bb      	str	r3, [r7, #24]
      GPIOx->PUPDR = temp;
 80021cc:	687b      	ldr	r3, [r7, #4]
 80021ce:	69ba      	ldr	r2, [r7, #24]
 80021d0:	60da      	str	r2, [r3, #12]
      }

      /* In case of Alternate function mode selection */
      if ((GPIO_Init->Mode & GPIO_MODE) == MODE_AF)
 80021d2:	683b      	ldr	r3, [r7, #0]
 80021d4:	685b      	ldr	r3, [r3, #4]
 80021d6:	f003 0303 	and.w	r3, r3, #3
 80021da:	2b02      	cmp	r3, #2
 80021dc:	d123      	bne.n	8002226 <HAL_GPIO_Init+0x14a>
        /* Check the Alternate function parameters */
        assert_param(IS_GPIO_AF_INSTANCE(GPIOx));
        assert_param(IS_GPIO_AF(GPIO_Init->Alternate));

        /* Configure Alternate function mapped with the current IO */
        temp = GPIOx->AFR[position >> 3U];
 80021de:	69fb      	ldr	r3, [r7, #28]
 80021e0:	08da      	lsrs	r2, r3, #3
 80021e2:	687b      	ldr	r3, [r7, #4]
 80021e4:	3208      	adds	r2, #8
 80021e6:	f853 3022 	ldr.w	r3, [r3, r2, lsl #2]
 80021ea:	61bb      	str	r3, [r7, #24]
        temp &= ~(0xFUL << ((position & 0x07U) * 4U));
 80021ec:	69fb      	ldr	r3, [r7, #28]
 80021ee:	f003 0307 	and.w	r3, r3, #7
 80021f2:	009b      	lsls	r3, r3, #2
 80021f4:	220f      	movs	r2, #15
 80021f6:	fa02 f303 	lsl.w	r3, r2, r3
 80021fa:	43db      	mvns	r3, r3
 80021fc:	69ba      	ldr	r2, [r7, #24]
 80021fe:	4013      	ands	r3, r2
 8002200:	61bb      	str	r3, [r7, #24]
        temp |= ((GPIO_Init->Alternate) << ((position & 0x07U) * 4U));
 8002202:	683b      	ldr	r3, [r7, #0]
 8002204:	691a      	ldr	r2, [r3, #16]
 8002206:	69fb      	ldr	r3, [r7, #28]
 8002208:	f003 0307 	and.w	r3, r3, #7
 800220c:	009b      	lsls	r3, r3, #2
 800220e:	fa02 f303 	lsl.w	r3, r2, r3
 8002212:	69ba      	ldr	r2, [r7, #24]
 8002214:	4313      	orrs	r3, r2
 8002216:	61bb      	str	r3, [r7, #24]
        GPIOx->AFR[position >> 3U] = temp;
 8002218:	69fb      	ldr	r3, [r7, #28]
 800221a:	08da      	lsrs	r2, r3, #3
 800221c:	687b      	ldr	r3, [r7, #4]
 800221e:	3208      	adds	r2, #8
 8002220:	69b9      	ldr	r1, [r7, #24]
 8002222:	f843 1022 	str.w	r1, [r3, r2, lsl #2]
      }

      /* Configure IO Direction mode (Input, Output, Alternate or Analog) */
      temp = GPIOx->MODER;
 8002226:	687b      	ldr	r3, [r7, #4]
 8002228:	681b      	ldr	r3, [r3, #0]
 800222a:	61bb      	str	r3, [r7, #24]
      temp &= ~(GPIO_MODER_MODE0 << (position * 2U));
 800222c:	69fb      	ldr	r3, [r7, #28]
 800222e:	005b      	lsls	r3, r3, #1
 8002230:	2203      	movs	r2, #3
 8002232:	fa02 f303 	lsl.w	r3, r2, r3
 8002236:	43db      	mvns	r3, r3
 8002238:	69ba      	ldr	r2, [r7, #24]
 800223a:	4013      	ands	r3, r2
 800223c:	61bb      	str	r3, [r7, #24]
      temp |= ((GPIO_Init->Mode & GPIO_MODE) << (position * 2U));
 800223e:	683b      	ldr	r3, [r7, #0]
 8002240:	685b      	ldr	r3, [r3, #4]
 8002242:	f003 0203 	and.w	r2, r3, #3
 8002246:	69fb      	ldr	r3, [r7, #28]
 8002248:	005b      	lsls	r3, r3, #1
 800224a:	fa02 f303 	lsl.w	r3, r2, r3
 800224e:	69ba      	ldr	r2, [r7, #24]
 8002250:	4313      	orrs	r3, r2
 8002252:	61bb      	str	r3, [r7, #24]
      GPIOx->MODER = temp;
 8002254:	687b      	ldr	r3, [r7, #4]
 8002256:	69ba      	ldr	r2, [r7, #24]
 8002258:	601a      	str	r2, [r3, #0]

      /*--------------------- EXTI Mode Configuration ------------------------*/
      /* Configure the External Interrupt or event for the current IO */
      if ((GPIO_Init->Mode & EXTI_MODE) != 0x00U)
 800225a:	683b      	ldr	r3, [r7, #0]
 800225c:	685b      	ldr	r3, [r3, #4]
 800225e:	f403 3340 	and.w	r3, r3, #196608	@ 0x30000
 8002262:	2b00      	cmp	r3, #0
 8002264:	f000 80d8 	beq.w	8002418 <HAL_GPIO_Init+0x33c>
      {
        /* Enable SYSCFG Clock */
        __HAL_RCC_SYSCFG_CLK_ENABLE();
 8002268:	4b2c      	ldr	r3, [pc, #176]	@ (800231c <HAL_GPIO_Init+0x240>)
 800226a:	f8d3 30f4 	ldr.w	r3, [r3, #244]	@ 0xf4
 800226e:	4a2b      	ldr	r2, [pc, #172]	@ (800231c <HAL_GPIO_Init+0x240>)
 8002270:	f043 0302 	orr.w	r3, r3, #2
 8002274:	f8c2 30f4 	str.w	r3, [r2, #244]	@ 0xf4
 8002278:	4b28      	ldr	r3, [pc, #160]	@ (800231c <HAL_GPIO_Init+0x240>)
 800227a:	f8d3 30f4 	ldr.w	r3, [r3, #244]	@ 0xf4
 800227e:	f003 0302 	and.w	r3, r3, #2
 8002282:	60fb      	str	r3, [r7, #12]
 8002284:	68fb      	ldr	r3, [r7, #12]

        temp = SYSCFG->EXTICR[position >> 2U];
 8002286:	4a26      	ldr	r2, [pc, #152]	@ (8002320 <HAL_GPIO_Init+0x244>)
 8002288:	69fb      	ldr	r3, [r7, #28]
 800228a:	089b      	lsrs	r3, r3, #2
 800228c:	3302      	adds	r3, #2
 800228e:	f852 3023 	ldr.w	r3, [r2, r3, lsl #2]
 8002292:	61bb      	str	r3, [r7, #24]
        temp &= ~(0x0FUL << (4U * (position & 0x03U)));
 8002294:	69fb      	ldr	r3, [r7, #28]
 8002296:	f003 0303 	and.w	r3, r3, #3
 800229a:	009b      	lsls	r3, r3, #2
 800229c:	220f      	movs	r2, #15
 800229e:	fa02 f303 	lsl.w	r3, r2, r3
 80022a2:	43db      	mvns	r3, r3
 80022a4:	69ba      	ldr	r2, [r7, #24]
 80022a6:	4013      	ands	r3, r2
 80022a8:	61bb      	str	r3, [r7, #24]
        temp |= (GPIO_GET_INDEX(GPIOx) << (4U * (position & 0x03U)));
 80022aa:	687b      	ldr	r3, [r7, #4]
 80022ac:	4a1d      	ldr	r2, [pc, #116]	@ (8002324 <HAL_GPIO_Init+0x248>)
 80022ae:	4293      	cmp	r3, r2
 80022b0:	d04a      	beq.n	8002348 <HAL_GPIO_Init+0x26c>
 80022b2:	687b      	ldr	r3, [r7, #4]
 80022b4:	4a1c      	ldr	r2, [pc, #112]	@ (8002328 <HAL_GPIO_Init+0x24c>)
 80022b6:	4293      	cmp	r3, r2
 80022b8:	d02b      	beq.n	8002312 <HAL_GPIO_Init+0x236>
 80022ba:	687b      	ldr	r3, [r7, #4]
 80022bc:	4a1b      	ldr	r2, [pc, #108]	@ (800232c <HAL_GPIO_Init+0x250>)
 80022be:	4293      	cmp	r3, r2
 80022c0:	d025      	beq.n	800230e <HAL_GPIO_Init+0x232>
 80022c2:	687b      	ldr	r3, [r7, #4]
 80022c4:	4a1a      	ldr	r2, [pc, #104]	@ (8002330 <HAL_GPIO_Init+0x254>)
 80022c6:	4293      	cmp	r3, r2
 80022c8:	d01f      	beq.n	800230a <HAL_GPIO_Init+0x22e>
 80022ca:	687b      	ldr	r3, [r7, #4]
 80022cc:	4a19      	ldr	r2, [pc, #100]	@ (8002334 <HAL_GPIO_Init+0x258>)
 80022ce:	4293      	cmp	r3, r2
 80022d0:	d019      	beq.n	8002306 <HAL_GPIO_Init+0x22a>
 80022d2:	687b      	ldr	r3, [r7, #4]
 80022d4:	4a18      	ldr	r2, [pc, #96]	@ (8002338 <HAL_GPIO_Init+0x25c>)
 80022d6:	4293      	cmp	r3, r2
 80022d8:	d013      	beq.n	8002302 <HAL_GPIO_Init+0x226>
 80022da:	687b      	ldr	r3, [r7, #4]
 80022dc:	4a17      	ldr	r2, [pc, #92]	@ (800233c <HAL_GPIO_Init+0x260>)
 80022de:	4293      	cmp	r3, r2
 80022e0:	d00d      	beq.n	80022fe <HAL_GPIO_Init+0x222>
 80022e2:	687b      	ldr	r3, [r7, #4]
 80022e4:	4a16      	ldr	r2, [pc, #88]	@ (8002340 <HAL_GPIO_Init+0x264>)
 80022e6:	4293      	cmp	r3, r2
 80022e8:	d007      	beq.n	80022fa <HAL_GPIO_Init+0x21e>
 80022ea:	687b      	ldr	r3, [r7, #4]
 80022ec:	4a15      	ldr	r2, [pc, #84]	@ (8002344 <HAL_GPIO_Init+0x268>)
 80022ee:	4293      	cmp	r3, r2
 80022f0:	d101      	bne.n	80022f6 <HAL_GPIO_Init+0x21a>
 80022f2:	2309      	movs	r3, #9
 80022f4:	e029      	b.n	800234a <HAL_GPIO_Init+0x26e>
 80022f6:	230a      	movs	r3, #10
 80022f8:	e027      	b.n	800234a <HAL_GPIO_Init+0x26e>
 80022fa:	2307      	movs	r3, #7
 80022fc:	e025      	b.n	800234a <HAL_GPIO_Init+0x26e>
 80022fe:	2306      	movs	r3, #6
 8002300:	e023      	b.n	800234a <HAL_GPIO_Init+0x26e>
 8002302:	2305      	movs	r3, #5
 8002304:	e021      	b.n	800234a <HAL_GPIO_Init+0x26e>
 8002306:	2304      	movs	r3, #4
 8002308:	e01f      	b.n	800234a <HAL_GPIO_Init+0x26e>
 800230a:	2303      	movs	r3, #3
 800230c:	e01d      	b.n	800234a <HAL_GPIO_Init+0x26e>
 800230e:	2302      	movs	r3, #2
 8002310:	e01b      	b.n	800234a <HAL_GPIO_Init+0x26e>
 8002312:	2301      	movs	r3, #1
 8002314:	e019      	b.n	800234a <HAL_GPIO_Init+0x26e>
 8002316:	bf00      	nop
 8002318:	58000080 	.word	0x58000080
 800231c:	58024400 	.word	0x58024400
 8002320:	58000400 	.word	0x58000400
 8002324:	58020000 	.word	0x58020000
 8002328:	58020400 	.word	0x58020400
 800232c:	58020800 	.word	0x58020800
 8002330:	58020c00 	.word	0x58020c00
 8002334:	58021000 	.word	0x58021000
 8002338:	58021400 	.word	0x58021400
 800233c:	58021800 	.word	0x58021800
 8002340:	58021c00 	.word	0x58021c00
 8002344:	58022400 	.word	0x58022400
 8002348:	2300      	movs	r3, #0
 800234a:	69fa      	ldr	r2, [r7, #28]
 800234c:	f002 0203 	and.w	r2, r2, #3
 8002350:	0092      	lsls	r2, r2, #2
 8002352:	4093      	lsls	r3, r2
 8002354:	69ba      	ldr	r2, [r7, #24]
 8002356:	4313      	orrs	r3, r2
 8002358:	61bb      	str	r3, [r7, #24]
        SYSCFG->EXTICR[position >> 2U] = temp;
 800235a:	4938      	ldr	r1, [pc, #224]	@ (800243c <HAL_GPIO_Init+0x360>)
 800235c:	69fb      	ldr	r3, [r7, #28]
 800235e:	089b      	lsrs	r3, r3, #2
 8002360:	3302      	adds	r3, #2
 8002362:	69ba      	ldr	r2, [r7, #24]
 8002364:	f841 2023 	str.w	r2, [r1, r3, lsl #2]

        /* Clear Rising Falling edge configuration */
        temp = EXTI->RTSR1;
 8002368:	f04f 43b0 	mov.w	r3, #1476395008	@ 0x58000000
 800236c:	681b      	ldr	r3, [r3, #0]
 800236e:	61bb      	str	r3, [r7, #24]
        temp &= ~(iocurrent);
 8002370:	693b      	ldr	r3, [r7, #16]
 8002372:	43db      	mvns	r3, r3
 8002374:	69ba      	ldr	r2, [r7, #24]
 8002376:	4013      	ands	r3, r2
 8002378:	61bb      	str	r3, [r7, #24]
        if ((GPIO_Init->Mode & TRIGGER_RISING) != 0x00U)
 800237a:	683b      	ldr	r3, [r7, #0]
 800237c:	685b      	ldr	r3, [r3, #4]
 800237e:	f403 1380 	and.w	r3, r3, #1048576	@ 0x100000
 8002382:	2b00      	cmp	r3, #0
 8002384:	d003      	beq.n	800238e <HAL_GPIO_Init+0x2b2>
        {
          temp |= iocurrent;
 8002386:	69ba      	ldr	r2, [r7, #24]
 8002388:	693b      	ldr	r3, [r7, #16]
 800238a:	4313      	orrs	r3, r2
 800238c:	61bb      	str	r3, [r7, #24]
        }
        EXTI->RTSR1 = temp;
 800238e:	f04f 42b0 	mov.w	r2, #1476395008	@ 0x58000000
 8002392:	69bb      	ldr	r3, [r7, #24]
 8002394:	6013      	str	r3, [r2, #0]

        temp = EXTI->FTSR1;
 8002396:	f04f 43b0 	mov.w	r3, #1476395008	@ 0x58000000
 800239a:	685b      	ldr	r3, [r3, #4]
 800239c:	61bb      	str	r3, [r7, #24]
        temp &= ~(iocurrent);
 800239e:	693b      	ldr	r3, [r7, #16]
 80023a0:	43db      	mvns	r3, r3
 80023a2:	69ba      	ldr	r2, [r7, #24]
 80023a4:	4013      	ands	r3, r2
 80023a6:	61bb      	str	r3, [r7, #24]
        if ((GPIO_Init->Mode & TRIGGER_FALLING) != 0x00U)
 80023a8:	683b      	ldr	r3, [r7, #0]
 80023aa:	685b      	ldr	r3, [r3, #4]
 80023ac:	f403 1300 	and.w	r3, r3, #2097152	@ 0x200000
 80023b0:	2b00      	cmp	r3, #0
 80023b2:	d003      	beq.n	80023bc <HAL_GPIO_Init+0x2e0>
        {
          temp |= iocurrent;
 80023b4:	69ba      	ldr	r2, [r7, #24]
 80023b6:	693b      	ldr	r3, [r7, #16]
 80023b8:	4313      	orrs	r3, r2
 80023ba:	61bb      	str	r3, [r7, #24]
        }
        EXTI->FTSR1 = temp;
 80023bc:	f04f 42b0 	mov.w	r2, #1476395008	@ 0x58000000
 80023c0:	69bb      	ldr	r3, [r7, #24]
 80023c2:	6053      	str	r3, [r2, #4]

        temp = EXTI_CurrentCPU->EMR1;
 80023c4:	697b      	ldr	r3, [r7, #20]
 80023c6:	685b      	ldr	r3, [r3, #4]
 80023c8:	61bb      	str	r3, [r7, #24]
        temp &= ~(iocurrent);
 80023ca:	693b      	ldr	r3, [r7, #16]
 80023cc:	43db      	mvns	r3, r3
 80023ce:	69ba      	ldr	r2, [r7, #24]
 80023d0:	4013      	ands	r3, r2
 80023d2:	61bb      	str	r3, [r7, #24]
        if ((GPIO_Init->Mode & EXTI_EVT) != 0x00U)
 80023d4:	683b      	ldr	r3, [r7, #0]
 80023d6:	685b      	ldr	r3, [r3, #4]
 80023d8:	f403 3300 	and.w	r3, r3, #131072	@ 0x20000
 80023dc:	2b00      	cmp	r3, #0
 80023de:	d003      	beq.n	80023e8 <HAL_GPIO_Init+0x30c>
        {
          temp |= iocurrent;
 80023e0:	69ba      	ldr	r2, [r7, #24]
 80023e2:	693b      	ldr	r3, [r7, #16]
 80023e4:	4313      	orrs	r3, r2
 80023e6:	61bb      	str	r3, [r7, #24]
        }
        EXTI_CurrentCPU->EMR1 = temp;
 80023e8:	697b      	ldr	r3, [r7, #20]
 80023ea:	69ba      	ldr	r2, [r7, #24]
 80023ec:	605a      	str	r2, [r3, #4]

        /* Clear EXTI line configuration */
        temp = EXTI_CurrentCPU->IMR1;
 80023ee:	697b      	ldr	r3, [r7, #20]
 80023f0:	681b      	ldr	r3, [r3, #0]
 80023f2:	61bb      	str	r3, [r7, #24]
        temp &= ~(iocurrent);
 80023f4:	693b      	ldr	r3, [r7, #16]
 80023f6:	43db      	mvns	r3, r3
 80023f8:	69ba      	ldr	r2, [r7, #24]
 80023fa:	4013      	ands	r3, r2
 80023fc:	61bb      	str	r3, [r7, #24]
        if ((GPIO_Init->Mode & EXTI_IT) != 0x00U)
 80023fe:	683b      	ldr	r3, [r7, #0]
 8002400:	685b      	ldr	r3, [r3, #4]
 8002402:	f403 3380 	and.w	r3, r3, #65536	@ 0x10000
 8002406:	2b00      	cmp	r3, #0
 8002408:	d003      	beq.n	8002412 <HAL_GPIO_Init+0x336>
        {
          temp |= iocurrent;
 800240a:	69ba      	ldr	r2, [r7, #24]
 800240c:	693b      	ldr	r3, [r7, #16]
 800240e:	4313      	orrs	r3, r2
 8002410:	61bb      	str	r3, [r7, #24]
        }
        EXTI_CurrentCPU->IMR1 = temp;
 8002412:	697b      	ldr	r3, [r7, #20]
 8002414:	69ba      	ldr	r2, [r7, #24]
 8002416:	601a      	str	r2, [r3, #0]
      }
    }

    position++;
 8002418:	69fb      	ldr	r3, [r7, #28]
 800241a:	3301      	adds	r3, #1
 800241c:	61fb      	str	r3, [r7, #28]
  while (((GPIO_Init->Pin) >> position) != 0x00U)
 800241e:	683b      	ldr	r3, [r7, #0]
 8002420:	681a      	ldr	r2, [r3, #0]
 8002422:	69fb      	ldr	r3, [r7, #28]
 8002424:	fa22 f303 	lsr.w	r3, r2, r3
 8002428:	2b00      	cmp	r3, #0
 800242a:	f47f ae61 	bne.w	80020f0 <HAL_GPIO_Init+0x14>
  }
}
 800242e:	bf00      	nop
 8002430:	bf00      	nop
 8002432:	3724      	adds	r7, #36	@ 0x24
 8002434:	46bd      	mov	sp, r7
 8002436:	f85d 7b04 	ldr.w	r7, [sp], #4
 800243a:	4770      	bx	lr
 800243c:	58000400 	.word	0x58000400

08002440 <HAL_GPIO_WritePin>:
  *            @arg GPIO_PIN_RESET: to clear the port pin
  *            @arg GPIO_PIN_SET: to set the port pin
  * @retval None
  */
void HAL_GPIO_WritePin(GPIO_TypeDef *GPIOx, uint16_t GPIO_Pin, GPIO_PinState PinState)
{
 8002440:	b480      	push	{r7}
 8002442:	b083      	sub	sp, #12
 8002444:	af00      	add	r7, sp, #0
 8002446:	6078      	str	r0, [r7, #4]
 8002448:	460b      	mov	r3, r1
 800244a:	807b      	strh	r3, [r7, #2]
 800244c:	4613      	mov	r3, r2
 800244e:	707b      	strb	r3, [r7, #1]
  /* Check the parameters */
  assert_param(IS_GPIO_PIN(GPIO_Pin));
  assert_param(IS_GPIO_PIN_ACTION(PinState));

  if (PinState != GPIO_PIN_RESET)
 8002450:	787b      	ldrb	r3, [r7, #1]
 8002452:	2b00      	cmp	r3, #0
 8002454:	d003      	beq.n	800245e <HAL_GPIO_WritePin+0x1e>
  {
    GPIOx->BSRR = GPIO_Pin;
 8002456:	887a      	ldrh	r2, [r7, #2]
 8002458:	687b      	ldr	r3, [r7, #4]
 800245a:	619a      	str	r2, [r3, #24]
  }
  else
  {
    GPIOx->BSRR = (uint32_t)GPIO_Pin << GPIO_NUMBER;
  }
}
 800245c:	e003      	b.n	8002466 <HAL_GPIO_WritePin+0x26>
    GPIOx->BSRR = (uint32_t)GPIO_Pin << GPIO_NUMBER;
 800245e:	887b      	ldrh	r3, [r7, #2]
 8002460:	041a      	lsls	r2, r3, #16
 8002462:	687b      	ldr	r3, [r7, #4]
 8002464:	619a      	str	r2, [r3, #24]
}
 8002466:	bf00      	nop
 8002468:	370c      	adds	r7, #12
 800246a:	46bd      	mov	sp, r7
 800246c:	f85d 7b04 	ldr.w	r7, [sp], #4
 8002470:	4770      	bx	lr
	...

08002474 <HAL_PWREx_ConfigSupply>:
  *         process during startup.
  *         For more details, please refer to the power control chapter in the reference manual
  * @retval HAL status.
  */
HAL_StatusTypeDef HAL_PWREx_ConfigSupply (uint32_t SupplySource)
{
 8002474:	b580      	push	{r7, lr}
 8002476:	b084      	sub	sp, #16
 8002478:	af00      	add	r7, sp, #0
 800247a:	6078      	str	r0, [r7, #4]
  /* Check the parameters */
  assert_param (IS_PWR_SUPPLY (SupplySource));

  /* Check if supply source was configured */
#if defined (PWR_FLAG_SCUEN)
  if (__HAL_PWR_GET_FLAG (PWR_FLAG_SCUEN) == 0U)
 800247c:	4b19      	ldr	r3, [pc, #100]	@ (80024e4 <HAL_PWREx_ConfigSupply+0x70>)
 800247e:	68db      	ldr	r3, [r3, #12]
 8002480:	f003 0304 	and.w	r3, r3, #4
 8002484:	2b04      	cmp	r3, #4
 8002486:	d00a      	beq.n	800249e <HAL_PWREx_ConfigSupply+0x2a>
#else
  if ((PWR->CR3 & (PWR_CR3_SMPSEN | PWR_CR3_LDOEN | PWR_CR3_BYPASS)) != (PWR_CR3_SMPSEN | PWR_CR3_LDOEN))
#endif /* defined (PWR_FLAG_SCUEN) */
  {
    /* Check supply configuration */
    if ((PWR->CR3 & PWR_SUPPLY_CONFIG_MASK) != SupplySource)
 8002488:	4b16      	ldr	r3, [pc, #88]	@ (80024e4 <HAL_PWREx_ConfigSupply+0x70>)
 800248a:	68db      	ldr	r3, [r3, #12]
 800248c:	f003 0307 	and.w	r3, r3, #7
 8002490:	687a      	ldr	r2, [r7, #4]
 8002492:	429a      	cmp	r2, r3
 8002494:	d001      	beq.n	800249a <HAL_PWREx_ConfigSupply+0x26>
    {
      /* Supply configuration update locked, can't apply a new supply config */
      return HAL_ERROR;
 8002496:	2301      	movs	r3, #1
 8002498:	e01f      	b.n	80024da <HAL_PWREx_ConfigSupply+0x66>
    else
    {
      /* Supply configuration update locked, but new supply configuration
         matches with old supply configuration : nothing to do
      */
      return HAL_OK;
 800249a:	2300      	movs	r3, #0
 800249c:	e01d      	b.n	80024da <HAL_PWREx_ConfigSupply+0x66>
    }
  }

  /* Set the power supply configuration */
  MODIFY_REG (PWR->CR3, PWR_SUPPLY_CONFIG_MASK, SupplySource);
 800249e:	4b11      	ldr	r3, [pc, #68]	@ (80024e4 <HAL_PWREx_ConfigSupply+0x70>)
 80024a0:	68db      	ldr	r3, [r3, #12]
 80024a2:	f023 0207 	bic.w	r2, r3, #7
 80024a6:	490f      	ldr	r1, [pc, #60]	@ (80024e4 <HAL_PWREx_ConfigSupply+0x70>)
 80024a8:	687b      	ldr	r3, [r7, #4]
 80024aa:	4313      	orrs	r3, r2
 80024ac:	60cb      	str	r3, [r1, #12]

  /* Get tick */
  tickstart = HAL_GetTick ();
 80024ae:	f7fe fe53 	bl	8001158 <HAL_GetTick>
 80024b2:	60f8      	str	r0, [r7, #12]

  /* Wait till voltage level flag is set */
  while (__HAL_PWR_GET_FLAG (PWR_FLAG_ACTVOSRDY) == 0U)
 80024b4:	e009      	b.n	80024ca <HAL_PWREx_ConfigSupply+0x56>
  {
    if ((HAL_GetTick () - tickstart) > PWR_FLAG_SETTING_DELAY)
 80024b6:	f7fe fe4f 	bl	8001158 <HAL_GetTick>
 80024ba:	4602      	mov	r2, r0
 80024bc:	68fb      	ldr	r3, [r7, #12]
 80024be:	1ad3      	subs	r3, r2, r3
 80024c0:	f5b3 7f7a 	cmp.w	r3, #1000	@ 0x3e8
 80024c4:	d901      	bls.n	80024ca <HAL_PWREx_ConfigSupply+0x56>
    {
      return HAL_ERROR;
 80024c6:	2301      	movs	r3, #1
 80024c8:	e007      	b.n	80024da <HAL_PWREx_ConfigSupply+0x66>
  while (__HAL_PWR_GET_FLAG (PWR_FLAG_ACTVOSRDY) == 0U)
 80024ca:	4b06      	ldr	r3, [pc, #24]	@ (80024e4 <HAL_PWREx_ConfigSupply+0x70>)
 80024cc:	685b      	ldr	r3, [r3, #4]
 80024ce:	f403 5300 	and.w	r3, r3, #8192	@ 0x2000
 80024d2:	f5b3 5f00 	cmp.w	r3, #8192	@ 0x2000
 80024d6:	d1ee      	bne.n	80024b6 <HAL_PWREx_ConfigSupply+0x42>
      }
    }
  }
#endif /* defined (SMPS) */

  return HAL_OK;
 80024d8:	2300      	movs	r3, #0
}
 80024da:	4618      	mov	r0, r3
 80024dc:	3710      	adds	r7, #16
 80024de:	46bd      	mov	sp, r7
 80024e0:	bd80      	pop	{r7, pc}
 80024e2:	bf00      	nop
 80024e4:	58024800 	.word	0x58024800

080024e8 <HAL_RCC_OscConfig>:
  *         supported by this function. User should request a transition to HSE Off
  *         first and then HSE On or HSE Bypass.
  * @retval HAL status
  */
__weak HAL_StatusTypeDef HAL_RCC_OscConfig(const RCC_OscInitTypeDef  *RCC_OscInitStruct)
{
 80024e8:	b580      	push	{r7, lr}
 80024ea:	b08c      	sub	sp, #48	@ 0x30
 80024ec:	af00      	add	r7, sp, #0
 80024ee:	6078      	str	r0, [r7, #4]
  uint32_t tickstart;
  uint32_t temp1_pllckcfg, temp2_pllckcfg;

  /* Check Null pointer */
  if (RCC_OscInitStruct == NULL)
 80024f0:	687b      	ldr	r3, [r7, #4]
 80024f2:	2b00      	cmp	r3, #0
 80024f4:	d101      	bne.n	80024fa <HAL_RCC_OscConfig+0x12>
  {
    return HAL_ERROR;
 80024f6:	2301      	movs	r3, #1
 80024f8:	e3c8      	b.n	8002c8c <HAL_RCC_OscConfig+0x7a4>
  }

  /* Check the parameters */
  assert_param(IS_RCC_OSCILLATORTYPE(RCC_OscInitStruct->OscillatorType));
  /*------------------------------- HSE Configuration ------------------------*/
  if (((RCC_OscInitStruct->OscillatorType) & RCC_OSCILLATORTYPE_HSE) == RCC_OSCILLATORTYPE_HSE)
 80024fa:	687b      	ldr	r3, [r7, #4]
 80024fc:	681b      	ldr	r3, [r3, #0]
 80024fe:	f003 0301 	and.w	r3, r3, #1
 8002502:	2b00      	cmp	r3, #0
 8002504:	f000 8087 	beq.w	8002616 <HAL_RCC_OscConfig+0x12e>
  {
    /* Check the parameters */
    assert_param(IS_RCC_HSE(RCC_OscInitStruct->HSEState));

    const uint32_t temp_sysclksrc = __HAL_RCC_GET_SYSCLK_SOURCE();
 8002508:	4b88      	ldr	r3, [pc, #544]	@ (800272c <HAL_RCC_OscConfig+0x244>)
 800250a:	691b      	ldr	r3, [r3, #16]
 800250c:	f003 0338 	and.w	r3, r3, #56	@ 0x38
 8002510:	62fb      	str	r3, [r7, #44]	@ 0x2c
    const uint32_t temp_pllckselr = RCC->PLLCKSELR;
 8002512:	4b86      	ldr	r3, [pc, #536]	@ (800272c <HAL_RCC_OscConfig+0x244>)
 8002514:	6a9b      	ldr	r3, [r3, #40]	@ 0x28
 8002516:	62bb      	str	r3, [r7, #40]	@ 0x28
    /* When the HSE is used as system clock or clock source for PLL in these cases HSE will not disabled */
    if ((temp_sysclksrc == RCC_CFGR_SWS_HSE) || ((temp_sysclksrc == RCC_CFGR_SWS_PLL1) && ((temp_pllckselr & RCC_PLLCKSELR_PLLSRC) == RCC_PLLCKSELR_PLLSRC_HSE)))
 8002518:	6afb      	ldr	r3, [r7, #44]	@ 0x2c
 800251a:	2b10      	cmp	r3, #16
 800251c:	d007      	beq.n	800252e <HAL_RCC_OscConfig+0x46>
 800251e:	6afb      	ldr	r3, [r7, #44]	@ 0x2c
 8002520:	2b18      	cmp	r3, #24
 8002522:	d110      	bne.n	8002546 <HAL_RCC_OscConfig+0x5e>
 8002524:	6abb      	ldr	r3, [r7, #40]	@ 0x28
 8002526:	f003 0303 	and.w	r3, r3, #3
 800252a:	2b02      	cmp	r3, #2
 800252c:	d10b      	bne.n	8002546 <HAL_RCC_OscConfig+0x5e>
    {
      if ((__HAL_RCC_GET_FLAG(RCC_FLAG_HSERDY) != 0U) && (RCC_OscInitStruct->HSEState == RCC_HSE_OFF))
 800252e:	4b7f      	ldr	r3, [pc, #508]	@ (800272c <HAL_RCC_OscConfig+0x244>)
 8002530:	681b      	ldr	r3, [r3, #0]
 8002532:	f403 3300 	and.w	r3, r3, #131072	@ 0x20000
 8002536:	2b00      	cmp	r3, #0
 8002538:	d06c      	beq.n	8002614 <HAL_RCC_OscConfig+0x12c>
 800253a:	687b      	ldr	r3, [r7, #4]
 800253c:	685b      	ldr	r3, [r3, #4]
 800253e:	2b00      	cmp	r3, #0
 8002540:	d168      	bne.n	8002614 <HAL_RCC_OscConfig+0x12c>
      {
        return HAL_ERROR;
 8002542:	2301      	movs	r3, #1
 8002544:	e3a2      	b.n	8002c8c <HAL_RCC_OscConfig+0x7a4>
      }
    }
    else
    {
      /* Set the new HSE configuration ---------------------------------------*/
      __HAL_RCC_HSE_CONFIG(RCC_OscInitStruct->HSEState);
 8002546:	687b      	ldr	r3, [r7, #4]
 8002548:	685b      	ldr	r3, [r3, #4]
 800254a:	f5b3 3f80 	cmp.w	r3, #65536	@ 0x10000
 800254e:	d106      	bne.n	800255e <HAL_RCC_OscConfig+0x76>
 8002550:	4b76      	ldr	r3, [pc, #472]	@ (800272c <HAL_RCC_OscConfig+0x244>)
 8002552:	681b      	ldr	r3, [r3, #0]
 8002554:	4a75      	ldr	r2, [pc, #468]	@ (800272c <HAL_RCC_OscConfig+0x244>)
 8002556:	f443 3380 	orr.w	r3, r3, #65536	@ 0x10000
 800255a:	6013      	str	r3, [r2, #0]
 800255c:	e02e      	b.n	80025bc <HAL_RCC_OscConfig+0xd4>
 800255e:	687b      	ldr	r3, [r7, #4]
 8002560:	685b      	ldr	r3, [r3, #4]
 8002562:	2b00      	cmp	r3, #0
 8002564:	d10c      	bne.n	8002580 <HAL_RCC_OscConfig+0x98>
 8002566:	4b71      	ldr	r3, [pc, #452]	@ (800272c <HAL_RCC_OscConfig+0x244>)
 8002568:	681b      	ldr	r3, [r3, #0]
 800256a:	4a70      	ldr	r2, [pc, #448]	@ (800272c <HAL_RCC_OscConfig+0x244>)
 800256c:	f423 3380 	bic.w	r3, r3, #65536	@ 0x10000
 8002570:	6013      	str	r3, [r2, #0]
 8002572:	4b6e      	ldr	r3, [pc, #440]	@ (800272c <HAL_RCC_OscConfig+0x244>)
 8002574:	681b      	ldr	r3, [r3, #0]
 8002576:	4a6d      	ldr	r2, [pc, #436]	@ (800272c <HAL_RCC_OscConfig+0x244>)
 8002578:	f423 2380 	bic.w	r3, r3, #262144	@ 0x40000
 800257c:	6013      	str	r3, [r2, #0]
 800257e:	e01d      	b.n	80025bc <HAL_RCC_OscConfig+0xd4>
 8002580:	687b      	ldr	r3, [r7, #4]
 8002582:	685b      	ldr	r3, [r3, #4]
 8002584:	f5b3 2fa0 	cmp.w	r3, #327680	@ 0x50000
 8002588:	d10c      	bne.n	80025a4 <HAL_RCC_OscConfig+0xbc>
 800258a:	4b68      	ldr	r3, [pc, #416]	@ (800272c <HAL_RCC_OscConfig+0x244>)
 800258c:	681b      	ldr	r3, [r3, #0]
 800258e:	4a67      	ldr	r2, [pc, #412]	@ (800272c <HAL_RCC_OscConfig+0x244>)
 8002590:	f443 2380 	orr.w	r3, r3, #262144	@ 0x40000
 8002594:	6013      	str	r3, [r2, #0]
 8002596:	4b65      	ldr	r3, [pc, #404]	@ (800272c <HAL_RCC_OscConfig+0x244>)
 8002598:	681b      	ldr	r3, [r3, #0]
 800259a:	4a64      	ldr	r2, [pc, #400]	@ (800272c <HAL_RCC_OscConfig+0x244>)
 800259c:	f443 3380 	orr.w	r3, r3, #65536	@ 0x10000
 80025a0:	6013      	str	r3, [r2, #0]
 80025a2:	e00b      	b.n	80025bc <HAL_RCC_OscConfig+0xd4>
 80025a4:	4b61      	ldr	r3, [pc, #388]	@ (800272c <HAL_RCC_OscConfig+0x244>)
 80025a6:	681b      	ldr	r3, [r3, #0]
 80025a8:	4a60      	ldr	r2, [pc, #384]	@ (800272c <HAL_RCC_OscConfig+0x244>)
 80025aa:	f423 3380 	bic.w	r3, r3, #65536	@ 0x10000
 80025ae:	6013      	str	r3, [r2, #0]
 80025b0:	4b5e      	ldr	r3, [pc, #376]	@ (800272c <HAL_RCC_OscConfig+0x244>)
 80025b2:	681b      	ldr	r3, [r3, #0]
 80025b4:	4a5d      	ldr	r2, [pc, #372]	@ (800272c <HAL_RCC_OscConfig+0x244>)
 80025b6:	f423 2380 	bic.w	r3, r3, #262144	@ 0x40000
 80025ba:	6013      	str	r3, [r2, #0]

      /* Check the HSE State */
      if (RCC_OscInitStruct->HSEState != RCC_HSE_OFF)
 80025bc:	687b      	ldr	r3, [r7, #4]
 80025be:	685b      	ldr	r3, [r3, #4]
 80025c0:	2b00      	cmp	r3, #0
 80025c2:	d013      	beq.n	80025ec <HAL_RCC_OscConfig+0x104>
      {
        /* Get Start Tick*/
        tickstart = HAL_GetTick();
 80025c4:	f7fe fdc8 	bl	8001158 <HAL_GetTick>
 80025c8:	6278      	str	r0, [r7, #36]	@ 0x24

        /* Wait till HSE is ready */
        while (__HAL_RCC_GET_FLAG(RCC_FLAG_HSERDY) == 0U)
 80025ca:	e008      	b.n	80025de <HAL_RCC_OscConfig+0xf6>
        {
          if ((uint32_t)(HAL_GetTick() - tickstart) > HSE_TIMEOUT_VALUE)
 80025cc:	f7fe fdc4 	bl	8001158 <HAL_GetTick>
 80025d0:	4602      	mov	r2, r0
 80025d2:	6a7b      	ldr	r3, [r7, #36]	@ 0x24
 80025d4:	1ad3      	subs	r3, r2, r3
 80025d6:	2b64      	cmp	r3, #100	@ 0x64
 80025d8:	d901      	bls.n	80025de <HAL_RCC_OscConfig+0xf6>
          {
            return HAL_TIMEOUT;
 80025da:	2303      	movs	r3, #3
 80025dc:	e356      	b.n	8002c8c <HAL_RCC_OscConfig+0x7a4>
        while (__HAL_RCC_GET_FLAG(RCC_FLAG_HSERDY) == 0U)
 80025de:	4b53      	ldr	r3, [pc, #332]	@ (800272c <HAL_RCC_OscConfig+0x244>)
 80025e0:	681b      	ldr	r3, [r3, #0]
 80025e2:	f403 3300 	and.w	r3, r3, #131072	@ 0x20000
 80025e6:	2b00      	cmp	r3, #0
 80025e8:	d0f0      	beq.n	80025cc <HAL_RCC_OscConfig+0xe4>
 80025ea:	e014      	b.n	8002616 <HAL_RCC_OscConfig+0x12e>
        }
      }
      else
      {
        /* Get Start Tick*/
        tickstart = HAL_GetTick();
 80025ec:	f7fe fdb4 	bl	8001158 <HAL_GetTick>
 80025f0:	6278      	str	r0, [r7, #36]	@ 0x24

        /* Wait till HSE is disabled */
        while (__HAL_RCC_GET_FLAG(RCC_FLAG_HSERDY) != 0U)
 80025f2:	e008      	b.n	8002606 <HAL_RCC_OscConfig+0x11e>
        {
          if ((uint32_t)(HAL_GetTick() - tickstart) > HSE_TIMEOUT_VALUE)
 80025f4:	f7fe fdb0 	bl	8001158 <HAL_GetTick>
 80025f8:	4602      	mov	r2, r0
 80025fa:	6a7b      	ldr	r3, [r7, #36]	@ 0x24
 80025fc:	1ad3      	subs	r3, r2, r3
 80025fe:	2b64      	cmp	r3, #100	@ 0x64
 8002600:	d901      	bls.n	8002606 <HAL_RCC_OscConfig+0x11e>
          {
            return HAL_TIMEOUT;
 8002602:	2303      	movs	r3, #3
 8002604:	e342      	b.n	8002c8c <HAL_RCC_OscConfig+0x7a4>
        while (__HAL_RCC_GET_FLAG(RCC_FLAG_HSERDY) != 0U)
 8002606:	4b49      	ldr	r3, [pc, #292]	@ (800272c <HAL_RCC_OscConfig+0x244>)
 8002608:	681b      	ldr	r3, [r3, #0]
 800260a:	f403 3300 	and.w	r3, r3, #131072	@ 0x20000
 800260e:	2b00      	cmp	r3, #0
 8002610:	d1f0      	bne.n	80025f4 <HAL_RCC_OscConfig+0x10c>
 8002612:	e000      	b.n	8002616 <HAL_RCC_OscConfig+0x12e>
      if ((__HAL_RCC_GET_FLAG(RCC_FLAG_HSERDY) != 0U) && (RCC_OscInitStruct->HSEState == RCC_HSE_OFF))
 8002614:	bf00      	nop
        }
      }
    }
  }
  /*----------------------------- HSI Configuration --------------------------*/
  if (((RCC_OscInitStruct->OscillatorType) & RCC_OSCILLATORTYPE_HSI) == RCC_OSCILLATORTYPE_HSI)
 8002616:	687b      	ldr	r3, [r7, #4]
 8002618:	681b      	ldr	r3, [r3, #0]
 800261a:	f003 0302 	and.w	r3, r3, #2
 800261e:	2b00      	cmp	r3, #0
 8002620:	f000 808c 	beq.w	800273c <HAL_RCC_OscConfig+0x254>
    /* Check the parameters */
    assert_param(IS_RCC_HSI(RCC_OscInitStruct->HSIState));
    assert_param(IS_RCC_HSICALIBRATION_VALUE(RCC_OscInitStruct->HSICalibrationValue));

    /* When the HSI is used as system clock it will not be disabled */
    const uint32_t temp_sysclksrc = __HAL_RCC_GET_SYSCLK_SOURCE();
 8002624:	4b41      	ldr	r3, [pc, #260]	@ (800272c <HAL_RCC_OscConfig+0x244>)
 8002626:	691b      	ldr	r3, [r3, #16]
 8002628:	f003 0338 	and.w	r3, r3, #56	@ 0x38
 800262c:	623b      	str	r3, [r7, #32]
    const uint32_t temp_pllckselr = RCC->PLLCKSELR;
 800262e:	4b3f      	ldr	r3, [pc, #252]	@ (800272c <HAL_RCC_OscConfig+0x244>)
 8002630:	6a9b      	ldr	r3, [r3, #40]	@ 0x28
 8002632:	61fb      	str	r3, [r7, #28]
    if ((temp_sysclksrc == RCC_CFGR_SWS_HSI) || ((temp_sysclksrc == RCC_CFGR_SWS_PLL1) && ((temp_pllckselr & RCC_PLLCKSELR_PLLSRC) == RCC_PLLCKSELR_PLLSRC_HSI)))
 8002634:	6a3b      	ldr	r3, [r7, #32]
 8002636:	2b00      	cmp	r3, #0
 8002638:	d007      	beq.n	800264a <HAL_RCC_OscConfig+0x162>
 800263a:	6a3b      	ldr	r3, [r7, #32]
 800263c:	2b18      	cmp	r3, #24
 800263e:	d137      	bne.n	80026b0 <HAL_RCC_OscConfig+0x1c8>
 8002640:	69fb      	ldr	r3, [r7, #28]
 8002642:	f003 0303 	and.w	r3, r3, #3
 8002646:	2b00      	cmp	r3, #0
 8002648:	d132      	bne.n	80026b0 <HAL_RCC_OscConfig+0x1c8>
    {
      /* When HSI is used as system clock it will not be disabled */
      if ((__HAL_RCC_GET_FLAG(RCC_FLAG_HSIRDY) != 0U) && (RCC_OscInitStruct->HSIState == RCC_HSI_OFF))
 800264a:	4b38      	ldr	r3, [pc, #224]	@ (800272c <HAL_RCC_OscConfig+0x244>)
 800264c:	681b      	ldr	r3, [r3, #0]
 800264e:	f003 0304 	and.w	r3, r3, #4
 8002652:	2b00      	cmp	r3, #0
 8002654:	d005      	beq.n	8002662 <HAL_RCC_OscConfig+0x17a>
 8002656:	687b      	ldr	r3, [r7, #4]
 8002658:	68db      	ldr	r3, [r3, #12]
 800265a:	2b00      	cmp	r3, #0
 800265c:	d101      	bne.n	8002662 <HAL_RCC_OscConfig+0x17a>
      {
        return HAL_ERROR;
 800265e:	2301      	movs	r3, #1
 8002660:	e314      	b.n	8002c8c <HAL_RCC_OscConfig+0x7a4>
      }
      /* Otherwise, only HSI division and calibration are allowed */
      else
      {
        /* Enable the Internal High Speed oscillator (HSI, HSIDIV2, HSIDIV4, or HSIDIV8) */
        __HAL_RCC_HSI_CONFIG(RCC_OscInitStruct->HSIState);
 8002662:	4b32      	ldr	r3, [pc, #200]	@ (800272c <HAL_RCC_OscConfig+0x244>)
 8002664:	681b      	ldr	r3, [r3, #0]
 8002666:	f023 0219 	bic.w	r2, r3, #25
 800266a:	687b      	ldr	r3, [r7, #4]
 800266c:	68db      	ldr	r3, [r3, #12]
 800266e:	492f      	ldr	r1, [pc, #188]	@ (800272c <HAL_RCC_OscConfig+0x244>)
 8002670:	4313      	orrs	r3, r2
 8002672:	600b      	str	r3, [r1, #0]

        /* Get Start Tick*/
        tickstart = HAL_GetTick();
 8002674:	f7fe fd70 	bl	8001158 <HAL_GetTick>
 8002678:	6278      	str	r0, [r7, #36]	@ 0x24

        /* Wait till HSI is ready */
        while (__HAL_RCC_GET_FLAG(RCC_FLAG_HSIRDY) == 0U)
 800267a:	e008      	b.n	800268e <HAL_RCC_OscConfig+0x1a6>
        {
          if ((uint32_t)(HAL_GetTick() - tickstart) > HSI_TIMEOUT_VALUE)
 800267c:	f7fe fd6c 	bl	8001158 <HAL_GetTick>
 8002680:	4602      	mov	r2, r0
 8002682:	6a7b      	ldr	r3, [r7, #36]	@ 0x24
 8002684:	1ad3      	subs	r3, r2, r3
 8002686:	2b02      	cmp	r3, #2
 8002688:	d901      	bls.n	800268e <HAL_RCC_OscConfig+0x1a6>
          {
            return HAL_TIMEOUT;
 800268a:	2303      	movs	r3, #3
 800268c:	e2fe      	b.n	8002c8c <HAL_RCC_OscConfig+0x7a4>
        while (__HAL_RCC_GET_FLAG(RCC_FLAG_HSIRDY) == 0U)
 800268e:	4b27      	ldr	r3, [pc, #156]	@ (800272c <HAL_RCC_OscConfig+0x244>)
 8002690:	681b      	ldr	r3, [r3, #0]
 8002692:	f003 0304 	and.w	r3, r3, #4
 8002696:	2b00      	cmp	r3, #0
 8002698:	d0f0      	beq.n	800267c <HAL_RCC_OscConfig+0x194>
          }
        }
        /* Adjusts the Internal High Speed oscillator (HSI) calibration value.*/
        __HAL_RCC_HSI_CALIBRATIONVALUE_ADJUST(RCC_OscInitStruct->HSICalibrationValue);
 800269a:	4b24      	ldr	r3, [pc, #144]	@ (800272c <HAL_RCC_OscConfig+0x244>)
 800269c:	685b      	ldr	r3, [r3, #4]
 800269e:	f023 42fe 	bic.w	r2, r3, #2130706432	@ 0x7f000000
 80026a2:	687b      	ldr	r3, [r7, #4]
 80026a4:	691b      	ldr	r3, [r3, #16]
 80026a6:	061b      	lsls	r3, r3, #24
 80026a8:	4920      	ldr	r1, [pc, #128]	@ (800272c <HAL_RCC_OscConfig+0x244>)
 80026aa:	4313      	orrs	r3, r2
 80026ac:	604b      	str	r3, [r1, #4]
      if ((__HAL_RCC_GET_FLAG(RCC_FLAG_HSIRDY) != 0U) && (RCC_OscInitStruct->HSIState == RCC_HSI_OFF))
 80026ae:	e045      	b.n	800273c <HAL_RCC_OscConfig+0x254>
    }

    else
    {
      /* Check the HSI State */
      if ((RCC_OscInitStruct->HSIState) != RCC_HSI_OFF)
 80026b0:	687b      	ldr	r3, [r7, #4]
 80026b2:	68db      	ldr	r3, [r3, #12]
 80026b4:	2b00      	cmp	r3, #0
 80026b6:	d026      	beq.n	8002706 <HAL_RCC_OscConfig+0x21e>
      {
        /* Enable the Internal High Speed oscillator (HSI, HSIDIV2,HSIDIV4, or HSIDIV8) */
        __HAL_RCC_HSI_CONFIG(RCC_OscInitStruct->HSIState);
 80026b8:	4b1c      	ldr	r3, [pc, #112]	@ (800272c <HAL_RCC_OscConfig+0x244>)
 80026ba:	681b      	ldr	r3, [r3, #0]
 80026bc:	f023 0219 	bic.w	r2, r3, #25
 80026c0:	687b      	ldr	r3, [r7, #4]
 80026c2:	68db      	ldr	r3, [r3, #12]
 80026c4:	4919      	ldr	r1, [pc, #100]	@ (800272c <HAL_RCC_OscConfig+0x244>)
 80026c6:	4313      	orrs	r3, r2
 80026c8:	600b      	str	r3, [r1, #0]

        /* Get Start Tick*/
        tickstart = HAL_GetTick();
 80026ca:	f7fe fd45 	bl	8001158 <HAL_GetTick>
 80026ce:	6278      	str	r0, [r7, #36]	@ 0x24

        /* Wait till HSI is ready */
        while (__HAL_RCC_GET_FLAG(RCC_FLAG_HSIRDY) == 0U)
 80026d0:	e008      	b.n	80026e4 <HAL_RCC_OscConfig+0x1fc>
        {
          if ((HAL_GetTick() - tickstart) > HSI_TIMEOUT_VALUE)
 80026d2:	f7fe fd41 	bl	8001158 <HAL_GetTick>
 80026d6:	4602      	mov	r2, r0
 80026d8:	6a7b      	ldr	r3, [r7, #36]	@ 0x24
 80026da:	1ad3      	subs	r3, r2, r3
 80026dc:	2b02      	cmp	r3, #2
 80026de:	d901      	bls.n	80026e4 <HAL_RCC_OscConfig+0x1fc>
          {
            return HAL_TIMEOUT;
 80026e0:	2303      	movs	r3, #3
 80026e2:	e2d3      	b.n	8002c8c <HAL_RCC_OscConfig+0x7a4>
        while (__HAL_RCC_GET_FLAG(RCC_FLAG_HSIRDY) == 0U)
 80026e4:	4b11      	ldr	r3, [pc, #68]	@ (800272c <HAL_RCC_OscConfig+0x244>)
 80026e6:	681b      	ldr	r3, [r3, #0]
 80026e8:	f003 0304 	and.w	r3, r3, #4
 80026ec:	2b00      	cmp	r3, #0
 80026ee:	d0f0      	beq.n	80026d2 <HAL_RCC_OscConfig+0x1ea>
          }
        }

        /* Adjusts the Internal High Speed oscillator (HSI) calibration value.*/
        __HAL_RCC_HSI_CALIBRATIONVALUE_ADJUST(RCC_OscInitStruct->HSICalibrationValue);
 80026f0:	4b0e      	ldr	r3, [pc, #56]	@ (800272c <HAL_RCC_OscConfig+0x244>)
 80026f2:	685b      	ldr	r3, [r3, #4]
 80026f4:	f023 42fe 	bic.w	r2, r3, #2130706432	@ 0x7f000000
 80026f8:	687b      	ldr	r3, [r7, #4]
 80026fa:	691b      	ldr	r3, [r3, #16]
 80026fc:	061b      	lsls	r3, r3, #24
 80026fe:	490b      	ldr	r1, [pc, #44]	@ (800272c <HAL_RCC_OscConfig+0x244>)
 8002700:	4313      	orrs	r3, r2
 8002702:	604b      	str	r3, [r1, #4]
 8002704:	e01a      	b.n	800273c <HAL_RCC_OscConfig+0x254>
      }
      else
      {
        /* Disable the Internal High Speed oscillator (HSI). */
        __HAL_RCC_HSI_DISABLE();
 8002706:	4b09      	ldr	r3, [pc, #36]	@ (800272c <HAL_RCC_OscConfig+0x244>)
 8002708:	681b      	ldr	r3, [r3, #0]
 800270a:	4a08      	ldr	r2, [pc, #32]	@ (800272c <HAL_RCC_OscConfig+0x244>)
 800270c:	f023 0301 	bic.w	r3, r3, #1
 8002710:	6013      	str	r3, [r2, #0]

        /* Get Start Tick*/
        tickstart = HAL_GetTick();
 8002712:	f7fe fd21 	bl	8001158 <HAL_GetTick>
 8002716:	6278      	str	r0, [r7, #36]	@ 0x24

        /* Wait till HSI is disabled */
        while (__HAL_RCC_GET_FLAG(RCC_FLAG_HSIRDY) != 0U)
 8002718:	e00a      	b.n	8002730 <HAL_RCC_OscConfig+0x248>
        {
          if ((HAL_GetTick() - tickstart) > HSI_TIMEOUT_VALUE)
 800271a:	f7fe fd1d 	bl	8001158 <HAL_GetTick>
 800271e:	4602      	mov	r2, r0
 8002720:	6a7b      	ldr	r3, [r7, #36]	@ 0x24
 8002722:	1ad3      	subs	r3, r2, r3
 8002724:	2b02      	cmp	r3, #2
 8002726:	d903      	bls.n	8002730 <HAL_RCC_OscConfig+0x248>
          {
            return HAL_TIMEOUT;
 8002728:	2303      	movs	r3, #3
 800272a:	e2af      	b.n	8002c8c <HAL_RCC_OscConfig+0x7a4>
 800272c:	58024400 	.word	0x58024400
        while (__HAL_RCC_GET_FLAG(RCC_FLAG_HSIRDY) != 0U)
 8002730:	4b96      	ldr	r3, [pc, #600]	@ (800298c <HAL_RCC_OscConfig+0x4a4>)
 8002732:	681b      	ldr	r3, [r3, #0]
 8002734:	f003 0304 	and.w	r3, r3, #4
 8002738:	2b00      	cmp	r3, #0
 800273a:	d1ee      	bne.n	800271a <HAL_RCC_OscConfig+0x232>
        }
      }
    }
  }
  /*----------------------------- CSI Configuration --------------------------*/
  if (((RCC_OscInitStruct->OscillatorType) & RCC_OSCILLATORTYPE_CSI) == RCC_OSCILLATORTYPE_CSI)
 800273c:	687b      	ldr	r3, [r7, #4]
 800273e:	681b      	ldr	r3, [r3, #0]
 8002740:	f003 0310 	and.w	r3, r3, #16
 8002744:	2b00      	cmp	r3, #0
 8002746:	d06a      	beq.n	800281e <HAL_RCC_OscConfig+0x336>
    /* Check the parameters */
    assert_param(IS_RCC_CSI(RCC_OscInitStruct->CSIState));
    assert_param(IS_RCC_CSICALIBRATION_VALUE(RCC_OscInitStruct->CSICalibrationValue));

    /* When the CSI is used as system clock it will not disabled */
    const uint32_t temp_sysclksrc = __HAL_RCC_GET_SYSCLK_SOURCE();
 8002748:	4b90      	ldr	r3, [pc, #576]	@ (800298c <HAL_RCC_OscConfig+0x4a4>)
 800274a:	691b      	ldr	r3, [r3, #16]
 800274c:	f003 0338 	and.w	r3, r3, #56	@ 0x38
 8002750:	61bb      	str	r3, [r7, #24]
    const uint32_t temp_pllckselr = RCC->PLLCKSELR;
 8002752:	4b8e      	ldr	r3, [pc, #568]	@ (800298c <HAL_RCC_OscConfig+0x4a4>)
 8002754:	6a9b      	ldr	r3, [r3, #40]	@ 0x28
 8002756:	617b      	str	r3, [r7, #20]
    if ((temp_sysclksrc == RCC_CFGR_SWS_CSI) || ((temp_sysclksrc == RCC_CFGR_SWS_PLL1) && ((temp_pllckselr & RCC_PLLCKSELR_PLLSRC) == RCC_PLLCKSELR_PLLSRC_CSI)))
 8002758:	69bb      	ldr	r3, [r7, #24]
 800275a:	2b08      	cmp	r3, #8
 800275c:	d007      	beq.n	800276e <HAL_RCC_OscConfig+0x286>
 800275e:	69bb      	ldr	r3, [r7, #24]
 8002760:	2b18      	cmp	r3, #24
 8002762:	d11b      	bne.n	800279c <HAL_RCC_OscConfig+0x2b4>
 8002764:	697b      	ldr	r3, [r7, #20]
 8002766:	f003 0303 	and.w	r3, r3, #3
 800276a:	2b01      	cmp	r3, #1
 800276c:	d116      	bne.n	800279c <HAL_RCC_OscConfig+0x2b4>
    {
      /* When CSI is used as system clock it will not disabled */
      if ((__HAL_RCC_GET_FLAG(RCC_FLAG_CSIRDY) != 0U) && (RCC_OscInitStruct->CSIState != RCC_CSI_ON))
 800276e:	4b87      	ldr	r3, [pc, #540]	@ (800298c <HAL_RCC_OscConfig+0x4a4>)
 8002770:	681b      	ldr	r3, [r3, #0]
 8002772:	f403 7380 	and.w	r3, r3, #256	@ 0x100
 8002776:	2b00      	cmp	r3, #0
 8002778:	d005      	beq.n	8002786 <HAL_RCC_OscConfig+0x29e>
 800277a:	687b      	ldr	r3, [r7, #4]
 800277c:	69db      	ldr	r3, [r3, #28]
 800277e:	2b80      	cmp	r3, #128	@ 0x80
 8002780:	d001      	beq.n	8002786 <HAL_RCC_OscConfig+0x29e>
      {
        return HAL_ERROR;
 8002782:	2301      	movs	r3, #1
 8002784:	e282      	b.n	8002c8c <HAL_RCC_OscConfig+0x7a4>
      }
      /* Otherwise, just the calibration is allowed */
      else
      {
        /* Adjusts the Internal High Speed oscillator (CSI) calibration value.*/
        __HAL_RCC_CSI_CALIBRATIONVALUE_ADJUST(RCC_OscInitStruct->CSICalibrationValue);
 8002786:	4b81      	ldr	r3, [pc, #516]	@ (800298c <HAL_RCC_OscConfig+0x4a4>)
 8002788:	68db      	ldr	r3, [r3, #12]
 800278a:	f023 527c 	bic.w	r2, r3, #1056964608	@ 0x3f000000
 800278e:	687b      	ldr	r3, [r7, #4]
 8002790:	6a1b      	ldr	r3, [r3, #32]
 8002792:	061b      	lsls	r3, r3, #24
 8002794:	497d      	ldr	r1, [pc, #500]	@ (800298c <HAL_RCC_OscConfig+0x4a4>)
 8002796:	4313      	orrs	r3, r2
 8002798:	60cb      	str	r3, [r1, #12]
      if ((__HAL_RCC_GET_FLAG(RCC_FLAG_CSIRDY) != 0U) && (RCC_OscInitStruct->CSIState != RCC_CSI_ON))
 800279a:	e040      	b.n	800281e <HAL_RCC_OscConfig+0x336>
      }
    }
    else
    {
      /* Check the CSI State */
      if ((RCC_OscInitStruct->CSIState) != RCC_CSI_OFF)
 800279c:	687b      	ldr	r3, [r7, #4]
 800279e:	69db      	ldr	r3, [r3, #28]
 80027a0:	2b00      	cmp	r3, #0
 80027a2:	d023      	beq.n	80027ec <HAL_RCC_OscConfig+0x304>
      {
        /* Enable the Internal High Speed oscillator (CSI). */
        __HAL_RCC_CSI_ENABLE();
 80027a4:	4b79      	ldr	r3, [pc, #484]	@ (800298c <HAL_RCC_OscConfig+0x4a4>)
 80027a6:	681b      	ldr	r3, [r3, #0]
 80027a8:	4a78      	ldr	r2, [pc, #480]	@ (800298c <HAL_RCC_OscConfig+0x4a4>)
 80027aa:	f043 0380 	orr.w	r3, r3, #128	@ 0x80
 80027ae:	6013      	str	r3, [r2, #0]

        /* Get Start Tick*/
        tickstart = HAL_GetTick();
 80027b0:	f7fe fcd2 	bl	8001158 <HAL_GetTick>
 80027b4:	6278      	str	r0, [r7, #36]	@ 0x24

        /* Wait till CSI is ready */
        while (__HAL_RCC_GET_FLAG(RCC_FLAG_CSIRDY) == 0U)
 80027b6:	e008      	b.n	80027ca <HAL_RCC_OscConfig+0x2e2>
        {
          if ((HAL_GetTick() - tickstart) > CSI_TIMEOUT_VALUE)
 80027b8:	f7fe fcce 	bl	8001158 <HAL_GetTick>
 80027bc:	4602      	mov	r2, r0
 80027be:	6a7b      	ldr	r3, [r7, #36]	@ 0x24
 80027c0:	1ad3      	subs	r3, r2, r3
 80027c2:	2b02      	cmp	r3, #2
 80027c4:	d901      	bls.n	80027ca <HAL_RCC_OscConfig+0x2e2>
          {
            return HAL_TIMEOUT;
 80027c6:	2303      	movs	r3, #3
 80027c8:	e260      	b.n	8002c8c <HAL_RCC_OscConfig+0x7a4>
        while (__HAL_RCC_GET_FLAG(RCC_FLAG_CSIRDY) == 0U)
 80027ca:	4b70      	ldr	r3, [pc, #448]	@ (800298c <HAL_RCC_OscConfig+0x4a4>)
 80027cc:	681b      	ldr	r3, [r3, #0]
 80027ce:	f403 7380 	and.w	r3, r3, #256	@ 0x100
 80027d2:	2b00      	cmp	r3, #0
 80027d4:	d0f0      	beq.n	80027b8 <HAL_RCC_OscConfig+0x2d0>
          }
        }

        /* Adjusts the Internal High Speed oscillator (CSI) calibration value.*/
        __HAL_RCC_CSI_CALIBRATIONVALUE_ADJUST(RCC_OscInitStruct->CSICalibrationValue);
 80027d6:	4b6d      	ldr	r3, [pc, #436]	@ (800298c <HAL_RCC_OscConfig+0x4a4>)
 80027d8:	68db      	ldr	r3, [r3, #12]
 80027da:	f023 527c 	bic.w	r2, r3, #1056964608	@ 0x3f000000
 80027de:	687b      	ldr	r3, [r7, #4]
 80027e0:	6a1b      	ldr	r3, [r3, #32]
 80027e2:	061b      	lsls	r3, r3, #24
 80027e4:	4969      	ldr	r1, [pc, #420]	@ (800298c <HAL_RCC_OscConfig+0x4a4>)
 80027e6:	4313      	orrs	r3, r2
 80027e8:	60cb      	str	r3, [r1, #12]
 80027ea:	e018      	b.n	800281e <HAL_RCC_OscConfig+0x336>
      }
      else
      {
        /* Disable the Internal High Speed oscillator (CSI). */
        __HAL_RCC_CSI_DISABLE();
 80027ec:	4b67      	ldr	r3, [pc, #412]	@ (800298c <HAL_RCC_OscConfig+0x4a4>)
 80027ee:	681b      	ldr	r3, [r3, #0]
 80027f0:	4a66      	ldr	r2, [pc, #408]	@ (800298c <HAL_RCC_OscConfig+0x4a4>)
 80027f2:	f023 0380 	bic.w	r3, r3, #128	@ 0x80
 80027f6:	6013      	str	r3, [r2, #0]

        /* Get Start Tick*/
        tickstart = HAL_GetTick();
 80027f8:	f7fe fcae 	bl	8001158 <HAL_GetTick>
 80027fc:	6278      	str	r0, [r7, #36]	@ 0x24

        /* Wait till CSI is disabled */
        while (__HAL_RCC_GET_FLAG(RCC_FLAG_CSIRDY) != 0U)
 80027fe:	e008      	b.n	8002812 <HAL_RCC_OscConfig+0x32a>
        {
          if ((HAL_GetTick() - tickstart) > CSI_TIMEOUT_VALUE)
 8002800:	f7fe fcaa 	bl	8001158 <HAL_GetTick>
 8002804:	4602      	mov	r2, r0
 8002806:	6a7b      	ldr	r3, [r7, #36]	@ 0x24
 8002808:	1ad3      	subs	r3, r2, r3
 800280a:	2b02      	cmp	r3, #2
 800280c:	d901      	bls.n	8002812 <HAL_RCC_OscConfig+0x32a>
          {
            return HAL_TIMEOUT;
 800280e:	2303      	movs	r3, #3
 8002810:	e23c      	b.n	8002c8c <HAL_RCC_OscConfig+0x7a4>
        while (__HAL_RCC_GET_FLAG(RCC_FLAG_CSIRDY) != 0U)
 8002812:	4b5e      	ldr	r3, [pc, #376]	@ (800298c <HAL_RCC_OscConfig+0x4a4>)
 8002814:	681b      	ldr	r3, [r3, #0]
 8002816:	f403 7380 	and.w	r3, r3, #256	@ 0x100
 800281a:	2b00      	cmp	r3, #0
 800281c:	d1f0      	bne.n	8002800 <HAL_RCC_OscConfig+0x318>
        }
      }
    }
  }
  /*------------------------------ LSI Configuration -------------------------*/
  if (((RCC_OscInitStruct->OscillatorType) & RCC_OSCILLATORTYPE_LSI) == RCC_OSCILLATORTYPE_LSI)
 800281e:	687b      	ldr	r3, [r7, #4]
 8002820:	681b      	ldr	r3, [r3, #0]
 8002822:	f003 0308 	and.w	r3, r3, #8
 8002826:	2b00      	cmp	r3, #0
 8002828:	d036      	beq.n	8002898 <HAL_RCC_OscConfig+0x3b0>
  {
    /* Check the parameters */
    assert_param(IS_RCC_LSI(RCC_OscInitStruct->LSIState));

    /* Check the LSI State */
    if ((RCC_OscInitStruct->LSIState) != RCC_LSI_OFF)
 800282a:	687b      	ldr	r3, [r7, #4]
 800282c:	695b      	ldr	r3, [r3, #20]
 800282e:	2b00      	cmp	r3, #0
 8002830:	d019      	beq.n	8002866 <HAL_RCC_OscConfig+0x37e>
    {
      /* Enable the Internal Low Speed oscillator (LSI). */
      __HAL_RCC_LSI_ENABLE();
 8002832:	4b56      	ldr	r3, [pc, #344]	@ (800298c <HAL_RCC_OscConfig+0x4a4>)
 8002834:	6f5b      	ldr	r3, [r3, #116]	@ 0x74
 8002836:	4a55      	ldr	r2, [pc, #340]	@ (800298c <HAL_RCC_OscConfig+0x4a4>)
 8002838:	f043 0301 	orr.w	r3, r3, #1
 800283c:	6753      	str	r3, [r2, #116]	@ 0x74

      /* Get Start Tick*/
      tickstart = HAL_GetTick();
 800283e:	f7fe fc8b 	bl	8001158 <HAL_GetTick>
 8002842:	6278      	str	r0, [r7, #36]	@ 0x24

      /* Wait till LSI is ready */
      while (__HAL_RCC_GET_FLAG(RCC_FLAG_LSIRDY) == 0U)
 8002844:	e008      	b.n	8002858 <HAL_RCC_OscConfig+0x370>
      {
        if ((HAL_GetTick() - tickstart) > LSI_TIMEOUT_VALUE)
 8002846:	f7fe fc87 	bl	8001158 <HAL_GetTick>
 800284a:	4602      	mov	r2, r0
 800284c:	6a7b      	ldr	r3, [r7, #36]	@ 0x24
 800284e:	1ad3      	subs	r3, r2, r3
 8002850:	2b02      	cmp	r3, #2
 8002852:	d901      	bls.n	8002858 <HAL_RCC_OscConfig+0x370>
        {
          return HAL_TIMEOUT;
 8002854:	2303      	movs	r3, #3
 8002856:	e219      	b.n	8002c8c <HAL_RCC_OscConfig+0x7a4>
      while (__HAL_RCC_GET_FLAG(RCC_FLAG_LSIRDY) == 0U)
 8002858:	4b4c      	ldr	r3, [pc, #304]	@ (800298c <HAL_RCC_OscConfig+0x4a4>)
 800285a:	6f5b      	ldr	r3, [r3, #116]	@ 0x74
 800285c:	f003 0302 	and.w	r3, r3, #2
 8002860:	2b00      	cmp	r3, #0
 8002862:	d0f0      	beq.n	8002846 <HAL_RCC_OscConfig+0x35e>
 8002864:	e018      	b.n	8002898 <HAL_RCC_OscConfig+0x3b0>
      }
    }
    else
    {
      /* Disable the Internal Low Speed oscillator (LSI). */
      __HAL_RCC_LSI_DISABLE();
 8002866:	4b49      	ldr	r3, [pc, #292]	@ (800298c <HAL_RCC_OscConfig+0x4a4>)
 8002868:	6f5b      	ldr	r3, [r3, #116]	@ 0x74
 800286a:	4a48      	ldr	r2, [pc, #288]	@ (800298c <HAL_RCC_OscConfig+0x4a4>)
 800286c:	f023 0301 	bic.w	r3, r3, #1
 8002870:	6753      	str	r3, [r2, #116]	@ 0x74

      /* Get Start Tick*/
      tickstart = HAL_GetTick();
 8002872:	f7fe fc71 	bl	8001158 <HAL_GetTick>
 8002876:	6278      	str	r0, [r7, #36]	@ 0x24

      /* Wait till LSI is ready */
      while (__HAL_RCC_GET_FLAG(RCC_FLAG_LSIRDY) != 0U)
 8002878:	e008      	b.n	800288c <HAL_RCC_OscConfig+0x3a4>
      {
        if ((HAL_GetTick() - tickstart) > LSI_TIMEOUT_VALUE)
 800287a:	f7fe fc6d 	bl	8001158 <HAL_GetTick>
 800287e:	4602      	mov	r2, r0
 8002880:	6a7b      	ldr	r3, [r7, #36]	@ 0x24
 8002882:	1ad3      	subs	r3, r2, r3
 8002884:	2b02      	cmp	r3, #2
 8002886:	d901      	bls.n	800288c <HAL_RCC_OscConfig+0x3a4>
        {
          return HAL_TIMEOUT;
 8002888:	2303      	movs	r3, #3
 800288a:	e1ff      	b.n	8002c8c <HAL_RCC_OscConfig+0x7a4>
      while (__HAL_RCC_GET_FLAG(RCC_FLAG_LSIRDY) != 0U)
 800288c:	4b3f      	ldr	r3, [pc, #252]	@ (800298c <HAL_RCC_OscConfig+0x4a4>)
 800288e:	6f5b      	ldr	r3, [r3, #116]	@ 0x74
 8002890:	f003 0302 	and.w	r3, r3, #2
 8002894:	2b00      	cmp	r3, #0
 8002896:	d1f0      	bne.n	800287a <HAL_RCC_OscConfig+0x392>
      }
    }
  }

  /*------------------------------ HSI48 Configuration -------------------------*/
  if (((RCC_OscInitStruct->OscillatorType) & RCC_OSCILLATORTYPE_HSI48) == RCC_OSCILLATORTYPE_HSI48)
 8002898:	687b      	ldr	r3, [r7, #4]
 800289a:	681b      	ldr	r3, [r3, #0]
 800289c:	f003 0320 	and.w	r3, r3, #32
 80028a0:	2b00      	cmp	r3, #0
 80028a2:	d036      	beq.n	8002912 <HAL_RCC_OscConfig+0x42a>
  {
    /* Check the parameters */
    assert_param(IS_RCC_HSI48(RCC_OscInitStruct->HSI48State));

    /* Check the HSI48 State */
    if ((RCC_OscInitStruct->HSI48State) != RCC_HSI48_OFF)
 80028a4:	687b      	ldr	r3, [r7, #4]
 80028a6:	699b      	ldr	r3, [r3, #24]
 80028a8:	2b00      	cmp	r3, #0
 80028aa:	d019      	beq.n	80028e0 <HAL_RCC_OscConfig+0x3f8>
    {
      /* Enable the Internal Low Speed oscillator (HSI48). */
      __HAL_RCC_HSI48_ENABLE();
 80028ac:	4b37      	ldr	r3, [pc, #220]	@ (800298c <HAL_RCC_OscConfig+0x4a4>)
 80028ae:	681b      	ldr	r3, [r3, #0]
 80028b0:	4a36      	ldr	r2, [pc, #216]	@ (800298c <HAL_RCC_OscConfig+0x4a4>)
 80028b2:	f443 5380 	orr.w	r3, r3, #4096	@ 0x1000
 80028b6:	6013      	str	r3, [r2, #0]

      /* Get time-out */
      tickstart = HAL_GetTick();
 80028b8:	f7fe fc4e 	bl	8001158 <HAL_GetTick>
 80028bc:	6278      	str	r0, [r7, #36]	@ 0x24

      /* Wait till HSI48 is ready */
      while (__HAL_RCC_GET_FLAG(RCC_FLAG_HSI48RDY) == 0U)
 80028be:	e008      	b.n	80028d2 <HAL_RCC_OscConfig+0x3ea>
      {
        if ((HAL_GetTick() - tickstart) > HSI48_TIMEOUT_VALUE)
 80028c0:	f7fe fc4a 	bl	8001158 <HAL_GetTick>
 80028c4:	4602      	mov	r2, r0
 80028c6:	6a7b      	ldr	r3, [r7, #36]	@ 0x24
 80028c8:	1ad3      	subs	r3, r2, r3
 80028ca:	2b02      	cmp	r3, #2
 80028cc:	d901      	bls.n	80028d2 <HAL_RCC_OscConfig+0x3ea>
        {
          return HAL_TIMEOUT;
 80028ce:	2303      	movs	r3, #3
 80028d0:	e1dc      	b.n	8002c8c <HAL_RCC_OscConfig+0x7a4>
      while (__HAL_RCC_GET_FLAG(RCC_FLAG_HSI48RDY) == 0U)
 80028d2:	4b2e      	ldr	r3, [pc, #184]	@ (800298c <HAL_RCC_OscConfig+0x4a4>)
 80028d4:	681b      	ldr	r3, [r3, #0]
 80028d6:	f403 5300 	and.w	r3, r3, #8192	@ 0x2000
 80028da:	2b00      	cmp	r3, #0
 80028dc:	d0f0      	beq.n	80028c0 <HAL_RCC_OscConfig+0x3d8>
 80028de:	e018      	b.n	8002912 <HAL_RCC_OscConfig+0x42a>
      }
    }
    else
    {
      /* Disable the Internal Low Speed oscillator (HSI48). */
      __HAL_RCC_HSI48_DISABLE();
 80028e0:	4b2a      	ldr	r3, [pc, #168]	@ (800298c <HAL_RCC_OscConfig+0x4a4>)
 80028e2:	681b      	ldr	r3, [r3, #0]
 80028e4:	4a29      	ldr	r2, [pc, #164]	@ (800298c <HAL_RCC_OscConfig+0x4a4>)
 80028e6:	f423 5380 	bic.w	r3, r3, #4096	@ 0x1000
 80028ea:	6013      	str	r3, [r2, #0]

      /* Get time-out */
      tickstart = HAL_GetTick();
 80028ec:	f7fe fc34 	bl	8001158 <HAL_GetTick>
 80028f0:	6278      	str	r0, [r7, #36]	@ 0x24

      /* Wait till HSI48 is ready */
      while (__HAL_RCC_GET_FLAG(RCC_FLAG_HSI48RDY) != 0U)
 80028f2:	e008      	b.n	8002906 <HAL_RCC_OscConfig+0x41e>
      {
        if ((HAL_GetTick() - tickstart) > HSI48_TIMEOUT_VALUE)
 80028f4:	f7fe fc30 	bl	8001158 <HAL_GetTick>
 80028f8:	4602      	mov	r2, r0
 80028fa:	6a7b      	ldr	r3, [r7, #36]	@ 0x24
 80028fc:	1ad3      	subs	r3, r2, r3
 80028fe:	2b02      	cmp	r3, #2
 8002900:	d901      	bls.n	8002906 <HAL_RCC_OscConfig+0x41e>
        {
          return HAL_TIMEOUT;
 8002902:	2303      	movs	r3, #3
 8002904:	e1c2      	b.n	8002c8c <HAL_RCC_OscConfig+0x7a4>
      while (__HAL_RCC_GET_FLAG(RCC_FLAG_HSI48RDY) != 0U)
 8002906:	4b21      	ldr	r3, [pc, #132]	@ (800298c <HAL_RCC_OscConfig+0x4a4>)
 8002908:	681b      	ldr	r3, [r3, #0]
 800290a:	f403 5300 	and.w	r3, r3, #8192	@ 0x2000
 800290e:	2b00      	cmp	r3, #0
 8002910:	d1f0      	bne.n	80028f4 <HAL_RCC_OscConfig+0x40c>
        }
      }
    }
  }
  /*------------------------------ LSE Configuration -------------------------*/
  if (((RCC_OscInitStruct->OscillatorType) & RCC_OSCILLATORTYPE_LSE) == RCC_OSCILLATORTYPE_LSE)
 8002912:	687b      	ldr	r3, [r7, #4]
 8002914:	681b      	ldr	r3, [r3, #0]
 8002916:	f003 0304 	and.w	r3, r3, #4
 800291a:	2b00      	cmp	r3, #0
 800291c:	f000 8086 	beq.w	8002a2c <HAL_RCC_OscConfig+0x544>
  {
    /* Check the parameters */
    assert_param(IS_RCC_LSE(RCC_OscInitStruct->LSEState));

    /* Enable write access to Backup domain */
    PWR->CR1 |= PWR_CR1_DBP;
 8002920:	4b1b      	ldr	r3, [pc, #108]	@ (8002990 <HAL_RCC_OscConfig+0x4a8>)
 8002922:	681b      	ldr	r3, [r3, #0]
 8002924:	4a1a      	ldr	r2, [pc, #104]	@ (8002990 <HAL_RCC_OscConfig+0x4a8>)
 8002926:	f443 7380 	orr.w	r3, r3, #256	@ 0x100
 800292a:	6013      	str	r3, [r2, #0]

    /* Wait for Backup domain Write protection disable */
    tickstart = HAL_GetTick();
 800292c:	f7fe fc14 	bl	8001158 <HAL_GetTick>
 8002930:	6278      	str	r0, [r7, #36]	@ 0x24

    while ((PWR->CR1 & PWR_CR1_DBP) == 0U)
 8002932:	e008      	b.n	8002946 <HAL_RCC_OscConfig+0x45e>
    {
      if ((HAL_GetTick() - tickstart) > RCC_DBP_TIMEOUT_VALUE)
 8002934:	f7fe fc10 	bl	8001158 <HAL_GetTick>
 8002938:	4602      	mov	r2, r0
 800293a:	6a7b      	ldr	r3, [r7, #36]	@ 0x24
 800293c:	1ad3      	subs	r3, r2, r3
 800293e:	2b64      	cmp	r3, #100	@ 0x64
 8002940:	d901      	bls.n	8002946 <HAL_RCC_OscConfig+0x45e>
      {
        return HAL_TIMEOUT;
 8002942:	2303      	movs	r3, #3
 8002944:	e1a2      	b.n	8002c8c <HAL_RCC_OscConfig+0x7a4>
    while ((PWR->CR1 & PWR_CR1_DBP) == 0U)
 8002946:	4b12      	ldr	r3, [pc, #72]	@ (8002990 <HAL_RCC_OscConfig+0x4a8>)
 8002948:	681b      	ldr	r3, [r3, #0]
 800294a:	f403 7380 	and.w	r3, r3, #256	@ 0x100
 800294e:	2b00      	cmp	r3, #0
 8002950:	d0f0      	beq.n	8002934 <HAL_RCC_OscConfig+0x44c>
      }
    }

    /* Set the new LSE configuration -----------------------------------------*/
    __HAL_RCC_LSE_CONFIG(RCC_OscInitStruct->LSEState);
 8002952:	687b      	ldr	r3, [r7, #4]
 8002954:	689b      	ldr	r3, [r3, #8]
 8002956:	2b01      	cmp	r3, #1
 8002958:	d106      	bne.n	8002968 <HAL_RCC_OscConfig+0x480>
 800295a:	4b0c      	ldr	r3, [pc, #48]	@ (800298c <HAL_RCC_OscConfig+0x4a4>)
 800295c:	6f1b      	ldr	r3, [r3, #112]	@ 0x70
 800295e:	4a0b      	ldr	r2, [pc, #44]	@ (800298c <HAL_RCC_OscConfig+0x4a4>)
 8002960:	f043 0301 	orr.w	r3, r3, #1
 8002964:	6713      	str	r3, [r2, #112]	@ 0x70
 8002966:	e032      	b.n	80029ce <HAL_RCC_OscConfig+0x4e6>
 8002968:	687b      	ldr	r3, [r7, #4]
 800296a:	689b      	ldr	r3, [r3, #8]
 800296c:	2b00      	cmp	r3, #0
 800296e:	d111      	bne.n	8002994 <HAL_RCC_OscConfig+0x4ac>
 8002970:	4b06      	ldr	r3, [pc, #24]	@ (800298c <HAL_RCC_OscConfig+0x4a4>)
 8002972:	6f1b      	ldr	r3, [r3, #112]	@ 0x70
 8002974:	4a05      	ldr	r2, [pc, #20]	@ (800298c <HAL_RCC_OscConfig+0x4a4>)
 8002976:	f023 0301 	bic.w	r3, r3, #1
 800297a:	6713      	str	r3, [r2, #112]	@ 0x70
 800297c:	4b03      	ldr	r3, [pc, #12]	@ (800298c <HAL_RCC_OscConfig+0x4a4>)
 800297e:	6f1b      	ldr	r3, [r3, #112]	@ 0x70
 8002980:	4a02      	ldr	r2, [pc, #8]	@ (800298c <HAL_RCC_OscConfig+0x4a4>)
 8002982:	f023 0304 	bic.w	r3, r3, #4
 8002986:	6713      	str	r3, [r2, #112]	@ 0x70
 8002988:	e021      	b.n	80029ce <HAL_RCC_OscConfig+0x4e6>
 800298a:	bf00      	nop
 800298c:	58024400 	.word	0x58024400
 8002990:	58024800 	.word	0x58024800
 8002994:	687b      	ldr	r3, [r7, #4]
 8002996:	689b      	ldr	r3, [r3, #8]
 8002998:	2b05      	cmp	r3, #5
 800299a:	d10c      	bne.n	80029b6 <HAL_RCC_OscConfig+0x4ce>
 800299c:	4b83      	ldr	r3, [pc, #524]	@ (8002bac <HAL_RCC_OscConfig+0x6c4>)
 800299e:	6f1b      	ldr	r3, [r3, #112]	@ 0x70
 80029a0:	4a82      	ldr	r2, [pc, #520]	@ (8002bac <HAL_RCC_OscConfig+0x6c4>)
 80029a2:	f043 0304 	orr.w	r3, r3, #4
 80029a6:	6713      	str	r3, [r2, #112]	@ 0x70
 80029a8:	4b80      	ldr	r3, [pc, #512]	@ (8002bac <HAL_RCC_OscConfig+0x6c4>)
 80029aa:	6f1b      	ldr	r3, [r3, #112]	@ 0x70
 80029ac:	4a7f      	ldr	r2, [pc, #508]	@ (8002bac <HAL_RCC_OscConfig+0x6c4>)
 80029ae:	f043 0301 	orr.w	r3, r3, #1
 80029b2:	6713      	str	r3, [r2, #112]	@ 0x70
 80029b4:	e00b      	b.n	80029ce <HAL_RCC_OscConfig+0x4e6>
 80029b6:	4b7d      	ldr	r3, [pc, #500]	@ (8002bac <HAL_RCC_OscConfig+0x6c4>)
 80029b8:	6f1b      	ldr	r3, [r3, #112]	@ 0x70
 80029ba:	4a7c      	ldr	r2, [pc, #496]	@ (8002bac <HAL_RCC_OscConfig+0x6c4>)
 80029bc:	f023 0301 	bic.w	r3, r3, #1
 80029c0:	6713      	str	r3, [r2, #112]	@ 0x70
 80029c2:	4b7a      	ldr	r3, [pc, #488]	@ (8002bac <HAL_RCC_OscConfig+0x6c4>)
 80029c4:	6f1b      	ldr	r3, [r3, #112]	@ 0x70
 80029c6:	4a79      	ldr	r2, [pc, #484]	@ (8002bac <HAL_RCC_OscConfig+0x6c4>)
 80029c8:	f023 0304 	bic.w	r3, r3, #4
 80029cc:	6713      	str	r3, [r2, #112]	@ 0x70
    /* Check the LSE State */
    if ((RCC_OscInitStruct->LSEState) != RCC_LSE_OFF)
 80029ce:	687b      	ldr	r3, [r7, #4]
 80029d0:	689b      	ldr	r3, [r3, #8]
 80029d2:	2b00      	cmp	r3, #0
 80029d4:	d015      	beq.n	8002a02 <HAL_RCC_OscConfig+0x51a>
    {
      /* Get Start Tick*/
      tickstart = HAL_GetTick();
 80029d6:	f7fe fbbf 	bl	8001158 <HAL_GetTick>
 80029da:	6278      	str	r0, [r7, #36]	@ 0x24

      /* Wait till LSE is ready */
      while (__HAL_RCC_GET_FLAG(RCC_FLAG_LSERDY) == 0U)
 80029dc:	e00a      	b.n	80029f4 <HAL_RCC_OscConfig+0x50c>
      {
        if ((HAL_GetTick() - tickstart) > RCC_LSE_TIMEOUT_VALUE)
 80029de:	f7fe fbbb 	bl	8001158 <HAL_GetTick>
 80029e2:	4602      	mov	r2, r0
 80029e4:	6a7b      	ldr	r3, [r7, #36]	@ 0x24
 80029e6:	1ad3      	subs	r3, r2, r3
 80029e8:	f241 3288 	movw	r2, #5000	@ 0x1388
 80029ec:	4293      	cmp	r3, r2
 80029ee:	d901      	bls.n	80029f4 <HAL_RCC_OscConfig+0x50c>
        {
          return HAL_TIMEOUT;
 80029f0:	2303      	movs	r3, #3
 80029f2:	e14b      	b.n	8002c8c <HAL_RCC_OscConfig+0x7a4>
      while (__HAL_RCC_GET_FLAG(RCC_FLAG_LSERDY) == 0U)
 80029f4:	4b6d      	ldr	r3, [pc, #436]	@ (8002bac <HAL_RCC_OscConfig+0x6c4>)
 80029f6:	6f1b      	ldr	r3, [r3, #112]	@ 0x70
 80029f8:	f003 0302 	and.w	r3, r3, #2
 80029fc:	2b00      	cmp	r3, #0
 80029fe:	d0ee      	beq.n	80029de <HAL_RCC_OscConfig+0x4f6>
 8002a00:	e014      	b.n	8002a2c <HAL_RCC_OscConfig+0x544>
      }
    }
    else
    {
      /* Get Start Tick*/
      tickstart = HAL_GetTick();
 8002a02:	f7fe fba9 	bl	8001158 <HAL_GetTick>
 8002a06:	6278      	str	r0, [r7, #36]	@ 0x24

      /* Wait till LSE is disabled */
      while (__HAL_RCC_GET_FLAG(RCC_FLAG_LSERDY) != 0U)
 8002a08:	e00a      	b.n	8002a20 <HAL_RCC_OscConfig+0x538>
      {
        if ((HAL_GetTick() - tickstart) > RCC_LSE_TIMEOUT_VALUE)
 8002a0a:	f7fe fba5 	bl	8001158 <HAL_GetTick>
 8002a0e:	4602      	mov	r2, r0
 8002a10:	6a7b      	ldr	r3, [r7, #36]	@ 0x24
 8002a12:	1ad3      	subs	r3, r2, r3
 8002a14:	f241 3288 	movw	r2, #5000	@ 0x1388
 8002a18:	4293      	cmp	r3, r2
 8002a1a:	d901      	bls.n	8002a20 <HAL_RCC_OscConfig+0x538>
        {
          return HAL_TIMEOUT;
 8002a1c:	2303      	movs	r3, #3
 8002a1e:	e135      	b.n	8002c8c <HAL_RCC_OscConfig+0x7a4>
      while (__HAL_RCC_GET_FLAG(RCC_FLAG_LSERDY) != 0U)
 8002a20:	4b62      	ldr	r3, [pc, #392]	@ (8002bac <HAL_RCC_OscConfig+0x6c4>)
 8002a22:	6f1b      	ldr	r3, [r3, #112]	@ 0x70
 8002a24:	f003 0302 	and.w	r3, r3, #2
 8002a28:	2b00      	cmp	r3, #0
 8002a2a:	d1ee      	bne.n	8002a0a <HAL_RCC_OscConfig+0x522>
    }
  }
  /*-------------------------------- PLL Configuration -----------------------*/
  /* Check the parameters */
  assert_param(IS_RCC_PLL(RCC_OscInitStruct->PLL.PLLState));
  if ((RCC_OscInitStruct->PLL.PLLState) != RCC_PLL_NONE)
 8002a2c:	687b      	ldr	r3, [r7, #4]
 8002a2e:	6a5b      	ldr	r3, [r3, #36]	@ 0x24
 8002a30:	2b00      	cmp	r3, #0
 8002a32:	f000 812a 	beq.w	8002c8a <HAL_RCC_OscConfig+0x7a2>
  {
    /* Check if the PLL is used as system clock or not */
    if (__HAL_RCC_GET_SYSCLK_SOURCE() != RCC_CFGR_SWS_PLL1)
 8002a36:	4b5d      	ldr	r3, [pc, #372]	@ (8002bac <HAL_RCC_OscConfig+0x6c4>)
 8002a38:	691b      	ldr	r3, [r3, #16]
 8002a3a:	f003 0338 	and.w	r3, r3, #56	@ 0x38
 8002a3e:	2b18      	cmp	r3, #24
 8002a40:	f000 80ba 	beq.w	8002bb8 <HAL_RCC_OscConfig+0x6d0>
    {
      if ((RCC_OscInitStruct->PLL.PLLState) == RCC_PLL_ON)
 8002a44:	687b      	ldr	r3, [r7, #4]
 8002a46:	6a5b      	ldr	r3, [r3, #36]	@ 0x24
 8002a48:	2b02      	cmp	r3, #2
 8002a4a:	f040 8095 	bne.w	8002b78 <HAL_RCC_OscConfig+0x690>
        assert_param(IS_RCC_PLLQ_VALUE(RCC_OscInitStruct->PLL.PLLQ));
        assert_param(IS_RCC_PLLR_VALUE(RCC_OscInitStruct->PLL.PLLR));
        assert_param(IS_RCC_PLLFRACN_VALUE(RCC_OscInitStruct->PLL.PLLFRACN));

        /* Disable the main PLL. */
        __HAL_RCC_PLL_DISABLE();
 8002a4e:	4b57      	ldr	r3, [pc, #348]	@ (8002bac <HAL_RCC_OscConfig+0x6c4>)
 8002a50:	681b      	ldr	r3, [r3, #0]
 8002a52:	4a56      	ldr	r2, [pc, #344]	@ (8002bac <HAL_RCC_OscConfig+0x6c4>)
 8002a54:	f023 7380 	bic.w	r3, r3, #16777216	@ 0x1000000
 8002a58:	6013      	str	r3, [r2, #0]

        /* Get Start Tick*/
        tickstart = HAL_GetTick();
 8002a5a:	f7fe fb7d 	bl	8001158 <HAL_GetTick>
 8002a5e:	6278      	str	r0, [r7, #36]	@ 0x24

        /* Wait till PLL is disabled */
        while (__HAL_RCC_GET_FLAG(RCC_FLAG_PLLRDY) != 0U)
 8002a60:	e008      	b.n	8002a74 <HAL_RCC_OscConfig+0x58c>
        {
          if ((HAL_GetTick() - tickstart) > PLL_TIMEOUT_VALUE)
 8002a62:	f7fe fb79 	bl	8001158 <HAL_GetTick>
 8002a66:	4602      	mov	r2, r0
 8002a68:	6a7b      	ldr	r3, [r7, #36]	@ 0x24
 8002a6a:	1ad3      	subs	r3, r2, r3
 8002a6c:	2b02      	cmp	r3, #2
 8002a6e:	d901      	bls.n	8002a74 <HAL_RCC_OscConfig+0x58c>
          {
            return HAL_TIMEOUT;
 8002a70:	2303      	movs	r3, #3
 8002a72:	e10b      	b.n	8002c8c <HAL_RCC_OscConfig+0x7a4>
        while (__HAL_RCC_GET_FLAG(RCC_FLAG_PLLRDY) != 0U)
 8002a74:	4b4d      	ldr	r3, [pc, #308]	@ (8002bac <HAL_RCC_OscConfig+0x6c4>)
 8002a76:	681b      	ldr	r3, [r3, #0]
 8002a78:	f003 7300 	and.w	r3, r3, #33554432	@ 0x2000000
 8002a7c:	2b00      	cmp	r3, #0
 8002a7e:	d1f0      	bne.n	8002a62 <HAL_RCC_OscConfig+0x57a>
          }
        }

        /* Configure the main PLL clock source, multiplication and division factors. */
        __HAL_RCC_PLL_CONFIG(RCC_OscInitStruct->PLL.PLLSource,
 8002a80:	4b4a      	ldr	r3, [pc, #296]	@ (8002bac <HAL_RCC_OscConfig+0x6c4>)
 8002a82:	6a9a      	ldr	r2, [r3, #40]	@ 0x28
 8002a84:	4b4a      	ldr	r3, [pc, #296]	@ (8002bb0 <HAL_RCC_OscConfig+0x6c8>)
 8002a86:	4013      	ands	r3, r2
 8002a88:	687a      	ldr	r2, [r7, #4]
 8002a8a:	6a91      	ldr	r1, [r2, #40]	@ 0x28
 8002a8c:	687a      	ldr	r2, [r7, #4]
 8002a8e:	6ad2      	ldr	r2, [r2, #44]	@ 0x2c
 8002a90:	0112      	lsls	r2, r2, #4
 8002a92:	430a      	orrs	r2, r1
 8002a94:	4945      	ldr	r1, [pc, #276]	@ (8002bac <HAL_RCC_OscConfig+0x6c4>)
 8002a96:	4313      	orrs	r3, r2
 8002a98:	628b      	str	r3, [r1, #40]	@ 0x28
 8002a9a:	687b      	ldr	r3, [r7, #4]
 8002a9c:	6b1b      	ldr	r3, [r3, #48]	@ 0x30
 8002a9e:	3b01      	subs	r3, #1
 8002aa0:	f3c3 0208 	ubfx	r2, r3, #0, #9
 8002aa4:	687b      	ldr	r3, [r7, #4]
 8002aa6:	6b5b      	ldr	r3, [r3, #52]	@ 0x34
 8002aa8:	3b01      	subs	r3, #1
 8002aaa:	025b      	lsls	r3, r3, #9
 8002aac:	b29b      	uxth	r3, r3
 8002aae:	431a      	orrs	r2, r3
 8002ab0:	687b      	ldr	r3, [r7, #4]
 8002ab2:	6b9b      	ldr	r3, [r3, #56]	@ 0x38
 8002ab4:	3b01      	subs	r3, #1
 8002ab6:	041b      	lsls	r3, r3, #16
 8002ab8:	f403 03fe 	and.w	r3, r3, #8323072	@ 0x7f0000
 8002abc:	431a      	orrs	r2, r3
 8002abe:	687b      	ldr	r3, [r7, #4]
 8002ac0:	6bdb      	ldr	r3, [r3, #60]	@ 0x3c
 8002ac2:	3b01      	subs	r3, #1
 8002ac4:	061b      	lsls	r3, r3, #24
 8002ac6:	f003 43fe 	and.w	r3, r3, #2130706432	@ 0x7f000000
 8002aca:	4938      	ldr	r1, [pc, #224]	@ (8002bac <HAL_RCC_OscConfig+0x6c4>)
 8002acc:	4313      	orrs	r3, r2
 8002ace:	630b      	str	r3, [r1, #48]	@ 0x30
                             RCC_OscInitStruct->PLL.PLLP,
                             RCC_OscInitStruct->PLL.PLLQ,
                             RCC_OscInitStruct->PLL.PLLR);

        /* Disable PLLFRACN . */
        __HAL_RCC_PLLFRACN_DISABLE();
 8002ad0:	4b36      	ldr	r3, [pc, #216]	@ (8002bac <HAL_RCC_OscConfig+0x6c4>)
 8002ad2:	6adb      	ldr	r3, [r3, #44]	@ 0x2c
 8002ad4:	4a35      	ldr	r2, [pc, #212]	@ (8002bac <HAL_RCC_OscConfig+0x6c4>)
 8002ad6:	f023 0301 	bic.w	r3, r3, #1
 8002ada:	62d3      	str	r3, [r2, #44]	@ 0x2c

        /* Configure PLL PLL1FRACN */
        __HAL_RCC_PLLFRACN_CONFIG(RCC_OscInitStruct->PLL.PLLFRACN);
 8002adc:	4b33      	ldr	r3, [pc, #204]	@ (8002bac <HAL_RCC_OscConfig+0x6c4>)
 8002ade:	6b5a      	ldr	r2, [r3, #52]	@ 0x34
 8002ae0:	4b34      	ldr	r3, [pc, #208]	@ (8002bb4 <HAL_RCC_OscConfig+0x6cc>)
 8002ae2:	4013      	ands	r3, r2
 8002ae4:	687a      	ldr	r2, [r7, #4]
 8002ae6:	6c92      	ldr	r2, [r2, #72]	@ 0x48
 8002ae8:	00d2      	lsls	r2, r2, #3
 8002aea:	4930      	ldr	r1, [pc, #192]	@ (8002bac <HAL_RCC_OscConfig+0x6c4>)
 8002aec:	4313      	orrs	r3, r2
 8002aee:	634b      	str	r3, [r1, #52]	@ 0x34

        /* Select PLL1 input reference frequency range: VCI */
        __HAL_RCC_PLL_VCIRANGE(RCC_OscInitStruct->PLL.PLLRGE) ;
 8002af0:	4b2e      	ldr	r3, [pc, #184]	@ (8002bac <HAL_RCC_OscConfig+0x6c4>)
 8002af2:	6adb      	ldr	r3, [r3, #44]	@ 0x2c
 8002af4:	f023 020c 	bic.w	r2, r3, #12
 8002af8:	687b      	ldr	r3, [r7, #4]
 8002afa:	6c1b      	ldr	r3, [r3, #64]	@ 0x40
 8002afc:	492b      	ldr	r1, [pc, #172]	@ (8002bac <HAL_RCC_OscConfig+0x6c4>)
 8002afe:	4313      	orrs	r3, r2
 8002b00:	62cb      	str	r3, [r1, #44]	@ 0x2c

        /* Select PLL1 output frequency range : VCO */
        __HAL_RCC_PLL_VCORANGE(RCC_OscInitStruct->PLL.PLLVCOSEL) ;
 8002b02:	4b2a      	ldr	r3, [pc, #168]	@ (8002bac <HAL_RCC_OscConfig+0x6c4>)
 8002b04:	6adb      	ldr	r3, [r3, #44]	@ 0x2c
 8002b06:	f023 0202 	bic.w	r2, r3, #2
 8002b0a:	687b      	ldr	r3, [r7, #4]
 8002b0c:	6c5b      	ldr	r3, [r3, #68]	@ 0x44
 8002b0e:	4927      	ldr	r1, [pc, #156]	@ (8002bac <HAL_RCC_OscConfig+0x6c4>)
 8002b10:	4313      	orrs	r3, r2
 8002b12:	62cb      	str	r3, [r1, #44]	@ 0x2c

        /* Enable PLL System Clock output. */
        __HAL_RCC_PLLCLKOUT_ENABLE(RCC_PLL1_DIVP);
 8002b14:	4b25      	ldr	r3, [pc, #148]	@ (8002bac <HAL_RCC_OscConfig+0x6c4>)
 8002b16:	6adb      	ldr	r3, [r3, #44]	@ 0x2c
 8002b18:	4a24      	ldr	r2, [pc, #144]	@ (8002bac <HAL_RCC_OscConfig+0x6c4>)
 8002b1a:	f443 3380 	orr.w	r3, r3, #65536	@ 0x10000
 8002b1e:	62d3      	str	r3, [r2, #44]	@ 0x2c

        /* Enable PLL1Q Clock output. */
        __HAL_RCC_PLLCLKOUT_ENABLE(RCC_PLL1_DIVQ);
 8002b20:	4b22      	ldr	r3, [pc, #136]	@ (8002bac <HAL_RCC_OscConfig+0x6c4>)
 8002b22:	6adb      	ldr	r3, [r3, #44]	@ 0x2c
 8002b24:	4a21      	ldr	r2, [pc, #132]	@ (8002bac <HAL_RCC_OscConfig+0x6c4>)
 8002b26:	f443 3300 	orr.w	r3, r3, #131072	@ 0x20000
 8002b2a:	62d3      	str	r3, [r2, #44]	@ 0x2c

        /* Enable PLL1R  Clock output. */
        __HAL_RCC_PLLCLKOUT_ENABLE(RCC_PLL1_DIVR);
 8002b2c:	4b1f      	ldr	r3, [pc, #124]	@ (8002bac <HAL_RCC_OscConfig+0x6c4>)
 8002b2e:	6adb      	ldr	r3, [r3, #44]	@ 0x2c
 8002b30:	4a1e      	ldr	r2, [pc, #120]	@ (8002bac <HAL_RCC_OscConfig+0x6c4>)
 8002b32:	f443 2380 	orr.w	r3, r3, #262144	@ 0x40000
 8002b36:	62d3      	str	r3, [r2, #44]	@ 0x2c

        /* Enable PLL1FRACN . */
        __HAL_RCC_PLLFRACN_ENABLE();
 8002b38:	4b1c      	ldr	r3, [pc, #112]	@ (8002bac <HAL_RCC_OscConfig+0x6c4>)
 8002b3a:	6adb      	ldr	r3, [r3, #44]	@ 0x2c
 8002b3c:	4a1b      	ldr	r2, [pc, #108]	@ (8002bac <HAL_RCC_OscConfig+0x6c4>)
 8002b3e:	f043 0301 	orr.w	r3, r3, #1
 8002b42:	62d3      	str	r3, [r2, #44]	@ 0x2c

        /* Enable the main PLL. */
        __HAL_RCC_PLL_ENABLE();
 8002b44:	4b19      	ldr	r3, [pc, #100]	@ (8002bac <HAL_RCC_OscConfig+0x6c4>)
 8002b46:	681b      	ldr	r3, [r3, #0]
 8002b48:	4a18      	ldr	r2, [pc, #96]	@ (8002bac <HAL_RCC_OscConfig+0x6c4>)
 8002b4a:	f043 7380 	orr.w	r3, r3, #16777216	@ 0x1000000
 8002b4e:	6013      	str	r3, [r2, #0]

        /* Get Start Tick*/
        tickstart = HAL_GetTick();
 8002b50:	f7fe fb02 	bl	8001158 <HAL_GetTick>
 8002b54:	6278      	str	r0, [r7, #36]	@ 0x24

        /* Wait till PLL is ready */
        while (__HAL_RCC_GET_FLAG(RCC_FLAG_PLLRDY) == 0U)
 8002b56:	e008      	b.n	8002b6a <HAL_RCC_OscConfig+0x682>
        {
          if ((HAL_GetTick() - tickstart) > PLL_TIMEOUT_VALUE)
 8002b58:	f7fe fafe 	bl	8001158 <HAL_GetTick>
 8002b5c:	4602      	mov	r2, r0
 8002b5e:	6a7b      	ldr	r3, [r7, #36]	@ 0x24
 8002b60:	1ad3      	subs	r3, r2, r3
 8002b62:	2b02      	cmp	r3, #2
 8002b64:	d901      	bls.n	8002b6a <HAL_RCC_OscConfig+0x682>
          {
            return HAL_TIMEOUT;
 8002b66:	2303      	movs	r3, #3
 8002b68:	e090      	b.n	8002c8c <HAL_RCC_OscConfig+0x7a4>
        while (__HAL_RCC_GET_FLAG(RCC_FLAG_PLLRDY) == 0U)
 8002b6a:	4b10      	ldr	r3, [pc, #64]	@ (8002bac <HAL_RCC_OscConfig+0x6c4>)
 8002b6c:	681b      	ldr	r3, [r3, #0]
 8002b6e:	f003 7300 	and.w	r3, r3, #33554432	@ 0x2000000
 8002b72:	2b00      	cmp	r3, #0
 8002b74:	d0f0      	beq.n	8002b58 <HAL_RCC_OscConfig+0x670>
 8002b76:	e088      	b.n	8002c8a <HAL_RCC_OscConfig+0x7a2>
        }
      }
      else
      {
        /* Disable the main PLL. */
        __HAL_RCC_PLL_DISABLE();
 8002b78:	4b0c      	ldr	r3, [pc, #48]	@ (8002bac <HAL_RCC_OscConfig+0x6c4>)
 8002b7a:	681b      	ldr	r3, [r3, #0]
 8002b7c:	4a0b      	ldr	r2, [pc, #44]	@ (8002bac <HAL_RCC_OscConfig+0x6c4>)
 8002b7e:	f023 7380 	bic.w	r3, r3, #16777216	@ 0x1000000
 8002b82:	6013      	str	r3, [r2, #0]

        /* Get Start Tick*/
        tickstart = HAL_GetTick();
 8002b84:	f7fe fae8 	bl	8001158 <HAL_GetTick>
 8002b88:	6278      	str	r0, [r7, #36]	@ 0x24

        /* Wait till PLL is disabled */
        while (__HAL_RCC_GET_FLAG(RCC_FLAG_PLLRDY) != 0U)
 8002b8a:	e008      	b.n	8002b9e <HAL_RCC_OscConfig+0x6b6>
        {
          if ((HAL_GetTick() - tickstart) > PLL_TIMEOUT_VALUE)
 8002b8c:	f7fe fae4 	bl	8001158 <HAL_GetTick>
 8002b90:	4602      	mov	r2, r0
 8002b92:	6a7b      	ldr	r3, [r7, #36]	@ 0x24
 8002b94:	1ad3      	subs	r3, r2, r3
 8002b96:	2b02      	cmp	r3, #2
 8002b98:	d901      	bls.n	8002b9e <HAL_RCC_OscConfig+0x6b6>
          {
            return HAL_TIMEOUT;
 8002b9a:	2303      	movs	r3, #3
 8002b9c:	e076      	b.n	8002c8c <HAL_RCC_OscConfig+0x7a4>
        while (__HAL_RCC_GET_FLAG(RCC_FLAG_PLLRDY) != 0U)
 8002b9e:	4b03      	ldr	r3, [pc, #12]	@ (8002bac <HAL_RCC_OscConfig+0x6c4>)
 8002ba0:	681b      	ldr	r3, [r3, #0]
 8002ba2:	f003 7300 	and.w	r3, r3, #33554432	@ 0x2000000
 8002ba6:	2b00      	cmp	r3, #0
 8002ba8:	d1f0      	bne.n	8002b8c <HAL_RCC_OscConfig+0x6a4>
 8002baa:	e06e      	b.n	8002c8a <HAL_RCC_OscConfig+0x7a2>
 8002bac:	58024400 	.word	0x58024400
 8002bb0:	fffffc0c 	.word	0xfffffc0c
 8002bb4:	ffff0007 	.word	0xffff0007
      }
    }
    else
    {
      /* Do not return HAL_ERROR if request repeats the current configuration */
      temp1_pllckcfg = RCC->PLLCKSELR;
 8002bb8:	4b36      	ldr	r3, [pc, #216]	@ (8002c94 <HAL_RCC_OscConfig+0x7ac>)
 8002bba:	6a9b      	ldr	r3, [r3, #40]	@ 0x28
 8002bbc:	613b      	str	r3, [r7, #16]
      temp2_pllckcfg = RCC->PLL1DIVR;
 8002bbe:	4b35      	ldr	r3, [pc, #212]	@ (8002c94 <HAL_RCC_OscConfig+0x7ac>)
 8002bc0:	6b1b      	ldr	r3, [r3, #48]	@ 0x30
 8002bc2:	60fb      	str	r3, [r7, #12]
      if (((RCC_OscInitStruct->PLL.PLLState) == RCC_PLL_OFF) ||
 8002bc4:	687b      	ldr	r3, [r7, #4]
 8002bc6:	6a5b      	ldr	r3, [r3, #36]	@ 0x24
 8002bc8:	2b01      	cmp	r3, #1
 8002bca:	d031      	beq.n	8002c30 <HAL_RCC_OscConfig+0x748>
          (READ_BIT(temp1_pllckcfg, RCC_PLLCKSELR_PLLSRC) != RCC_OscInitStruct->PLL.PLLSource) ||
 8002bcc:	693b      	ldr	r3, [r7, #16]
 8002bce:	f003 0203 	and.w	r2, r3, #3
 8002bd2:	687b      	ldr	r3, [r7, #4]
 8002bd4:	6a9b      	ldr	r3, [r3, #40]	@ 0x28
      if (((RCC_OscInitStruct->PLL.PLLState) == RCC_PLL_OFF) ||
 8002bd6:	429a      	cmp	r2, r3
 8002bd8:	d12a      	bne.n	8002c30 <HAL_RCC_OscConfig+0x748>
          ((READ_BIT(temp1_pllckcfg, RCC_PLLCKSELR_DIVM1) >> RCC_PLLCKSELR_DIVM1_Pos) != RCC_OscInitStruct->PLL.PLLM) ||
 8002bda:	693b      	ldr	r3, [r7, #16]
 8002bdc:	091b      	lsrs	r3, r3, #4
 8002bde:	f003 023f 	and.w	r2, r3, #63	@ 0x3f
 8002be2:	687b      	ldr	r3, [r7, #4]
 8002be4:	6adb      	ldr	r3, [r3, #44]	@ 0x2c
          (READ_BIT(temp1_pllckcfg, RCC_PLLCKSELR_PLLSRC) != RCC_OscInitStruct->PLL.PLLSource) ||
 8002be6:	429a      	cmp	r2, r3
 8002be8:	d122      	bne.n	8002c30 <HAL_RCC_OscConfig+0x748>
          (READ_BIT(temp2_pllckcfg, RCC_PLL1DIVR_N1) != (RCC_OscInitStruct->PLL.PLLN - 1U)) ||
 8002bea:	68fb      	ldr	r3, [r7, #12]
 8002bec:	f3c3 0208 	ubfx	r2, r3, #0, #9
 8002bf0:	687b      	ldr	r3, [r7, #4]
 8002bf2:	6b1b      	ldr	r3, [r3, #48]	@ 0x30
 8002bf4:	3b01      	subs	r3, #1
          ((READ_BIT(temp1_pllckcfg, RCC_PLLCKSELR_DIVM1) >> RCC_PLLCKSELR_DIVM1_Pos) != RCC_OscInitStruct->PLL.PLLM) ||
 8002bf6:	429a      	cmp	r2, r3
 8002bf8:	d11a      	bne.n	8002c30 <HAL_RCC_OscConfig+0x748>
          ((READ_BIT(temp2_pllckcfg, RCC_PLL1DIVR_P1) >> RCC_PLL1DIVR_P1_Pos) != (RCC_OscInitStruct->PLL.PLLP - 1U)) ||
 8002bfa:	68fb      	ldr	r3, [r7, #12]
 8002bfc:	0a5b      	lsrs	r3, r3, #9
 8002bfe:	f003 027f 	and.w	r2, r3, #127	@ 0x7f
 8002c02:	687b      	ldr	r3, [r7, #4]
 8002c04:	6b5b      	ldr	r3, [r3, #52]	@ 0x34
 8002c06:	3b01      	subs	r3, #1
          (READ_BIT(temp2_pllckcfg, RCC_PLL1DIVR_N1) != (RCC_OscInitStruct->PLL.PLLN - 1U)) ||
 8002c08:	429a      	cmp	r2, r3
 8002c0a:	d111      	bne.n	8002c30 <HAL_RCC_OscConfig+0x748>
          ((READ_BIT(temp2_pllckcfg, RCC_PLL1DIVR_Q1) >> RCC_PLL1DIVR_Q1_Pos) != (RCC_OscInitStruct->PLL.PLLQ - 1U)) ||
 8002c0c:	68fb      	ldr	r3, [r7, #12]
 8002c0e:	0c1b      	lsrs	r3, r3, #16
 8002c10:	f003 027f 	and.w	r2, r3, #127	@ 0x7f
 8002c14:	687b      	ldr	r3, [r7, #4]
 8002c16:	6b9b      	ldr	r3, [r3, #56]	@ 0x38
 8002c18:	3b01      	subs	r3, #1
          ((READ_BIT(temp2_pllckcfg, RCC_PLL1DIVR_P1) >> RCC_PLL1DIVR_P1_Pos) != (RCC_OscInitStruct->PLL.PLLP - 1U)) ||
 8002c1a:	429a      	cmp	r2, r3
 8002c1c:	d108      	bne.n	8002c30 <HAL_RCC_OscConfig+0x748>
          ((READ_BIT(temp2_pllckcfg, RCC_PLL1DIVR_R1) >> RCC_PLL1DIVR_R1_Pos) != (RCC_OscInitStruct->PLL.PLLR - 1U)))
 8002c1e:	68fb      	ldr	r3, [r7, #12]
 8002c20:	0e1b      	lsrs	r3, r3, #24
 8002c22:	f003 027f 	and.w	r2, r3, #127	@ 0x7f
 8002c26:	687b      	ldr	r3, [r7, #4]
 8002c28:	6bdb      	ldr	r3, [r3, #60]	@ 0x3c
 8002c2a:	3b01      	subs	r3, #1
          ((READ_BIT(temp2_pllckcfg, RCC_PLL1DIVR_Q1) >> RCC_PLL1DIVR_Q1_Pos) != (RCC_OscInitStruct->PLL.PLLQ - 1U)) ||
 8002c2c:	429a      	cmp	r2, r3
 8002c2e:	d001      	beq.n	8002c34 <HAL_RCC_OscConfig+0x74c>
      {
        return HAL_ERROR;
 8002c30:	2301      	movs	r3, #1
 8002c32:	e02b      	b.n	8002c8c <HAL_RCC_OscConfig+0x7a4>
      }
      else
      {
        /* Check if only fractional part needs to be updated  */
        temp1_pllckcfg = ((RCC->PLL1FRACR & RCC_PLL1FRACR_FRACN1) >> RCC_PLL1FRACR_FRACN1_Pos);
 8002c34:	4b17      	ldr	r3, [pc, #92]	@ (8002c94 <HAL_RCC_OscConfig+0x7ac>)
 8002c36:	6b5b      	ldr	r3, [r3, #52]	@ 0x34
 8002c38:	08db      	lsrs	r3, r3, #3
 8002c3a:	f3c3 030c 	ubfx	r3, r3, #0, #13
 8002c3e:	613b      	str	r3, [r7, #16]
        if (RCC_OscInitStruct->PLL.PLLFRACN != temp1_pllckcfg)
 8002c40:	687b      	ldr	r3, [r7, #4]
 8002c42:	6c9b      	ldr	r3, [r3, #72]	@ 0x48
 8002c44:	693a      	ldr	r2, [r7, #16]
 8002c46:	429a      	cmp	r2, r3
 8002c48:	d01f      	beq.n	8002c8a <HAL_RCC_OscConfig+0x7a2>
        {
          assert_param(IS_RCC_PLLFRACN_VALUE(RCC_OscInitStruct->PLL.PLLFRACN));
          /* Disable PLL1FRACEN */
          __HAL_RCC_PLLFRACN_DISABLE();
 8002c4a:	4b12      	ldr	r3, [pc, #72]	@ (8002c94 <HAL_RCC_OscConfig+0x7ac>)
 8002c4c:	6adb      	ldr	r3, [r3, #44]	@ 0x2c
 8002c4e:	4a11      	ldr	r2, [pc, #68]	@ (8002c94 <HAL_RCC_OscConfig+0x7ac>)
 8002c50:	f023 0301 	bic.w	r3, r3, #1
 8002c54:	62d3      	str	r3, [r2, #44]	@ 0x2c
          /* Get Start Tick*/
          tickstart = HAL_GetTick();
 8002c56:	f7fe fa7f 	bl	8001158 <HAL_GetTick>
 8002c5a:	6278      	str	r0, [r7, #36]	@ 0x24
          /* Wait at least 2 CK_REF (PLL input source divided by M) period to make sure next latched value will be taken into account. */
          while ((HAL_GetTick() - tickstart) < PLL_FRAC_TIMEOUT_VALUE)
 8002c5c:	bf00      	nop
 8002c5e:	f7fe fa7b 	bl	8001158 <HAL_GetTick>
 8002c62:	4602      	mov	r2, r0
 8002c64:	6a7b      	ldr	r3, [r7, #36]	@ 0x24
 8002c66:	4293      	cmp	r3, r2
 8002c68:	d0f9      	beq.n	8002c5e <HAL_RCC_OscConfig+0x776>
          {
          }
          /* Configure PLL1 PLL1FRACN */
          __HAL_RCC_PLLFRACN_CONFIG(RCC_OscInitStruct->PLL.PLLFRACN);
 8002c6a:	4b0a      	ldr	r3, [pc, #40]	@ (8002c94 <HAL_RCC_OscConfig+0x7ac>)
 8002c6c:	6b5a      	ldr	r2, [r3, #52]	@ 0x34
 8002c6e:	4b0a      	ldr	r3, [pc, #40]	@ (8002c98 <HAL_RCC_OscConfig+0x7b0>)
 8002c70:	4013      	ands	r3, r2
 8002c72:	687a      	ldr	r2, [r7, #4]
 8002c74:	6c92      	ldr	r2, [r2, #72]	@ 0x48
 8002c76:	00d2      	lsls	r2, r2, #3
 8002c78:	4906      	ldr	r1, [pc, #24]	@ (8002c94 <HAL_RCC_OscConfig+0x7ac>)
 8002c7a:	4313      	orrs	r3, r2
 8002c7c:	634b      	str	r3, [r1, #52]	@ 0x34
          /* Enable PLL1FRACEN to latch new value. */
          __HAL_RCC_PLLFRACN_ENABLE();
 8002c7e:	4b05      	ldr	r3, [pc, #20]	@ (8002c94 <HAL_RCC_OscConfig+0x7ac>)
 8002c80:	6adb      	ldr	r3, [r3, #44]	@ 0x2c
 8002c82:	4a04      	ldr	r2, [pc, #16]	@ (8002c94 <HAL_RCC_OscConfig+0x7ac>)
 8002c84:	f043 0301 	orr.w	r3, r3, #1
 8002c88:	62d3      	str	r3, [r2, #44]	@ 0x2c
        }
      }
    }
  }
  return HAL_OK;
 8002c8a:	2300      	movs	r3, #0
}
 8002c8c:	4618      	mov	r0, r3
 8002c8e:	3730      	adds	r7, #48	@ 0x30
 8002c90:	46bd      	mov	sp, r7
 8002c92:	bd80      	pop	{r7, pc}
 8002c94:	58024400 	.word	0x58024400
 8002c98:	ffff0007 	.word	0xffff0007

08002c9c <HAL_RCC_ClockConfig>:
  *         D1CPRE[3:0] bits to ensure that  Domain1 core clock not exceed the maximum allowed frequency
  *         (for more details refer to section above "Initialization/de-initialization functions")
  * @retval None
  */
HAL_StatusTypeDef HAL_RCC_ClockConfig(const RCC_ClkInitTypeDef  *RCC_ClkInitStruct, uint32_t FLatency)
{
 8002c9c:	b580      	push	{r7, lr}
 8002c9e:	b086      	sub	sp, #24
 8002ca0:	af00      	add	r7, sp, #0
 8002ca2:	6078      	str	r0, [r7, #4]
 8002ca4:	6039      	str	r1, [r7, #0]
  HAL_StatusTypeDef halstatus;
  uint32_t tickstart;
  uint32_t common_system_clock;

  /* Check Null pointer */
  if (RCC_ClkInitStruct == NULL)
 8002ca6:	687b      	ldr	r3, [r7, #4]
 8002ca8:	2b00      	cmp	r3, #0
 8002caa:	d101      	bne.n	8002cb0 <HAL_RCC_ClockConfig+0x14>
  {
    return HAL_ERROR;
 8002cac:	2301      	movs	r3, #1
 8002cae:	e19c      	b.n	8002fea <HAL_RCC_ClockConfig+0x34e>
  /* To correctly read data from FLASH memory, the number of wait states (LATENCY)
    must be correctly programmed according to the frequency of the CPU clock
    (HCLK) and the supply voltage of the device. */

  /* Increasing the CPU frequency */
  if (FLatency > __HAL_FLASH_GET_LATENCY())
 8002cb0:	4b8a      	ldr	r3, [pc, #552]	@ (8002edc <HAL_RCC_ClockConfig+0x240>)
 8002cb2:	681b      	ldr	r3, [r3, #0]
 8002cb4:	f003 030f 	and.w	r3, r3, #15
 8002cb8:	683a      	ldr	r2, [r7, #0]
 8002cba:	429a      	cmp	r2, r3
 8002cbc:	d910      	bls.n	8002ce0 <HAL_RCC_ClockConfig+0x44>
  {
    /* Program the new number of wait states to the LATENCY bits in the FLASH_ACR register */
    __HAL_FLASH_SET_LATENCY(FLatency);
 8002cbe:	4b87      	ldr	r3, [pc, #540]	@ (8002edc <HAL_RCC_ClockConfig+0x240>)
 8002cc0:	681b      	ldr	r3, [r3, #0]
 8002cc2:	f023 020f 	bic.w	r2, r3, #15
 8002cc6:	4985      	ldr	r1, [pc, #532]	@ (8002edc <HAL_RCC_ClockConfig+0x240>)
 8002cc8:	683b      	ldr	r3, [r7, #0]
 8002cca:	4313      	orrs	r3, r2
 8002ccc:	600b      	str	r3, [r1, #0]

    /* Check that the new number of wait states is taken into account to access the Flash
    memory by reading the FLASH_ACR register */
    if (__HAL_FLASH_GET_LATENCY() != FLatency)
 8002cce:	4b83      	ldr	r3, [pc, #524]	@ (8002edc <HAL_RCC_ClockConfig+0x240>)
 8002cd0:	681b      	ldr	r3, [r3, #0]
 8002cd2:	f003 030f 	and.w	r3, r3, #15
 8002cd6:	683a      	ldr	r2, [r7, #0]
 8002cd8:	429a      	cmp	r2, r3
 8002cda:	d001      	beq.n	8002ce0 <HAL_RCC_ClockConfig+0x44>
    {
      return HAL_ERROR;
 8002cdc:	2301      	movs	r3, #1
 8002cde:	e184      	b.n	8002fea <HAL_RCC_ClockConfig+0x34e>

  }

  /* Increasing the BUS frequency divider */
  /*-------------------------- D1PCLK1/CDPCLK1 Configuration ---------------------------*/
  if (((RCC_ClkInitStruct->ClockType) & RCC_CLOCKTYPE_D1PCLK1) == RCC_CLOCKTYPE_D1PCLK1)
 8002ce0:	687b      	ldr	r3, [r7, #4]
 8002ce2:	681b      	ldr	r3, [r3, #0]
 8002ce4:	f003 0304 	and.w	r3, r3, #4
 8002ce8:	2b00      	cmp	r3, #0
 8002cea:	d010      	beq.n	8002d0e <HAL_RCC_ClockConfig+0x72>
  {
#if defined (RCC_D1CFGR_D1PPRE)
    if ((RCC_ClkInitStruct->APB3CLKDivider) > (RCC->D1CFGR & RCC_D1CFGR_D1PPRE))
 8002cec:	687b      	ldr	r3, [r7, #4]
 8002cee:	691a      	ldr	r2, [r3, #16]
 8002cf0:	4b7b      	ldr	r3, [pc, #492]	@ (8002ee0 <HAL_RCC_ClockConfig+0x244>)
 8002cf2:	699b      	ldr	r3, [r3, #24]
 8002cf4:	f003 0370 	and.w	r3, r3, #112	@ 0x70
 8002cf8:	429a      	cmp	r2, r3
 8002cfa:	d908      	bls.n	8002d0e <HAL_RCC_ClockConfig+0x72>
    {
      assert_param(IS_RCC_D1PCLK1(RCC_ClkInitStruct->APB3CLKDivider));
      MODIFY_REG(RCC->D1CFGR, RCC_D1CFGR_D1PPRE, RCC_ClkInitStruct->APB3CLKDivider);
 8002cfc:	4b78      	ldr	r3, [pc, #480]	@ (8002ee0 <HAL_RCC_ClockConfig+0x244>)
 8002cfe:	699b      	ldr	r3, [r3, #24]
 8002d00:	f023 0270 	bic.w	r2, r3, #112	@ 0x70
 8002d04:	687b      	ldr	r3, [r7, #4]
 8002d06:	691b      	ldr	r3, [r3, #16]
 8002d08:	4975      	ldr	r1, [pc, #468]	@ (8002ee0 <HAL_RCC_ClockConfig+0x244>)
 8002d0a:	4313      	orrs	r3, r2
 8002d0c:	618b      	str	r3, [r1, #24]
    }
#endif
  }

  /*-------------------------- PCLK1 Configuration ---------------------------*/
  if (((RCC_ClkInitStruct->ClockType) & RCC_CLOCKTYPE_PCLK1) == RCC_CLOCKTYPE_PCLK1)
 8002d0e:	687b      	ldr	r3, [r7, #4]
 8002d10:	681b      	ldr	r3, [r3, #0]
 8002d12:	f003 0308 	and.w	r3, r3, #8
 8002d16:	2b00      	cmp	r3, #0
 8002d18:	d010      	beq.n	8002d3c <HAL_RCC_ClockConfig+0xa0>
  {
#if defined (RCC_D2CFGR_D2PPRE1)
    if ((RCC_ClkInitStruct->APB1CLKDivider) > (RCC->D2CFGR & RCC_D2CFGR_D2PPRE1))
 8002d1a:	687b      	ldr	r3, [r7, #4]
 8002d1c:	695a      	ldr	r2, [r3, #20]
 8002d1e:	4b70      	ldr	r3, [pc, #448]	@ (8002ee0 <HAL_RCC_ClockConfig+0x244>)
 8002d20:	69db      	ldr	r3, [r3, #28]
 8002d22:	f003 0370 	and.w	r3, r3, #112	@ 0x70
 8002d26:	429a      	cmp	r2, r3
 8002d28:	d908      	bls.n	8002d3c <HAL_RCC_ClockConfig+0xa0>
    {
      assert_param(IS_RCC_PCLK1(RCC_ClkInitStruct->APB1CLKDivider));
      MODIFY_REG(RCC->D2CFGR, RCC_D2CFGR_D2PPRE1, (RCC_ClkInitStruct->APB1CLKDivider));
 8002d2a:	4b6d      	ldr	r3, [pc, #436]	@ (8002ee0 <HAL_RCC_ClockConfig+0x244>)
 8002d2c:	69db      	ldr	r3, [r3, #28]
 8002d2e:	f023 0270 	bic.w	r2, r3, #112	@ 0x70
 8002d32:	687b      	ldr	r3, [r7, #4]
 8002d34:	695b      	ldr	r3, [r3, #20]
 8002d36:	496a      	ldr	r1, [pc, #424]	@ (8002ee0 <HAL_RCC_ClockConfig+0x244>)
 8002d38:	4313      	orrs	r3, r2
 8002d3a:	61cb      	str	r3, [r1, #28]
      MODIFY_REG(RCC->CDCFGR2, RCC_CDCFGR2_CDPPRE1, (RCC_ClkInitStruct->APB1CLKDivider));
    }
#endif
  }
  /*-------------------------- PCLK2 Configuration ---------------------------*/
  if (((RCC_ClkInitStruct->ClockType) & RCC_CLOCKTYPE_PCLK2) == RCC_CLOCKTYPE_PCLK2)
 8002d3c:	687b      	ldr	r3, [r7, #4]
 8002d3e:	681b      	ldr	r3, [r3, #0]
 8002d40:	f003 0310 	and.w	r3, r3, #16
 8002d44:	2b00      	cmp	r3, #0
 8002d46:	d010      	beq.n	8002d6a <HAL_RCC_ClockConfig+0xce>
  {
#if defined(RCC_D2CFGR_D2PPRE2)
    if ((RCC_ClkInitStruct->APB2CLKDivider) > (RCC->D2CFGR & RCC_D2CFGR_D2PPRE2))
 8002d48:	687b      	ldr	r3, [r7, #4]
 8002d4a:	699a      	ldr	r2, [r3, #24]
 8002d4c:	4b64      	ldr	r3, [pc, #400]	@ (8002ee0 <HAL_RCC_ClockConfig+0x244>)
 8002d4e:	69db      	ldr	r3, [r3, #28]
 8002d50:	f403 63e0 	and.w	r3, r3, #1792	@ 0x700
 8002d54:	429a      	cmp	r2, r3
 8002d56:	d908      	bls.n	8002d6a <HAL_RCC_ClockConfig+0xce>
    {
      assert_param(IS_RCC_PCLK2(RCC_ClkInitStruct->APB2CLKDivider));
      MODIFY_REG(RCC->D2CFGR, RCC_D2CFGR_D2PPRE2, (RCC_ClkInitStruct->APB2CLKDivider));
 8002d58:	4b61      	ldr	r3, [pc, #388]	@ (8002ee0 <HAL_RCC_ClockConfig+0x244>)
 8002d5a:	69db      	ldr	r3, [r3, #28]
 8002d5c:	f423 62e0 	bic.w	r2, r3, #1792	@ 0x700
 8002d60:	687b      	ldr	r3, [r7, #4]
 8002d62:	699b      	ldr	r3, [r3, #24]
 8002d64:	495e      	ldr	r1, [pc, #376]	@ (8002ee0 <HAL_RCC_ClockConfig+0x244>)
 8002d66:	4313      	orrs	r3, r2
 8002d68:	61cb      	str	r3, [r1, #28]
    }
#endif
  }

  /*-------------------------- D3PCLK1 Configuration ---------------------------*/
  if (((RCC_ClkInitStruct->ClockType) & RCC_CLOCKTYPE_D3PCLK1) == RCC_CLOCKTYPE_D3PCLK1)
 8002d6a:	687b      	ldr	r3, [r7, #4]
 8002d6c:	681b      	ldr	r3, [r3, #0]
 8002d6e:	f003 0320 	and.w	r3, r3, #32
 8002d72:	2b00      	cmp	r3, #0
 8002d74:	d010      	beq.n	8002d98 <HAL_RCC_ClockConfig+0xfc>
  {
#if defined(RCC_D3CFGR_D3PPRE)
    if ((RCC_ClkInitStruct->APB4CLKDivider) > (RCC->D3CFGR & RCC_D3CFGR_D3PPRE))
 8002d76:	687b      	ldr	r3, [r7, #4]
 8002d78:	69da      	ldr	r2, [r3, #28]
 8002d7a:	4b59      	ldr	r3, [pc, #356]	@ (8002ee0 <HAL_RCC_ClockConfig+0x244>)
 8002d7c:	6a1b      	ldr	r3, [r3, #32]
 8002d7e:	f003 0370 	and.w	r3, r3, #112	@ 0x70
 8002d82:	429a      	cmp	r2, r3
 8002d84:	d908      	bls.n	8002d98 <HAL_RCC_ClockConfig+0xfc>
    {
      assert_param(IS_RCC_D3PCLK1(RCC_ClkInitStruct->APB4CLKDivider));
      MODIFY_REG(RCC->D3CFGR, RCC_D3CFGR_D3PPRE, (RCC_ClkInitStruct->APB4CLKDivider));
 8002d86:	4b56      	ldr	r3, [pc, #344]	@ (8002ee0 <HAL_RCC_ClockConfig+0x244>)
 8002d88:	6a1b      	ldr	r3, [r3, #32]
 8002d8a:	f023 0270 	bic.w	r2, r3, #112	@ 0x70
 8002d8e:	687b      	ldr	r3, [r7, #4]
 8002d90:	69db      	ldr	r3, [r3, #28]
 8002d92:	4953      	ldr	r1, [pc, #332]	@ (8002ee0 <HAL_RCC_ClockConfig+0x244>)
 8002d94:	4313      	orrs	r3, r2
 8002d96:	620b      	str	r3, [r1, #32]
    }
#endif
  }

  /*-------------------------- HCLK Configuration --------------------------*/
  if (((RCC_ClkInitStruct->ClockType) & RCC_CLOCKTYPE_HCLK) == RCC_CLOCKTYPE_HCLK)
 8002d98:	687b      	ldr	r3, [r7, #4]
 8002d9a:	681b      	ldr	r3, [r3, #0]
 8002d9c:	f003 0302 	and.w	r3, r3, #2
 8002da0:	2b00      	cmp	r3, #0
 8002da2:	d010      	beq.n	8002dc6 <HAL_RCC_ClockConfig+0x12a>
  {
#if defined (RCC_D1CFGR_HPRE)
    if ((RCC_ClkInitStruct->AHBCLKDivider) > (RCC->D1CFGR & RCC_D1CFGR_HPRE))
 8002da4:	687b      	ldr	r3, [r7, #4]
 8002da6:	68da      	ldr	r2, [r3, #12]
 8002da8:	4b4d      	ldr	r3, [pc, #308]	@ (8002ee0 <HAL_RCC_ClockConfig+0x244>)
 8002daa:	699b      	ldr	r3, [r3, #24]
 8002dac:	f003 030f 	and.w	r3, r3, #15
 8002db0:	429a      	cmp	r2, r3
 8002db2:	d908      	bls.n	8002dc6 <HAL_RCC_ClockConfig+0x12a>
    {
      /* Set the new HCLK clock divider */
      assert_param(IS_RCC_HCLK(RCC_ClkInitStruct->AHBCLKDivider));
      MODIFY_REG(RCC->D1CFGR, RCC_D1CFGR_HPRE, RCC_ClkInitStruct->AHBCLKDivider);
 8002db4:	4b4a      	ldr	r3, [pc, #296]	@ (8002ee0 <HAL_RCC_ClockConfig+0x244>)
 8002db6:	699b      	ldr	r3, [r3, #24]
 8002db8:	f023 020f 	bic.w	r2, r3, #15
 8002dbc:	687b      	ldr	r3, [r7, #4]
 8002dbe:	68db      	ldr	r3, [r3, #12]
 8002dc0:	4947      	ldr	r1, [pc, #284]	@ (8002ee0 <HAL_RCC_ClockConfig+0x244>)
 8002dc2:	4313      	orrs	r3, r2
 8002dc4:	618b      	str	r3, [r1, #24]
    }
#endif
  }

  /*------------------------- SYSCLK Configuration -------------------------*/
  if (((RCC_ClkInitStruct->ClockType) & RCC_CLOCKTYPE_SYSCLK) == RCC_CLOCKTYPE_SYSCLK)
 8002dc6:	687b      	ldr	r3, [r7, #4]
 8002dc8:	681b      	ldr	r3, [r3, #0]
 8002dca:	f003 0301 	and.w	r3, r3, #1
 8002dce:	2b00      	cmp	r3, #0
 8002dd0:	d055      	beq.n	8002e7e <HAL_RCC_ClockConfig+0x1e2>
  {
    assert_param(IS_RCC_SYSCLK(RCC_ClkInitStruct->SYSCLKDivider));
    assert_param(IS_RCC_SYSCLKSOURCE(RCC_ClkInitStruct->SYSCLKSource));
#if defined(RCC_D1CFGR_D1CPRE)
    MODIFY_REG(RCC->D1CFGR, RCC_D1CFGR_D1CPRE, RCC_ClkInitStruct->SYSCLKDivider);
 8002dd2:	4b43      	ldr	r3, [pc, #268]	@ (8002ee0 <HAL_RCC_ClockConfig+0x244>)
 8002dd4:	699b      	ldr	r3, [r3, #24]
 8002dd6:	f423 6270 	bic.w	r2, r3, #3840	@ 0xf00
 8002dda:	687b      	ldr	r3, [r7, #4]
 8002ddc:	689b      	ldr	r3, [r3, #8]
 8002dde:	4940      	ldr	r1, [pc, #256]	@ (8002ee0 <HAL_RCC_ClockConfig+0x244>)
 8002de0:	4313      	orrs	r3, r2
 8002de2:	618b      	str	r3, [r1, #24]
#else
    MODIFY_REG(RCC->CDCFGR1, RCC_CDCFGR1_CDCPRE, RCC_ClkInitStruct->SYSCLKDivider);
#endif
    /* HSE is selected as System Clock Source */
    if (RCC_ClkInitStruct->SYSCLKSource == RCC_SYSCLKSOURCE_HSE)
 8002de4:	687b      	ldr	r3, [r7, #4]
 8002de6:	685b      	ldr	r3, [r3, #4]
 8002de8:	2b02      	cmp	r3, #2
 8002dea:	d107      	bne.n	8002dfc <HAL_RCC_ClockConfig+0x160>
    {
      /* Check the HSE ready flag */
      if (__HAL_RCC_GET_FLAG(RCC_FLAG_HSERDY) == 0U)
 8002dec:	4b3c      	ldr	r3, [pc, #240]	@ (8002ee0 <HAL_RCC_ClockConfig+0x244>)
 8002dee:	681b      	ldr	r3, [r3, #0]
 8002df0:	f403 3300 	and.w	r3, r3, #131072	@ 0x20000
 8002df4:	2b00      	cmp	r3, #0
 8002df6:	d121      	bne.n	8002e3c <HAL_RCC_ClockConfig+0x1a0>
      {
        return HAL_ERROR;
 8002df8:	2301      	movs	r3, #1
 8002dfa:	e0f6      	b.n	8002fea <HAL_RCC_ClockConfig+0x34e>
      }
    }
    /* PLL is selected as System Clock Source */
    else if (RCC_ClkInitStruct->SYSCLKSource == RCC_SYSCLKSOURCE_PLLCLK)
 8002dfc:	687b      	ldr	r3, [r7, #4]
 8002dfe:	685b      	ldr	r3, [r3, #4]
 8002e00:	2b03      	cmp	r3, #3
 8002e02:	d107      	bne.n	8002e14 <HAL_RCC_ClockConfig+0x178>
    {
      /* Check the PLL ready flag */
      if (__HAL_RCC_GET_FLAG(RCC_FLAG_PLLRDY) == 0U)
 8002e04:	4b36      	ldr	r3, [pc, #216]	@ (8002ee0 <HAL_RCC_ClockConfig+0x244>)
 8002e06:	681b      	ldr	r3, [r3, #0]
 8002e08:	f003 7300 	and.w	r3, r3, #33554432	@ 0x2000000
 8002e0c:	2b00      	cmp	r3, #0
 8002e0e:	d115      	bne.n	8002e3c <HAL_RCC_ClockConfig+0x1a0>
      {
        return HAL_ERROR;
 8002e10:	2301      	movs	r3, #1
 8002e12:	e0ea      	b.n	8002fea <HAL_RCC_ClockConfig+0x34e>
      }
    }
    /* CSI is selected as System Clock Source */
    else if (RCC_ClkInitStruct->SYSCLKSource == RCC_SYSCLKSOURCE_CSI)
 8002e14:	687b      	ldr	r3, [r7, #4]
 8002e16:	685b      	ldr	r3, [r3, #4]
 8002e18:	2b01      	cmp	r3, #1
 8002e1a:	d107      	bne.n	8002e2c <HAL_RCC_ClockConfig+0x190>
    {
      /* Check the PLL ready flag */
      if (__HAL_RCC_GET_FLAG(RCC_FLAG_CSIRDY) == 0U)
 8002e1c:	4b30      	ldr	r3, [pc, #192]	@ (8002ee0 <HAL_RCC_ClockConfig+0x244>)
 8002e1e:	681b      	ldr	r3, [r3, #0]
 8002e20:	f403 7380 	and.w	r3, r3, #256	@ 0x100
 8002e24:	2b00      	cmp	r3, #0
 8002e26:	d109      	bne.n	8002e3c <HAL_RCC_ClockConfig+0x1a0>
      {
        return HAL_ERROR;
 8002e28:	2301      	movs	r3, #1
 8002e2a:	e0de      	b.n	8002fea <HAL_RCC_ClockConfig+0x34e>
    }
    /* HSI is selected as System Clock Source */
    else
    {
      /* Check the HSI ready flag */
      if (__HAL_RCC_GET_FLAG(RCC_FLAG_HSIRDY) == 0U)
 8002e2c:	4b2c      	ldr	r3, [pc, #176]	@ (8002ee0 <HAL_RCC_ClockConfig+0x244>)
 8002e2e:	681b      	ldr	r3, [r3, #0]
 8002e30:	f003 0304 	and.w	r3, r3, #4
 8002e34:	2b00      	cmp	r3, #0
 8002e36:	d101      	bne.n	8002e3c <HAL_RCC_ClockConfig+0x1a0>
      {
        return HAL_ERROR;
 8002e38:	2301      	movs	r3, #1
 8002e3a:	e0d6      	b.n	8002fea <HAL_RCC_ClockConfig+0x34e>
      }
    }
    MODIFY_REG(RCC->CFGR, RCC_CFGR_SW, RCC_ClkInitStruct->SYSCLKSource);
 8002e3c:	4b28      	ldr	r3, [pc, #160]	@ (8002ee0 <HAL_RCC_ClockConfig+0x244>)
 8002e3e:	691b      	ldr	r3, [r3, #16]
 8002e40:	f023 0207 	bic.w	r2, r3, #7
 8002e44:	687b      	ldr	r3, [r7, #4]
 8002e46:	685b      	ldr	r3, [r3, #4]
 8002e48:	4925      	ldr	r1, [pc, #148]	@ (8002ee0 <HAL_RCC_ClockConfig+0x244>)
 8002e4a:	4313      	orrs	r3, r2
 8002e4c:	610b      	str	r3, [r1, #16]

    /* Get Start Tick*/
    tickstart = HAL_GetTick();
 8002e4e:	f7fe f983 	bl	8001158 <HAL_GetTick>
 8002e52:	6178      	str	r0, [r7, #20]

    while (__HAL_RCC_GET_SYSCLK_SOURCE() != (RCC_ClkInitStruct->SYSCLKSource << RCC_CFGR_SWS_Pos))
 8002e54:	e00a      	b.n	8002e6c <HAL_RCC_ClockConfig+0x1d0>
    {
      if ((HAL_GetTick() - tickstart) > CLOCKSWITCH_TIMEOUT_VALUE)
 8002e56:	f7fe f97f 	bl	8001158 <HAL_GetTick>
 8002e5a:	4602      	mov	r2, r0
 8002e5c:	697b      	ldr	r3, [r7, #20]
 8002e5e:	1ad3      	subs	r3, r2, r3
 8002e60:	f241 3288 	movw	r2, #5000	@ 0x1388
 8002e64:	4293      	cmp	r3, r2
 8002e66:	d901      	bls.n	8002e6c <HAL_RCC_ClockConfig+0x1d0>
      {
        return HAL_TIMEOUT;
 8002e68:	2303      	movs	r3, #3
 8002e6a:	e0be      	b.n	8002fea <HAL_RCC_ClockConfig+0x34e>
    while (__HAL_RCC_GET_SYSCLK_SOURCE() != (RCC_ClkInitStruct->SYSCLKSource << RCC_CFGR_SWS_Pos))
 8002e6c:	4b1c      	ldr	r3, [pc, #112]	@ (8002ee0 <HAL_RCC_ClockConfig+0x244>)
 8002e6e:	691b      	ldr	r3, [r3, #16]
 8002e70:	f003 0238 	and.w	r2, r3, #56	@ 0x38
 8002e74:	687b      	ldr	r3, [r7, #4]
 8002e76:	685b      	ldr	r3, [r3, #4]
 8002e78:	00db      	lsls	r3, r3, #3
 8002e7a:	429a      	cmp	r2, r3
 8002e7c:	d1eb      	bne.n	8002e56 <HAL_RCC_ClockConfig+0x1ba>

  }

  /* Decreasing the BUS frequency divider */
  /*-------------------------- HCLK Configuration --------------------------*/
  if (((RCC_ClkInitStruct->ClockType) & RCC_CLOCKTYPE_HCLK) == RCC_CLOCKTYPE_HCLK)
 8002e7e:	687b      	ldr	r3, [r7, #4]
 8002e80:	681b      	ldr	r3, [r3, #0]
 8002e82:	f003 0302 	and.w	r3, r3, #2
 8002e86:	2b00      	cmp	r3, #0
 8002e88:	d010      	beq.n	8002eac <HAL_RCC_ClockConfig+0x210>
  {
#if defined(RCC_D1CFGR_HPRE)
    if ((RCC_ClkInitStruct->AHBCLKDivider) < (RCC->D1CFGR & RCC_D1CFGR_HPRE))
 8002e8a:	687b      	ldr	r3, [r7, #4]
 8002e8c:	68da      	ldr	r2, [r3, #12]
 8002e8e:	4b14      	ldr	r3, [pc, #80]	@ (8002ee0 <HAL_RCC_ClockConfig+0x244>)
 8002e90:	699b      	ldr	r3, [r3, #24]
 8002e92:	f003 030f 	and.w	r3, r3, #15
 8002e96:	429a      	cmp	r2, r3
 8002e98:	d208      	bcs.n	8002eac <HAL_RCC_ClockConfig+0x210>
    {
      /* Set the new HCLK clock divider */
      assert_param(IS_RCC_HCLK(RCC_ClkInitStruct->AHBCLKDivider));
      MODIFY_REG(RCC->D1CFGR, RCC_D1CFGR_HPRE, RCC_ClkInitStruct->AHBCLKDivider);
 8002e9a:	4b11      	ldr	r3, [pc, #68]	@ (8002ee0 <HAL_RCC_ClockConfig+0x244>)
 8002e9c:	699b      	ldr	r3, [r3, #24]
 8002e9e:	f023 020f 	bic.w	r2, r3, #15
 8002ea2:	687b      	ldr	r3, [r7, #4]
 8002ea4:	68db      	ldr	r3, [r3, #12]
 8002ea6:	490e      	ldr	r1, [pc, #56]	@ (8002ee0 <HAL_RCC_ClockConfig+0x244>)
 8002ea8:	4313      	orrs	r3, r2
 8002eaa:	618b      	str	r3, [r1, #24]
    }
#endif
  }

  /* Decreasing the number of wait states because of lower CPU frequency */
  if (FLatency < __HAL_FLASH_GET_LATENCY())
 8002eac:	4b0b      	ldr	r3, [pc, #44]	@ (8002edc <HAL_RCC_ClockConfig+0x240>)
 8002eae:	681b      	ldr	r3, [r3, #0]
 8002eb0:	f003 030f 	and.w	r3, r3, #15
 8002eb4:	683a      	ldr	r2, [r7, #0]
 8002eb6:	429a      	cmp	r2, r3
 8002eb8:	d214      	bcs.n	8002ee4 <HAL_RCC_ClockConfig+0x248>
  {
    /* Program the new number of wait states to the LATENCY bits in the FLASH_ACR register */
    __HAL_FLASH_SET_LATENCY(FLatency);
 8002eba:	4b08      	ldr	r3, [pc, #32]	@ (8002edc <HAL_RCC_ClockConfig+0x240>)
 8002ebc:	681b      	ldr	r3, [r3, #0]
 8002ebe:	f023 020f 	bic.w	r2, r3, #15
 8002ec2:	4906      	ldr	r1, [pc, #24]	@ (8002edc <HAL_RCC_ClockConfig+0x240>)
 8002ec4:	683b      	ldr	r3, [r7, #0]
 8002ec6:	4313      	orrs	r3, r2
 8002ec8:	600b      	str	r3, [r1, #0]

    /* Check that the new number of wait states is taken into account to access the Flash
    memory by reading the FLASH_ACR register */
    if (__HAL_FLASH_GET_LATENCY() != FLatency)
 8002eca:	4b04      	ldr	r3, [pc, #16]	@ (8002edc <HAL_RCC_ClockConfig+0x240>)
 8002ecc:	681b      	ldr	r3, [r3, #0]
 8002ece:	f003 030f 	and.w	r3, r3, #15
 8002ed2:	683a      	ldr	r2, [r7, #0]
 8002ed4:	429a      	cmp	r2, r3
 8002ed6:	d005      	beq.n	8002ee4 <HAL_RCC_ClockConfig+0x248>
    {
      return HAL_ERROR;
 8002ed8:	2301      	movs	r3, #1
 8002eda:	e086      	b.n	8002fea <HAL_RCC_ClockConfig+0x34e>
 8002edc:	52002000 	.word	0x52002000
 8002ee0:	58024400 	.word	0x58024400
    }
  }

  /*-------------------------- D1PCLK1/CDPCLK Configuration ---------------------------*/
  if (((RCC_ClkInitStruct->ClockType) & RCC_CLOCKTYPE_D1PCLK1) == RCC_CLOCKTYPE_D1PCLK1)
 8002ee4:	687b      	ldr	r3, [r7, #4]
 8002ee6:	681b      	ldr	r3, [r3, #0]
 8002ee8:	f003 0304 	and.w	r3, r3, #4
 8002eec:	2b00      	cmp	r3, #0
 8002eee:	d010      	beq.n	8002f12 <HAL_RCC_ClockConfig+0x276>
  {
#if defined(RCC_D1CFGR_D1PPRE)
    if ((RCC_ClkInitStruct->APB3CLKDivider) < (RCC->D1CFGR & RCC_D1CFGR_D1PPRE))
 8002ef0:	687b      	ldr	r3, [r7, #4]
 8002ef2:	691a      	ldr	r2, [r3, #16]
 8002ef4:	4b3f      	ldr	r3, [pc, #252]	@ (8002ff4 <HAL_RCC_ClockConfig+0x358>)
 8002ef6:	699b      	ldr	r3, [r3, #24]
 8002ef8:	f003 0370 	and.w	r3, r3, #112	@ 0x70
 8002efc:	429a      	cmp	r2, r3
 8002efe:	d208      	bcs.n	8002f12 <HAL_RCC_ClockConfig+0x276>
    {
      assert_param(IS_RCC_D1PCLK1(RCC_ClkInitStruct->APB3CLKDivider));
      MODIFY_REG(RCC->D1CFGR, RCC_D1CFGR_D1PPRE, RCC_ClkInitStruct->APB3CLKDivider);
 8002f00:	4b3c      	ldr	r3, [pc, #240]	@ (8002ff4 <HAL_RCC_ClockConfig+0x358>)
 8002f02:	699b      	ldr	r3, [r3, #24]
 8002f04:	f023 0270 	bic.w	r2, r3, #112	@ 0x70
 8002f08:	687b      	ldr	r3, [r7, #4]
 8002f0a:	691b      	ldr	r3, [r3, #16]
 8002f0c:	4939      	ldr	r1, [pc, #228]	@ (8002ff4 <HAL_RCC_ClockConfig+0x358>)
 8002f0e:	4313      	orrs	r3, r2
 8002f10:	618b      	str	r3, [r1, #24]
    }
#endif
  }

  /*-------------------------- PCLK1 Configuration ---------------------------*/
  if (((RCC_ClkInitStruct->ClockType) & RCC_CLOCKTYPE_PCLK1) == RCC_CLOCKTYPE_PCLK1)
 8002f12:	687b      	ldr	r3, [r7, #4]
 8002f14:	681b      	ldr	r3, [r3, #0]
 8002f16:	f003 0308 	and.w	r3, r3, #8
 8002f1a:	2b00      	cmp	r3, #0
 8002f1c:	d010      	beq.n	8002f40 <HAL_RCC_ClockConfig+0x2a4>
  {
#if defined(RCC_D2CFGR_D2PPRE1)
    if ((RCC_ClkInitStruct->APB1CLKDivider) < (RCC->D2CFGR & RCC_D2CFGR_D2PPRE1))
 8002f1e:	687b      	ldr	r3, [r7, #4]
 8002f20:	695a      	ldr	r2, [r3, #20]
 8002f22:	4b34      	ldr	r3, [pc, #208]	@ (8002ff4 <HAL_RCC_ClockConfig+0x358>)
 8002f24:	69db      	ldr	r3, [r3, #28]
 8002f26:	f003 0370 	and.w	r3, r3, #112	@ 0x70
 8002f2a:	429a      	cmp	r2, r3
 8002f2c:	d208      	bcs.n	8002f40 <HAL_RCC_ClockConfig+0x2a4>
    {
      assert_param(IS_RCC_PCLK1(RCC_ClkInitStruct->APB1CLKDivider));
      MODIFY_REG(RCC->D2CFGR, RCC_D2CFGR_D2PPRE1, (RCC_ClkInitStruct->APB1CLKDivider));
 8002f2e:	4b31      	ldr	r3, [pc, #196]	@ (8002ff4 <HAL_RCC_ClockConfig+0x358>)
 8002f30:	69db      	ldr	r3, [r3, #28]
 8002f32:	f023 0270 	bic.w	r2, r3, #112	@ 0x70
 8002f36:	687b      	ldr	r3, [r7, #4]
 8002f38:	695b      	ldr	r3, [r3, #20]
 8002f3a:	492e      	ldr	r1, [pc, #184]	@ (8002ff4 <HAL_RCC_ClockConfig+0x358>)
 8002f3c:	4313      	orrs	r3, r2
 8002f3e:	61cb      	str	r3, [r1, #28]
    }
#endif
  }

  /*-------------------------- PCLK2 Configuration ---------------------------*/
  if (((RCC_ClkInitStruct->ClockType) & RCC_CLOCKTYPE_PCLK2) == RCC_CLOCKTYPE_PCLK2)
 8002f40:	687b      	ldr	r3, [r7, #4]
 8002f42:	681b      	ldr	r3, [r3, #0]
 8002f44:	f003 0310 	and.w	r3, r3, #16
 8002f48:	2b00      	cmp	r3, #0
 8002f4a:	d010      	beq.n	8002f6e <HAL_RCC_ClockConfig+0x2d2>
  {
#if defined (RCC_D2CFGR_D2PPRE2)
    if ((RCC_ClkInitStruct->APB2CLKDivider) < (RCC->D2CFGR & RCC_D2CFGR_D2PPRE2))
 8002f4c:	687b      	ldr	r3, [r7, #4]
 8002f4e:	699a      	ldr	r2, [r3, #24]
 8002f50:	4b28      	ldr	r3, [pc, #160]	@ (8002ff4 <HAL_RCC_ClockConfig+0x358>)
 8002f52:	69db      	ldr	r3, [r3, #28]
 8002f54:	f403 63e0 	and.w	r3, r3, #1792	@ 0x700
 8002f58:	429a      	cmp	r2, r3
 8002f5a:	d208      	bcs.n	8002f6e <HAL_RCC_ClockConfig+0x2d2>
    {
      assert_param(IS_RCC_PCLK2(RCC_ClkInitStruct->APB2CLKDivider));
      MODIFY_REG(RCC->D2CFGR, RCC_D2CFGR_D2PPRE2, (RCC_ClkInitStruct->APB2CLKDivider));
 8002f5c:	4b25      	ldr	r3, [pc, #148]	@ (8002ff4 <HAL_RCC_ClockConfig+0x358>)
 8002f5e:	69db      	ldr	r3, [r3, #28]
 8002f60:	f423 62e0 	bic.w	r2, r3, #1792	@ 0x700
 8002f64:	687b      	ldr	r3, [r7, #4]
 8002f66:	699b      	ldr	r3, [r3, #24]
 8002f68:	4922      	ldr	r1, [pc, #136]	@ (8002ff4 <HAL_RCC_ClockConfig+0x358>)
 8002f6a:	4313      	orrs	r3, r2
 8002f6c:	61cb      	str	r3, [r1, #28]
    }
#endif
  }

  /*-------------------------- D3PCLK1/SRDPCLK1 Configuration ---------------------------*/
  if (((RCC_ClkInitStruct->ClockType) & RCC_CLOCKTYPE_D3PCLK1) == RCC_CLOCKTYPE_D3PCLK1)
 8002f6e:	687b      	ldr	r3, [r7, #4]
 8002f70:	681b      	ldr	r3, [r3, #0]
 8002f72:	f003 0320 	and.w	r3, r3, #32
 8002f76:	2b00      	cmp	r3, #0
 8002f78:	d010      	beq.n	8002f9c <HAL_RCC_ClockConfig+0x300>
  {
#if defined(RCC_D3CFGR_D3PPRE)
    if ((RCC_ClkInitStruct->APB4CLKDivider) < (RCC->D3CFGR & RCC_D3CFGR_D3PPRE))
 8002f7a:	687b      	ldr	r3, [r7, #4]
 8002f7c:	69da      	ldr	r2, [r3, #28]
 8002f7e:	4b1d      	ldr	r3, [pc, #116]	@ (8002ff4 <HAL_RCC_ClockConfig+0x358>)
 8002f80:	6a1b      	ldr	r3, [r3, #32]
 8002f82:	f003 0370 	and.w	r3, r3, #112	@ 0x70
 8002f86:	429a      	cmp	r2, r3
 8002f88:	d208      	bcs.n	8002f9c <HAL_RCC_ClockConfig+0x300>
    {
      assert_param(IS_RCC_D3PCLK1(RCC_ClkInitStruct->APB4CLKDivider));
      MODIFY_REG(RCC->D3CFGR, RCC_D3CFGR_D3PPRE, (RCC_ClkInitStruct->APB4CLKDivider));
 8002f8a:	4b1a      	ldr	r3, [pc, #104]	@ (8002ff4 <HAL_RCC_ClockConfig+0x358>)
 8002f8c:	6a1b      	ldr	r3, [r3, #32]
 8002f8e:	f023 0270 	bic.w	r2, r3, #112	@ 0x70
 8002f92:	687b      	ldr	r3, [r7, #4]
 8002f94:	69db      	ldr	r3, [r3, #28]
 8002f96:	4917      	ldr	r1, [pc, #92]	@ (8002ff4 <HAL_RCC_ClockConfig+0x358>)
 8002f98:	4313      	orrs	r3, r2
 8002f9a:	620b      	str	r3, [r1, #32]
#endif
  }

  /* Update the SystemCoreClock global variable */
#if defined(RCC_D1CFGR_D1CPRE)
  common_system_clock = HAL_RCC_GetSysClockFreq() >> ((D1CorePrescTable[(RCC->D1CFGR & RCC_D1CFGR_D1CPRE) >> RCC_D1CFGR_D1CPRE_Pos]) & 0x1FU);
 8002f9c:	f000 f834 	bl	8003008 <HAL_RCC_GetSysClockFreq>
 8002fa0:	4602      	mov	r2, r0
 8002fa2:	4b14      	ldr	r3, [pc, #80]	@ (8002ff4 <HAL_RCC_ClockConfig+0x358>)
 8002fa4:	699b      	ldr	r3, [r3, #24]
 8002fa6:	0a1b      	lsrs	r3, r3, #8
 8002fa8:	f003 030f 	and.w	r3, r3, #15
 8002fac:	4912      	ldr	r1, [pc, #72]	@ (8002ff8 <HAL_RCC_ClockConfig+0x35c>)
 8002fae:	5ccb      	ldrb	r3, [r1, r3]
 8002fb0:	f003 031f 	and.w	r3, r3, #31
 8002fb4:	fa22 f303 	lsr.w	r3, r2, r3
 8002fb8:	613b      	str	r3, [r7, #16]
#else
  common_system_clock = HAL_RCC_GetSysClockFreq() >> ((D1CorePrescTable[(RCC->CDCFGR1 & RCC_CDCFGR1_CDCPRE) >> RCC_CDCFGR1_CDCPRE_Pos]) & 0x1FU);
#endif

#if defined(RCC_D1CFGR_HPRE)
  SystemD2Clock = (common_system_clock >> ((D1CorePrescTable[(RCC->D1CFGR & RCC_D1CFGR_HPRE) >> RCC_D1CFGR_HPRE_Pos]) & 0x1FU));
 8002fba:	4b0e      	ldr	r3, [pc, #56]	@ (8002ff4 <HAL_RCC_ClockConfig+0x358>)
 8002fbc:	699b      	ldr	r3, [r3, #24]
 8002fbe:	f003 030f 	and.w	r3, r3, #15
 8002fc2:	4a0d      	ldr	r2, [pc, #52]	@ (8002ff8 <HAL_RCC_ClockConfig+0x35c>)
 8002fc4:	5cd3      	ldrb	r3, [r2, r3]
 8002fc6:	f003 031f 	and.w	r3, r3, #31
 8002fca:	693a      	ldr	r2, [r7, #16]
 8002fcc:	fa22 f303 	lsr.w	r3, r2, r3
 8002fd0:	4a0a      	ldr	r2, [pc, #40]	@ (8002ffc <HAL_RCC_ClockConfig+0x360>)
 8002fd2:	6013      	str	r3, [r2, #0]
#endif

#if defined(DUAL_CORE) && defined(CORE_CM4)
  SystemCoreClock = SystemD2Clock;
#else
  SystemCoreClock = common_system_clock;
 8002fd4:	4a0a      	ldr	r2, [pc, #40]	@ (8003000 <HAL_RCC_ClockConfig+0x364>)
 8002fd6:	693b      	ldr	r3, [r7, #16]
 8002fd8:	6013      	str	r3, [r2, #0]
#endif /* DUAL_CORE && CORE_CM4 */

  /* Configure the source of time base considering new system clocks settings*/
  halstatus = HAL_InitTick(uwTickPrio);
 8002fda:	4b0a      	ldr	r3, [pc, #40]	@ (8003004 <HAL_RCC_ClockConfig+0x368>)
 8002fdc:	681b      	ldr	r3, [r3, #0]
 8002fde:	4618      	mov	r0, r3
 8002fe0:	f7fe f870 	bl	80010c4 <HAL_InitTick>
 8002fe4:	4603      	mov	r3, r0
 8002fe6:	73fb      	strb	r3, [r7, #15]

  return halstatus;
 8002fe8:	7bfb      	ldrb	r3, [r7, #15]
}
 8002fea:	4618      	mov	r0, r3
 8002fec:	3718      	adds	r7, #24
 8002fee:	46bd      	mov	sp, r7
 8002ff0:	bd80      	pop	{r7, pc}
 8002ff2:	bf00      	nop
 8002ff4:	58024400 	.word	0x58024400
 8002ff8:	080061dc 	.word	0x080061dc
 8002ffc:	24000004 	.word	0x24000004
 8003000:	24000000 	.word	0x24000000
 8003004:	24000024 	.word	0x24000024

08003008 <HAL_RCC_GetSysClockFreq>:
  *
  *
  * @retval SYSCLK frequency
  */
uint32_t HAL_RCC_GetSysClockFreq(void)
{
 8003008:	b480      	push	{r7}
 800300a:	b089      	sub	sp, #36	@ 0x24
 800300c:	af00      	add	r7, sp, #0
  float_t fracn1, pllvco;
  uint32_t sysclockfreq;

  /* Get SYSCLK source -------------------------------------------------------*/

  switch (RCC->CFGR & RCC_CFGR_SWS)
 800300e:	4bb3      	ldr	r3, [pc, #716]	@ (80032dc <HAL_RCC_GetSysClockFreq+0x2d4>)
 8003010:	691b      	ldr	r3, [r3, #16]
 8003012:	f003 0338 	and.w	r3, r3, #56	@ 0x38
 8003016:	2b18      	cmp	r3, #24
 8003018:	f200 8155 	bhi.w	80032c6 <HAL_RCC_GetSysClockFreq+0x2be>
 800301c:	a201      	add	r2, pc, #4	@ (adr r2, 8003024 <HAL_RCC_GetSysClockFreq+0x1c>)
 800301e:	f852 f023 	ldr.w	pc, [r2, r3, lsl #2]
 8003022:	bf00      	nop
 8003024:	08003089 	.word	0x08003089
 8003028:	080032c7 	.word	0x080032c7
 800302c:	080032c7 	.word	0x080032c7
 8003030:	080032c7 	.word	0x080032c7
 8003034:	080032c7 	.word	0x080032c7
 8003038:	080032c7 	.word	0x080032c7
 800303c:	080032c7 	.word	0x080032c7
 8003040:	080032c7 	.word	0x080032c7
 8003044:	080030af 	.word	0x080030af
 8003048:	080032c7 	.word	0x080032c7
 800304c:	080032c7 	.word	0x080032c7
 8003050:	080032c7 	.word	0x080032c7
 8003054:	080032c7 	.word	0x080032c7
 8003058:	080032c7 	.word	0x080032c7
 800305c:	080032c7 	.word	0x080032c7
 8003060:	080032c7 	.word	0x080032c7
 8003064:	080030b5 	.word	0x080030b5
 8003068:	080032c7 	.word	0x080032c7
 800306c:	080032c7 	.word	0x080032c7
 8003070:	080032c7 	.word	0x080032c7
 8003074:	080032c7 	.word	0x080032c7
 8003078:	080032c7 	.word	0x080032c7
 800307c:	080032c7 	.word	0x080032c7
 8003080:	080032c7 	.word	0x080032c7
 8003084:	080030bb 	.word	0x080030bb
  {
    case RCC_CFGR_SWS_HSI:  /* HSI used as system clock source */

      if (__HAL_RCC_GET_FLAG(RCC_FLAG_HSIDIV) != 0U)
 8003088:	4b94      	ldr	r3, [pc, #592]	@ (80032dc <HAL_RCC_GetSysClockFreq+0x2d4>)
 800308a:	681b      	ldr	r3, [r3, #0]
 800308c:	f003 0320 	and.w	r3, r3, #32
 8003090:	2b00      	cmp	r3, #0
 8003092:	d009      	beq.n	80030a8 <HAL_RCC_GetSysClockFreq+0xa0>
      {
        sysclockfreq = (uint32_t)(HSI_VALUE >> (__HAL_RCC_GET_HSI_DIVIDER() >> 3));
 8003094:	4b91      	ldr	r3, [pc, #580]	@ (80032dc <HAL_RCC_GetSysClockFreq+0x2d4>)
 8003096:	681b      	ldr	r3, [r3, #0]
 8003098:	08db      	lsrs	r3, r3, #3
 800309a:	f003 0303 	and.w	r3, r3, #3
 800309e:	4a90      	ldr	r2, [pc, #576]	@ (80032e0 <HAL_RCC_GetSysClockFreq+0x2d8>)
 80030a0:	fa22 f303 	lsr.w	r3, r2, r3
 80030a4:	61bb      	str	r3, [r7, #24]
      else
      {
        sysclockfreq = (uint32_t) HSI_VALUE;
      }

      break;
 80030a6:	e111      	b.n	80032cc <HAL_RCC_GetSysClockFreq+0x2c4>
        sysclockfreq = (uint32_t) HSI_VALUE;
 80030a8:	4b8d      	ldr	r3, [pc, #564]	@ (80032e0 <HAL_RCC_GetSysClockFreq+0x2d8>)
 80030aa:	61bb      	str	r3, [r7, #24]
      break;
 80030ac:	e10e      	b.n	80032cc <HAL_RCC_GetSysClockFreq+0x2c4>

    case RCC_CFGR_SWS_CSI:  /* CSI used as system clock  source */
      sysclockfreq = CSI_VALUE;
 80030ae:	4b8d      	ldr	r3, [pc, #564]	@ (80032e4 <HAL_RCC_GetSysClockFreq+0x2dc>)
 80030b0:	61bb      	str	r3, [r7, #24]
      break;
 80030b2:	e10b      	b.n	80032cc <HAL_RCC_GetSysClockFreq+0x2c4>

    case RCC_CFGR_SWS_HSE:  /* HSE used as system clock  source */
      sysclockfreq = HSE_VALUE;
 80030b4:	4b8c      	ldr	r3, [pc, #560]	@ (80032e8 <HAL_RCC_GetSysClockFreq+0x2e0>)
 80030b6:	61bb      	str	r3, [r7, #24]
      break;
 80030b8:	e108      	b.n	80032cc <HAL_RCC_GetSysClockFreq+0x2c4>
    case RCC_CFGR_SWS_PLL1:  /* PLL1 used as system clock  source */

      /* PLL_VCO = (HSE_VALUE or HSI_VALUE or CSI_VALUE/ PLLM) * PLLN
      SYSCLK = PLL_VCO / PLLR
      */
      pllsource = (RCC->PLLCKSELR & RCC_PLLCKSELR_PLLSRC);
 80030ba:	4b88      	ldr	r3, [pc, #544]	@ (80032dc <HAL_RCC_GetSysClockFreq+0x2d4>)
 80030bc:	6a9b      	ldr	r3, [r3, #40]	@ 0x28
 80030be:	f003 0303 	and.w	r3, r3, #3
 80030c2:	617b      	str	r3, [r7, #20]
      pllm = ((RCC->PLLCKSELR & RCC_PLLCKSELR_DIVM1) >> 4)  ;
 80030c4:	4b85      	ldr	r3, [pc, #532]	@ (80032dc <HAL_RCC_GetSysClockFreq+0x2d4>)
 80030c6:	6a9b      	ldr	r3, [r3, #40]	@ 0x28
 80030c8:	091b      	lsrs	r3, r3, #4
 80030ca:	f003 033f 	and.w	r3, r3, #63	@ 0x3f
 80030ce:	613b      	str	r3, [r7, #16]
      pllfracen = ((RCC-> PLLCFGR & RCC_PLLCFGR_PLL1FRACEN) >> RCC_PLLCFGR_PLL1FRACEN_Pos);
 80030d0:	4b82      	ldr	r3, [pc, #520]	@ (80032dc <HAL_RCC_GetSysClockFreq+0x2d4>)
 80030d2:	6adb      	ldr	r3, [r3, #44]	@ 0x2c
 80030d4:	f003 0301 	and.w	r3, r3, #1
 80030d8:	60fb      	str	r3, [r7, #12]
      fracn1 = (float_t)(uint32_t)(pllfracen * ((RCC->PLL1FRACR & RCC_PLL1FRACR_FRACN1) >> 3));
 80030da:	4b80      	ldr	r3, [pc, #512]	@ (80032dc <HAL_RCC_GetSysClockFreq+0x2d4>)
 80030dc:	6b5b      	ldr	r3, [r3, #52]	@ 0x34
 80030de:	08db      	lsrs	r3, r3, #3
 80030e0:	f3c3 030c 	ubfx	r3, r3, #0, #13
 80030e4:	68fa      	ldr	r2, [r7, #12]
 80030e6:	fb02 f303 	mul.w	r3, r2, r3
 80030ea:	ee07 3a90 	vmov	s15, r3
 80030ee:	eef8 7a67 	vcvt.f32.u32	s15, s15
 80030f2:	edc7 7a02 	vstr	s15, [r7, #8]

      if (pllm != 0U)
 80030f6:	693b      	ldr	r3, [r7, #16]
 80030f8:	2b00      	cmp	r3, #0
 80030fa:	f000 80e1 	beq.w	80032c0 <HAL_RCC_GetSysClockFreq+0x2b8>
      {
        switch (pllsource)
 80030fe:	697b      	ldr	r3, [r7, #20]
 8003100:	2b02      	cmp	r3, #2
 8003102:	f000 8083 	beq.w	800320c <HAL_RCC_GetSysClockFreq+0x204>
 8003106:	697b      	ldr	r3, [r7, #20]
 8003108:	2b02      	cmp	r3, #2
 800310a:	f200 80a1 	bhi.w	8003250 <HAL_RCC_GetSysClockFreq+0x248>
 800310e:	697b      	ldr	r3, [r7, #20]
 8003110:	2b00      	cmp	r3, #0
 8003112:	d003      	beq.n	800311c <HAL_RCC_GetSysClockFreq+0x114>
 8003114:	697b      	ldr	r3, [r7, #20]
 8003116:	2b01      	cmp	r3, #1
 8003118:	d056      	beq.n	80031c8 <HAL_RCC_GetSysClockFreq+0x1c0>
 800311a:	e099      	b.n	8003250 <HAL_RCC_GetSysClockFreq+0x248>
        {
          case RCC_PLLSOURCE_HSI:  /* HSI used as PLL clock source */

            if (__HAL_RCC_GET_FLAG(RCC_FLAG_HSIDIV) != 0U)
 800311c:	4b6f      	ldr	r3, [pc, #444]	@ (80032dc <HAL_RCC_GetSysClockFreq+0x2d4>)
 800311e:	681b      	ldr	r3, [r3, #0]
 8003120:	f003 0320 	and.w	r3, r3, #32
 8003124:	2b00      	cmp	r3, #0
 8003126:	d02d      	beq.n	8003184 <HAL_RCC_GetSysClockFreq+0x17c>
            {
              hsivalue = (HSI_VALUE >> (__HAL_RCC_GET_HSI_DIVIDER() >> 3));
 8003128:	4b6c      	ldr	r3, [pc, #432]	@ (80032dc <HAL_RCC_GetSysClockFreq+0x2d4>)
 800312a:	681b      	ldr	r3, [r3, #0]
 800312c:	08db      	lsrs	r3, r3, #3
 800312e:	f003 0303 	and.w	r3, r3, #3
 8003132:	4a6b      	ldr	r2, [pc, #428]	@ (80032e0 <HAL_RCC_GetSysClockFreq+0x2d8>)
 8003134:	fa22 f303 	lsr.w	r3, r2, r3
 8003138:	607b      	str	r3, [r7, #4]
              pllvco = ((float_t)hsivalue / (float_t)pllm) * ((float_t)(uint32_t)(RCC->PLL1DIVR & RCC_PLL1DIVR_N1) + (fracn1 / (float_t)0x2000) + (float_t)1);
 800313a:	687b      	ldr	r3, [r7, #4]
 800313c:	ee07 3a90 	vmov	s15, r3
 8003140:	eef8 6a67 	vcvt.f32.u32	s13, s15
 8003144:	693b      	ldr	r3, [r7, #16]
 8003146:	ee07 3a90 	vmov	s15, r3
 800314a:	eef8 7a67 	vcvt.f32.u32	s15, s15
 800314e:	ee86 7aa7 	vdiv.f32	s14, s13, s15
 8003152:	4b62      	ldr	r3, [pc, #392]	@ (80032dc <HAL_RCC_GetSysClockFreq+0x2d4>)
 8003154:	6b1b      	ldr	r3, [r3, #48]	@ 0x30
 8003156:	f3c3 0308 	ubfx	r3, r3, #0, #9
 800315a:	ee07 3a90 	vmov	s15, r3
 800315e:	eef8 6a67 	vcvt.f32.u32	s13, s15
 8003162:	ed97 6a02 	vldr	s12, [r7, #8]
 8003166:	eddf 5a61 	vldr	s11, [pc, #388]	@ 80032ec <HAL_RCC_GetSysClockFreq+0x2e4>
 800316a:	eec6 7a25 	vdiv.f32	s15, s12, s11
 800316e:	ee76 7aa7 	vadd.f32	s15, s13, s15
 8003172:	eef7 6a00 	vmov.f32	s13, #112	@ 0x3f800000  1.0
 8003176:	ee77 7aa6 	vadd.f32	s15, s15, s13
 800317a:	ee67 7a27 	vmul.f32	s15, s14, s15
 800317e:	edc7 7a07 	vstr	s15, [r7, #28]
            }
            else
            {
              pllvco = ((float_t)HSI_VALUE / (float_t)pllm) * ((float_t)(uint32_t)(RCC->PLL1DIVR & RCC_PLL1DIVR_N1) + (fracn1 / (float_t)0x2000) + (float_t)1);
            }
            break;
 8003182:	e087      	b.n	8003294 <HAL_RCC_GetSysClockFreq+0x28c>
              pllvco = ((float_t)HSI_VALUE / (float_t)pllm) * ((float_t)(uint32_t)(RCC->PLL1DIVR & RCC_PLL1DIVR_N1) + (fracn1 / (float_t)0x2000) + (float_t)1);
 8003184:	693b      	ldr	r3, [r7, #16]
 8003186:	ee07 3a90 	vmov	s15, r3
 800318a:	eef8 7a67 	vcvt.f32.u32	s15, s15
 800318e:	eddf 6a58 	vldr	s13, [pc, #352]	@ 80032f0 <HAL_RCC_GetSysClockFreq+0x2e8>
 8003192:	ee86 7aa7 	vdiv.f32	s14, s13, s15
 8003196:	4b51      	ldr	r3, [pc, #324]	@ (80032dc <HAL_RCC_GetSysClockFreq+0x2d4>)
 8003198:	6b1b      	ldr	r3, [r3, #48]	@ 0x30
 800319a:	f3c3 0308 	ubfx	r3, r3, #0, #9
 800319e:	ee07 3a90 	vmov	s15, r3
 80031a2:	eef8 6a67 	vcvt.f32.u32	s13, s15
 80031a6:	ed97 6a02 	vldr	s12, [r7, #8]
 80031aa:	eddf 5a50 	vldr	s11, [pc, #320]	@ 80032ec <HAL_RCC_GetSysClockFreq+0x2e4>
 80031ae:	eec6 7a25 	vdiv.f32	s15, s12, s11
 80031b2:	ee76 7aa7 	vadd.f32	s15, s13, s15
 80031b6:	eef7 6a00 	vmov.f32	s13, #112	@ 0x3f800000  1.0
 80031ba:	ee77 7aa6 	vadd.f32	s15, s15, s13
 80031be:	ee67 7a27 	vmul.f32	s15, s14, s15
 80031c2:	edc7 7a07 	vstr	s15, [r7, #28]
            break;
 80031c6:	e065      	b.n	8003294 <HAL_RCC_GetSysClockFreq+0x28c>

          case RCC_PLLSOURCE_CSI:  /* CSI used as PLL clock source */
            pllvco = ((float_t)CSI_VALUE / (float_t)pllm) * ((float_t)(uint32_t)(RCC->PLL1DIVR & RCC_PLL1DIVR_N1) + (fracn1 / (float_t)0x2000) + (float_t)1);
 80031c8:	693b      	ldr	r3, [r7, #16]
 80031ca:	ee07 3a90 	vmov	s15, r3
 80031ce:	eef8 7a67 	vcvt.f32.u32	s15, s15
 80031d2:	eddf 6a48 	vldr	s13, [pc, #288]	@ 80032f4 <HAL_RCC_GetSysClockFreq+0x2ec>
 80031d6:	ee86 7aa7 	vdiv.f32	s14, s13, s15
 80031da:	4b40      	ldr	r3, [pc, #256]	@ (80032dc <HAL_RCC_GetSysClockFreq+0x2d4>)
 80031dc:	6b1b      	ldr	r3, [r3, #48]	@ 0x30
 80031de:	f3c3 0308 	ubfx	r3, r3, #0, #9
 80031e2:	ee07 3a90 	vmov	s15, r3
 80031e6:	eef8 6a67 	vcvt.f32.u32	s13, s15
 80031ea:	ed97 6a02 	vldr	s12, [r7, #8]
 80031ee:	eddf 5a3f 	vldr	s11, [pc, #252]	@ 80032ec <HAL_RCC_GetSysClockFreq+0x2e4>
 80031f2:	eec6 7a25 	vdiv.f32	s15, s12, s11
 80031f6:	ee76 7aa7 	vadd.f32	s15, s13, s15
 80031fa:	eef7 6a00 	vmov.f32	s13, #112	@ 0x3f800000  1.0
 80031fe:	ee77 7aa6 	vadd.f32	s15, s15, s13
 8003202:	ee67 7a27 	vmul.f32	s15, s14, s15
 8003206:	edc7 7a07 	vstr	s15, [r7, #28]
            break;
 800320a:	e043      	b.n	8003294 <HAL_RCC_GetSysClockFreq+0x28c>

          case RCC_PLLSOURCE_HSE:  /* HSE used as PLL clock source */
            pllvco = ((float_t)HSE_VALUE / (float_t)pllm) * ((float_t)(uint32_t)(RCC->PLL1DIVR & RCC_PLL1DIVR_N1) + (fracn1 / (float_t)0x2000) + (float_t)1);
 800320c:	693b      	ldr	r3, [r7, #16]
 800320e:	ee07 3a90 	vmov	s15, r3
 8003212:	eef8 7a67 	vcvt.f32.u32	s15, s15
 8003216:	eddf 6a38 	vldr	s13, [pc, #224]	@ 80032f8 <HAL_RCC_GetSysClockFreq+0x2f0>
 800321a:	ee86 7aa7 	vdiv.f32	s14, s13, s15
 800321e:	4b2f      	ldr	r3, [pc, #188]	@ (80032dc <HAL_RCC_GetSysClockFreq+0x2d4>)
 8003220:	6b1b      	ldr	r3, [r3, #48]	@ 0x30
 8003222:	f3c3 0308 	ubfx	r3, r3, #0, #9
 8003226:	ee07 3a90 	vmov	s15, r3
 800322a:	eef8 6a67 	vcvt.f32.u32	s13, s15
 800322e:	ed97 6a02 	vldr	s12, [r7, #8]
 8003232:	eddf 5a2e 	vldr	s11, [pc, #184]	@ 80032ec <HAL_RCC_GetSysClockFreq+0x2e4>
 8003236:	eec6 7a25 	vdiv.f32	s15, s12, s11
 800323a:	ee76 7aa7 	vadd.f32	s15, s13, s15
 800323e:	eef7 6a00 	vmov.f32	s13, #112	@ 0x3f800000  1.0
 8003242:	ee77 7aa6 	vadd.f32	s15, s15, s13
 8003246:	ee67 7a27 	vmul.f32	s15, s14, s15
 800324a:	edc7 7a07 	vstr	s15, [r7, #28]
            break;
 800324e:	e021      	b.n	8003294 <HAL_RCC_GetSysClockFreq+0x28c>

          default:
            pllvco = ((float_t)CSI_VALUE / (float_t)pllm) * ((float_t)(uint32_t)(RCC->PLL1DIVR & RCC_PLL1DIVR_N1) + (fracn1 / (float_t)0x2000) + (float_t)1);
 8003250:	693b      	ldr	r3, [r7, #16]
 8003252:	ee07 3a90 	vmov	s15, r3
 8003256:	eef8 7a67 	vcvt.f32.u32	s15, s15
 800325a:	eddf 6a26 	vldr	s13, [pc, #152]	@ 80032f4 <HAL_RCC_GetSysClockFreq+0x2ec>
 800325e:	ee86 7aa7 	vdiv.f32	s14, s13, s15
 8003262:	4b1e      	ldr	r3, [pc, #120]	@ (80032dc <HAL_RCC_GetSysClockFreq+0x2d4>)
 8003264:	6b1b      	ldr	r3, [r3, #48]	@ 0x30
 8003266:	f3c3 0308 	ubfx	r3, r3, #0, #9
 800326a:	ee07 3a90 	vmov	s15, r3
 800326e:	eef8 6a67 	vcvt.f32.u32	s13, s15
 8003272:	ed97 6a02 	vldr	s12, [r7, #8]
 8003276:	eddf 5a1d 	vldr	s11, [pc, #116]	@ 80032ec <HAL_RCC_GetSysClockFreq+0x2e4>
 800327a:	eec6 7a25 	vdiv.f32	s15, s12, s11
 800327e:	ee76 7aa7 	vadd.f32	s15, s13, s15
 8003282:	eef7 6a00 	vmov.f32	s13, #112	@ 0x3f800000  1.0
 8003286:	ee77 7aa6 	vadd.f32	s15, s15, s13
 800328a:	ee67 7a27 	vmul.f32	s15, s14, s15
 800328e:	edc7 7a07 	vstr	s15, [r7, #28]
            break;
 8003292:	bf00      	nop
        }
        pllp = (((RCC->PLL1DIVR & RCC_PLL1DIVR_P1) >> 9) + 1U) ;
 8003294:	4b11      	ldr	r3, [pc, #68]	@ (80032dc <HAL_RCC_GetSysClockFreq+0x2d4>)
 8003296:	6b1b      	ldr	r3, [r3, #48]	@ 0x30
 8003298:	0a5b      	lsrs	r3, r3, #9
 800329a:	f003 037f 	and.w	r3, r3, #127	@ 0x7f
 800329e:	3301      	adds	r3, #1
 80032a0:	603b      	str	r3, [r7, #0]
        sysclockfreq = (uint32_t)(float_t)(pllvco / (float_t)pllp);
 80032a2:	683b      	ldr	r3, [r7, #0]
 80032a4:	ee07 3a90 	vmov	s15, r3
 80032a8:	eeb8 7a67 	vcvt.f32.u32	s14, s15
 80032ac:	edd7 6a07 	vldr	s13, [r7, #28]
 80032b0:	eec6 7a87 	vdiv.f32	s15, s13, s14
 80032b4:	eefc 7ae7 	vcvt.u32.f32	s15, s15
 80032b8:	ee17 3a90 	vmov	r3, s15
 80032bc:	61bb      	str	r3, [r7, #24]
      }
      else
      {
        sysclockfreq = 0U;
      }
      break;
 80032be:	e005      	b.n	80032cc <HAL_RCC_GetSysClockFreq+0x2c4>
        sysclockfreq = 0U;
 80032c0:	2300      	movs	r3, #0
 80032c2:	61bb      	str	r3, [r7, #24]
      break;
 80032c4:	e002      	b.n	80032cc <HAL_RCC_GetSysClockFreq+0x2c4>

    default:
      sysclockfreq = CSI_VALUE;
 80032c6:	4b07      	ldr	r3, [pc, #28]	@ (80032e4 <HAL_RCC_GetSysClockFreq+0x2dc>)
 80032c8:	61bb      	str	r3, [r7, #24]
      break;
 80032ca:	bf00      	nop
  }

  return sysclockfreq;
 80032cc:	69bb      	ldr	r3, [r7, #24]
}
 80032ce:	4618      	mov	r0, r3
 80032d0:	3724      	adds	r7, #36	@ 0x24
 80032d2:	46bd      	mov	sp, r7
 80032d4:	f85d 7b04 	ldr.w	r7, [sp], #4
 80032d8:	4770      	bx	lr
 80032da:	bf00      	nop
 80032dc:	58024400 	.word	0x58024400
 80032e0:	03d09000 	.word	0x03d09000
 80032e4:	003d0900 	.word	0x003d0900
 80032e8:	007a1200 	.word	0x007a1200
 80032ec:	46000000 	.word	0x46000000
 80032f0:	4c742400 	.word	0x4c742400
 80032f4:	4a742400 	.word	0x4a742400
 80032f8:	4af42400 	.word	0x4af42400

080032fc <HAL_RCC_GetHCLKFreq>:
  * @note   The SystemD2Clock CMSIS variable is used to store System domain2 Clock Frequency
  *         and updated within this function
  * @retval HCLK frequency
  */
uint32_t HAL_RCC_GetHCLKFreq(void)
{
 80032fc:	b580      	push	{r7, lr}
 80032fe:	b082      	sub	sp, #8
 8003300:	af00      	add	r7, sp, #0
  uint32_t common_system_clock;

#if defined(RCC_D1CFGR_D1CPRE)
  common_system_clock = HAL_RCC_GetSysClockFreq() >> (D1CorePrescTable[(RCC->D1CFGR & RCC_D1CFGR_D1CPRE) >> RCC_D1CFGR_D1CPRE_Pos] & 0x1FU);
 8003302:	f7ff fe81 	bl	8003008 <HAL_RCC_GetSysClockFreq>
 8003306:	4602      	mov	r2, r0
 8003308:	4b10      	ldr	r3, [pc, #64]	@ (800334c <HAL_RCC_GetHCLKFreq+0x50>)
 800330a:	699b      	ldr	r3, [r3, #24]
 800330c:	0a1b      	lsrs	r3, r3, #8
 800330e:	f003 030f 	and.w	r3, r3, #15
 8003312:	490f      	ldr	r1, [pc, #60]	@ (8003350 <HAL_RCC_GetHCLKFreq+0x54>)
 8003314:	5ccb      	ldrb	r3, [r1, r3]
 8003316:	f003 031f 	and.w	r3, r3, #31
 800331a:	fa22 f303 	lsr.w	r3, r2, r3
 800331e:	607b      	str	r3, [r7, #4]
#else
  common_system_clock = HAL_RCC_GetSysClockFreq() >> (D1CorePrescTable[(RCC->CDCFGR1 & RCC_CDCFGR1_CDCPRE) >> RCC_CDCFGR1_CDCPRE_Pos] & 0x1FU);
#endif

#if defined(RCC_D1CFGR_HPRE)
  SystemD2Clock = (common_system_clock >> ((D1CorePrescTable[(RCC->D1CFGR & RCC_D1CFGR_HPRE) >> RCC_D1CFGR_HPRE_Pos]) & 0x1FU));
 8003320:	4b0a      	ldr	r3, [pc, #40]	@ (800334c <HAL_RCC_GetHCLKFreq+0x50>)
 8003322:	699b      	ldr	r3, [r3, #24]
 8003324:	f003 030f 	and.w	r3, r3, #15
 8003328:	4a09      	ldr	r2, [pc, #36]	@ (8003350 <HAL_RCC_GetHCLKFreq+0x54>)
 800332a:	5cd3      	ldrb	r3, [r2, r3]
 800332c:	f003 031f 	and.w	r3, r3, #31
 8003330:	687a      	ldr	r2, [r7, #4]
 8003332:	fa22 f303 	lsr.w	r3, r2, r3
 8003336:	4a07      	ldr	r2, [pc, #28]	@ (8003354 <HAL_RCC_GetHCLKFreq+0x58>)
 8003338:	6013      	str	r3, [r2, #0]
#endif

#if defined(DUAL_CORE) && defined(CORE_CM4)
  SystemCoreClock = SystemD2Clock;
#else
  SystemCoreClock = common_system_clock;
 800333a:	4a07      	ldr	r2, [pc, #28]	@ (8003358 <HAL_RCC_GetHCLKFreq+0x5c>)
 800333c:	687b      	ldr	r3, [r7, #4]
 800333e:	6013      	str	r3, [r2, #0]
#endif /* DUAL_CORE && CORE_CM4 */

  return SystemD2Clock;
 8003340:	4b04      	ldr	r3, [pc, #16]	@ (8003354 <HAL_RCC_GetHCLKFreq+0x58>)
 8003342:	681b      	ldr	r3, [r3, #0]
}
 8003344:	4618      	mov	r0, r3
 8003346:	3708      	adds	r7, #8
 8003348:	46bd      	mov	sp, r7
 800334a:	bd80      	pop	{r7, pc}
 800334c:	58024400 	.word	0x58024400
 8003350:	080061dc 	.word	0x080061dc
 8003354:	24000004 	.word	0x24000004
 8003358:	24000000 	.word	0x24000000

0800335c <HAL_RCC_GetPCLK1Freq>:
  * @note   Each time PCLK1 changes, this function must be called to update the
  *         right PCLK1 value. Otherwise, any configuration based on this function will be incorrect.
  * @retval PCLK1 frequency
  */
uint32_t HAL_RCC_GetPCLK1Freq(void)
{
 800335c:	b580      	push	{r7, lr}
 800335e:	af00      	add	r7, sp, #0
#if defined (RCC_D2CFGR_D2PPRE1)
  /* Get HCLK source and Compute PCLK1 frequency ---------------------------*/
  return (HAL_RCC_GetHCLKFreq() >> ((D1CorePrescTable[(RCC->D2CFGR & RCC_D2CFGR_D2PPRE1) >> RCC_D2CFGR_D2PPRE1_Pos]) & 0x1FU));
 8003360:	f7ff ffcc 	bl	80032fc <HAL_RCC_GetHCLKFreq>
 8003364:	4602      	mov	r2, r0
 8003366:	4b06      	ldr	r3, [pc, #24]	@ (8003380 <HAL_RCC_GetPCLK1Freq+0x24>)
 8003368:	69db      	ldr	r3, [r3, #28]
 800336a:	091b      	lsrs	r3, r3, #4
 800336c:	f003 0307 	and.w	r3, r3, #7
 8003370:	4904      	ldr	r1, [pc, #16]	@ (8003384 <HAL_RCC_GetPCLK1Freq+0x28>)
 8003372:	5ccb      	ldrb	r3, [r1, r3]
 8003374:	f003 031f 	and.w	r3, r3, #31
 8003378:	fa22 f303 	lsr.w	r3, r2, r3
#else
  /* Get HCLK source and Compute PCLK1 frequency ---------------------------*/
  return (HAL_RCC_GetHCLKFreq() >> ((D1CorePrescTable[(RCC->CDCFGR2 & RCC_CDCFGR2_CDPPRE1) >> RCC_CDCFGR2_CDPPRE1_Pos]) & 0x1FU));
#endif
}
 800337c:	4618      	mov	r0, r3
 800337e:	bd80      	pop	{r7, pc}
 8003380:	58024400 	.word	0x58024400
 8003384:	080061dc 	.word	0x080061dc

08003388 <HAL_RCC_GetPCLK2Freq>:
  * @note   Each time PCLK2 changes, this function must be called to update the
  *         right PCLK2 value. Otherwise, any configuration based on this function will be incorrect.
  * @retval PCLK1 frequency
  */
uint32_t HAL_RCC_GetPCLK2Freq(void)
{
 8003388:	b580      	push	{r7, lr}
 800338a:	af00      	add	r7, sp, #0
  /* Get HCLK source and Compute PCLK1 frequency ---------------------------*/
#if defined(RCC_D2CFGR_D2PPRE2)
  return (HAL_RCC_GetHCLKFreq() >> ((D1CorePrescTable[(RCC->D2CFGR & RCC_D2CFGR_D2PPRE2) >> RCC_D2CFGR_D2PPRE2_Pos]) & 0x1FU));
 800338c:	f7ff ffb6 	bl	80032fc <HAL_RCC_GetHCLKFreq>
 8003390:	4602      	mov	r2, r0
 8003392:	4b06      	ldr	r3, [pc, #24]	@ (80033ac <HAL_RCC_GetPCLK2Freq+0x24>)
 8003394:	69db      	ldr	r3, [r3, #28]
 8003396:	0a1b      	lsrs	r3, r3, #8
 8003398:	f003 0307 	and.w	r3, r3, #7
 800339c:	4904      	ldr	r1, [pc, #16]	@ (80033b0 <HAL_RCC_GetPCLK2Freq+0x28>)
 800339e:	5ccb      	ldrb	r3, [r1, r3]
 80033a0:	f003 031f 	and.w	r3, r3, #31
 80033a4:	fa22 f303 	lsr.w	r3, r2, r3
#else
  return (HAL_RCC_GetHCLKFreq() >> ((D1CorePrescTable[(RCC->CDCFGR2 & RCC_CDCFGR2_CDPPRE2) >> RCC_CDCFGR2_CDPPRE2_Pos]) & 0x1FU));
#endif
}
 80033a8:	4618      	mov	r0, r3
 80033aa:	bd80      	pop	{r7, pc}
 80033ac:	58024400 	.word	0x58024400
 80033b0:	080061dc 	.word	0x080061dc

080033b4 <HAL_RCCEx_PeriphCLKConfig>:
  * (*) : Available on some STM32H7 lines only.
  *
  * @retval HAL status
  */
HAL_StatusTypeDef HAL_RCCEx_PeriphCLKConfig(RCC_PeriphCLKInitTypeDef  *PeriphClkInit)
{
 80033b4:	e92d 4fb0 	stmdb	sp!, {r4, r5, r7, r8, r9, sl, fp, lr}
 80033b8:	b0c6      	sub	sp, #280	@ 0x118
 80033ba:	af00      	add	r7, sp, #0
 80033bc:	f8c7 0104 	str.w	r0, [r7, #260]	@ 0x104
  uint32_t tmpreg;
  uint32_t tickstart;
  HAL_StatusTypeDef ret = HAL_OK;      /* Intermediate status */
 80033c0:	2300      	movs	r3, #0
 80033c2:	f887 3117 	strb.w	r3, [r7, #279]	@ 0x117
  HAL_StatusTypeDef status = HAL_OK;   /* Final status */
 80033c6:	2300      	movs	r3, #0
 80033c8:	f887 3116 	strb.w	r3, [r7, #278]	@ 0x116

  /*---------------------------- SPDIFRX configuration -------------------------------*/

  if (((PeriphClkInit->PeriphClockSelection) & RCC_PERIPHCLK_SPDIFRX) == RCC_PERIPHCLK_SPDIFRX)
 80033cc:	f8d7 3104 	ldr.w	r3, [r7, #260]	@ 0x104
 80033d0:	e9d3 2300 	ldrd	r2, r3, [r3]
 80033d4:	f002 6400 	and.w	r4, r2, #134217728	@ 0x8000000
 80033d8:	2500      	movs	r5, #0
 80033da:	ea54 0305 	orrs.w	r3, r4, r5
 80033de:	d049      	beq.n	8003474 <HAL_RCCEx_PeriphCLKConfig+0xc0>
  {

    switch (PeriphClkInit->SpdifrxClockSelection)
 80033e0:	f8d7 3104 	ldr.w	r3, [r7, #260]	@ 0x104
 80033e4:	6e5b      	ldr	r3, [r3, #100]	@ 0x64
 80033e6:	f5b3 1f40 	cmp.w	r3, #3145728	@ 0x300000
 80033ea:	d02f      	beq.n	800344c <HAL_RCCEx_PeriphCLKConfig+0x98>
 80033ec:	f5b3 1f40 	cmp.w	r3, #3145728	@ 0x300000
 80033f0:	d828      	bhi.n	8003444 <HAL_RCCEx_PeriphCLKConfig+0x90>
 80033f2:	f5b3 1f00 	cmp.w	r3, #2097152	@ 0x200000
 80033f6:	d01a      	beq.n	800342e <HAL_RCCEx_PeriphCLKConfig+0x7a>
 80033f8:	f5b3 1f00 	cmp.w	r3, #2097152	@ 0x200000
 80033fc:	d822      	bhi.n	8003444 <HAL_RCCEx_PeriphCLKConfig+0x90>
 80033fe:	2b00      	cmp	r3, #0
 8003400:	d003      	beq.n	800340a <HAL_RCCEx_PeriphCLKConfig+0x56>
 8003402:	f5b3 1f80 	cmp.w	r3, #1048576	@ 0x100000
 8003406:	d007      	beq.n	8003418 <HAL_RCCEx_PeriphCLKConfig+0x64>
 8003408:	e01c      	b.n	8003444 <HAL_RCCEx_PeriphCLKConfig+0x90>
    {
      case RCC_SPDIFRXCLKSOURCE_PLL:      /* PLL is used as clock source for SPDIFRX*/
        /* Enable PLL1Q Clock output generated form System PLL . */
        __HAL_RCC_PLLCLKOUT_ENABLE(RCC_PLL1_DIVQ);
 800340a:	4bab      	ldr	r3, [pc, #684]	@ (80036b8 <HAL_RCCEx_PeriphCLKConfig+0x304>)
 800340c:	6adb      	ldr	r3, [r3, #44]	@ 0x2c
 800340e:	4aaa      	ldr	r2, [pc, #680]	@ (80036b8 <HAL_RCCEx_PeriphCLKConfig+0x304>)
 8003410:	f443 3300 	orr.w	r3, r3, #131072	@ 0x20000
 8003414:	62d3      	str	r3, [r2, #44]	@ 0x2c

        /* SPDIFRX clock source configuration done later after clock selection check */
        break;
 8003416:	e01a      	b.n	800344e <HAL_RCCEx_PeriphCLKConfig+0x9a>

      case RCC_SPDIFRXCLKSOURCE_PLL2: /* PLL2 is used as clock source for SPDIFRX*/

        ret = RCCEx_PLL2_Config(&(PeriphClkInit->PLL2), DIVIDER_R_UPDATE);
 8003418:	f8d7 3104 	ldr.w	r3, [r7, #260]	@ 0x104
 800341c:	3308      	adds	r3, #8
 800341e:	2102      	movs	r1, #2
 8003420:	4618      	mov	r0, r3
 8003422:	f001 fc25 	bl	8004c70 <RCCEx_PLL2_Config>
 8003426:	4603      	mov	r3, r0
 8003428:	f887 3117 	strb.w	r3, [r7, #279]	@ 0x117

        /* SPDIFRX clock source configuration done later after clock selection check */
        break;
 800342c:	e00f      	b.n	800344e <HAL_RCCEx_PeriphCLKConfig+0x9a>

      case RCC_SPDIFRXCLKSOURCE_PLL3:  /* PLL3 is used as clock source for SPDIFRX*/
        ret = RCCEx_PLL3_Config(&(PeriphClkInit->PLL3), DIVIDER_R_UPDATE);
 800342e:	f8d7 3104 	ldr.w	r3, [r7, #260]	@ 0x104
 8003432:	3328      	adds	r3, #40	@ 0x28
 8003434:	2102      	movs	r1, #2
 8003436:	4618      	mov	r0, r3
 8003438:	f001 fccc 	bl	8004dd4 <RCCEx_PLL3_Config>
 800343c:	4603      	mov	r3, r0
 800343e:	f887 3117 	strb.w	r3, [r7, #279]	@ 0x117

        /* SPDIFRX clock source configuration done later after clock selection check */
        break;
 8003442:	e004      	b.n	800344e <HAL_RCCEx_PeriphCLKConfig+0x9a>
        /* Internal OSC clock is used as source of SPDIFRX clock*/
        /* SPDIFRX clock source configuration done later after clock selection check */
        break;

      default:
        ret = HAL_ERROR;
 8003444:	2301      	movs	r3, #1
 8003446:	f887 3117 	strb.w	r3, [r7, #279]	@ 0x117
        break;
 800344a:	e000      	b.n	800344e <HAL_RCCEx_PeriphCLKConfig+0x9a>
        break;
 800344c:	bf00      	nop
    }

    if (ret == HAL_OK)
 800344e:	f897 3117 	ldrb.w	r3, [r7, #279]	@ 0x117
 8003452:	2b00      	cmp	r3, #0
 8003454:	d10a      	bne.n	800346c <HAL_RCCEx_PeriphCLKConfig+0xb8>
    {
      /* Set the source of SPDIFRX clock*/
      __HAL_RCC_SPDIFRX_CONFIG(PeriphClkInit->SpdifrxClockSelection);
 8003456:	4b98      	ldr	r3, [pc, #608]	@ (80036b8 <HAL_RCCEx_PeriphCLKConfig+0x304>)
 8003458:	6d1b      	ldr	r3, [r3, #80]	@ 0x50
 800345a:	f423 1140 	bic.w	r1, r3, #3145728	@ 0x300000
 800345e:	f8d7 3104 	ldr.w	r3, [r7, #260]	@ 0x104
 8003462:	6e5b      	ldr	r3, [r3, #100]	@ 0x64
 8003464:	4a94      	ldr	r2, [pc, #592]	@ (80036b8 <HAL_RCCEx_PeriphCLKConfig+0x304>)
 8003466:	430b      	orrs	r3, r1
 8003468:	6513      	str	r3, [r2, #80]	@ 0x50
 800346a:	e003      	b.n	8003474 <HAL_RCCEx_PeriphCLKConfig+0xc0>
    }
    else
    {
      /* set overall return value */
      status = ret;
 800346c:	f897 3117 	ldrb.w	r3, [r7, #279]	@ 0x117
 8003470:	f887 3116 	strb.w	r3, [r7, #278]	@ 0x116
    }
  }

  /*---------------------------- SAI1 configuration -------------------------------*/
  if (((PeriphClkInit->PeriphClockSelection) & RCC_PERIPHCLK_SAI1) == RCC_PERIPHCLK_SAI1)
 8003474:	f8d7 3104 	ldr.w	r3, [r7, #260]	@ 0x104
 8003478:	e9d3 2300 	ldrd	r2, r3, [r3]
 800347c:	f402 7880 	and.w	r8, r2, #256	@ 0x100
 8003480:	f04f 0900 	mov.w	r9, #0
 8003484:	ea58 0309 	orrs.w	r3, r8, r9
 8003488:	d047      	beq.n	800351a <HAL_RCCEx_PeriphCLKConfig+0x166>
  {
    switch (PeriphClkInit->Sai1ClockSelection)
 800348a:	f8d7 3104 	ldr.w	r3, [r7, #260]	@ 0x104
 800348e:	6d9b      	ldr	r3, [r3, #88]	@ 0x58
 8003490:	2b04      	cmp	r3, #4
 8003492:	d82a      	bhi.n	80034ea <HAL_RCCEx_PeriphCLKConfig+0x136>
 8003494:	a201      	add	r2, pc, #4	@ (adr r2, 800349c <HAL_RCCEx_PeriphCLKConfig+0xe8>)
 8003496:	f852 f023 	ldr.w	pc, [r2, r3, lsl #2]
 800349a:	bf00      	nop
 800349c:	080034b1 	.word	0x080034b1
 80034a0:	080034bf 	.word	0x080034bf
 80034a4:	080034d5 	.word	0x080034d5
 80034a8:	080034f3 	.word	0x080034f3
 80034ac:	080034f3 	.word	0x080034f3
    {
      case RCC_SAI1CLKSOURCE_PLL:      /* PLL is used as clock source for SAI1*/
        /* Enable SAI Clock output generated form System PLL . */
        __HAL_RCC_PLLCLKOUT_ENABLE(RCC_PLL1_DIVQ);
 80034b0:	4b81      	ldr	r3, [pc, #516]	@ (80036b8 <HAL_RCCEx_PeriphCLKConfig+0x304>)
 80034b2:	6adb      	ldr	r3, [r3, #44]	@ 0x2c
 80034b4:	4a80      	ldr	r2, [pc, #512]	@ (80036b8 <HAL_RCCEx_PeriphCLKConfig+0x304>)
 80034b6:	f443 3300 	orr.w	r3, r3, #131072	@ 0x20000
 80034ba:	62d3      	str	r3, [r2, #44]	@ 0x2c

        /* SAI1 clock source configuration done later after clock selection check */
        break;
 80034bc:	e01a      	b.n	80034f4 <HAL_RCCEx_PeriphCLKConfig+0x140>

      case RCC_SAI1CLKSOURCE_PLL2: /* PLL2 is used as clock source for SAI1*/

        ret = RCCEx_PLL2_Config(&(PeriphClkInit->PLL2), DIVIDER_P_UPDATE);
 80034be:	f8d7 3104 	ldr.w	r3, [r7, #260]	@ 0x104
 80034c2:	3308      	adds	r3, #8
 80034c4:	2100      	movs	r1, #0
 80034c6:	4618      	mov	r0, r3
 80034c8:	f001 fbd2 	bl	8004c70 <RCCEx_PLL2_Config>
 80034cc:	4603      	mov	r3, r0
 80034ce:	f887 3117 	strb.w	r3, [r7, #279]	@ 0x117

        /* SAI1 clock source configuration done later after clock selection check */
        break;
 80034d2:	e00f      	b.n	80034f4 <HAL_RCCEx_PeriphCLKConfig+0x140>

      case RCC_SAI1CLKSOURCE_PLL3:  /* PLL3 is used as clock source for SAI1*/
        ret = RCCEx_PLL3_Config(&(PeriphClkInit->PLL3), DIVIDER_P_UPDATE);
 80034d4:	f8d7 3104 	ldr.w	r3, [r7, #260]	@ 0x104
 80034d8:	3328      	adds	r3, #40	@ 0x28
 80034da:	2100      	movs	r1, #0
 80034dc:	4618      	mov	r0, r3
 80034de:	f001 fc79 	bl	8004dd4 <RCCEx_PLL3_Config>
 80034e2:	4603      	mov	r3, r0
 80034e4:	f887 3117 	strb.w	r3, [r7, #279]	@ 0x117

        /* SAI1 clock source configuration done later after clock selection check */
        break;
 80034e8:	e004      	b.n	80034f4 <HAL_RCCEx_PeriphCLKConfig+0x140>
        /* HSI, HSE, or CSI oscillator is used as source of SAI1 clock */
        /* SAI1 clock source configuration done later after clock selection check */
        break;

      default:
        ret = HAL_ERROR;
 80034ea:	2301      	movs	r3, #1
 80034ec:	f887 3117 	strb.w	r3, [r7, #279]	@ 0x117
        break;
 80034f0:	e000      	b.n	80034f4 <HAL_RCCEx_PeriphCLKConfig+0x140>
        break;
 80034f2:	bf00      	nop
    }

    if (ret == HAL_OK)
 80034f4:	f897 3117 	ldrb.w	r3, [r7, #279]	@ 0x117
 80034f8:	2b00      	cmp	r3, #0
 80034fa:	d10a      	bne.n	8003512 <HAL_RCCEx_PeriphCLKConfig+0x15e>
    {
      /* Set the source of SAI1 clock*/
      __HAL_RCC_SAI1_CONFIG(PeriphClkInit->Sai1ClockSelection);
 80034fc:	4b6e      	ldr	r3, [pc, #440]	@ (80036b8 <HAL_RCCEx_PeriphCLKConfig+0x304>)
 80034fe:	6d1b      	ldr	r3, [r3, #80]	@ 0x50
 8003500:	f023 0107 	bic.w	r1, r3, #7
 8003504:	f8d7 3104 	ldr.w	r3, [r7, #260]	@ 0x104
 8003508:	6d9b      	ldr	r3, [r3, #88]	@ 0x58
 800350a:	4a6b      	ldr	r2, [pc, #428]	@ (80036b8 <HAL_RCCEx_PeriphCLKConfig+0x304>)
 800350c:	430b      	orrs	r3, r1
 800350e:	6513      	str	r3, [r2, #80]	@ 0x50
 8003510:	e003      	b.n	800351a <HAL_RCCEx_PeriphCLKConfig+0x166>
    }
    else
    {
      /* set overall return value */
      status = ret;
 8003512:	f897 3117 	ldrb.w	r3, [r7, #279]	@ 0x117
 8003516:	f887 3116 	strb.w	r3, [r7, #278]	@ 0x116
  }
#endif  /*SAI2B*/

#if defined(SAI4)
  /*---------------------------- SAI4A configuration -------------------------------*/
  if (((PeriphClkInit->PeriphClockSelection) & RCC_PERIPHCLK_SAI4A) == RCC_PERIPHCLK_SAI4A)
 800351a:	f8d7 3104 	ldr.w	r3, [r7, #260]	@ 0x104
 800351e:	e9d3 2300 	ldrd	r2, r3, [r3]
 8003522:	f402 6a80 	and.w	sl, r2, #1024	@ 0x400
 8003526:	f04f 0b00 	mov.w	fp, #0
 800352a:	ea5a 030b 	orrs.w	r3, sl, fp
 800352e:	d05b      	beq.n	80035e8 <HAL_RCCEx_PeriphCLKConfig+0x234>
  {
    switch (PeriphClkInit->Sai4AClockSelection)
 8003530:	f8d7 3104 	ldr.w	r3, [r7, #260]	@ 0x104
 8003534:	f8d3 30a4 	ldr.w	r3, [r3, #164]	@ 0xa4
 8003538:	f5b3 0f20 	cmp.w	r3, #10485760	@ 0xa00000
 800353c:	d03b      	beq.n	80035b6 <HAL_RCCEx_PeriphCLKConfig+0x202>
 800353e:	f5b3 0f20 	cmp.w	r3, #10485760	@ 0xa00000
 8003542:	d834      	bhi.n	80035ae <HAL_RCCEx_PeriphCLKConfig+0x1fa>
 8003544:	f5b3 0f00 	cmp.w	r3, #8388608	@ 0x800000
 8003548:	d037      	beq.n	80035ba <HAL_RCCEx_PeriphCLKConfig+0x206>
 800354a:	f5b3 0f00 	cmp.w	r3, #8388608	@ 0x800000
 800354e:	d82e      	bhi.n	80035ae <HAL_RCCEx_PeriphCLKConfig+0x1fa>
 8003550:	f5b3 0fc0 	cmp.w	r3, #6291456	@ 0x600000
 8003554:	d033      	beq.n	80035be <HAL_RCCEx_PeriphCLKConfig+0x20a>
 8003556:	f5b3 0fc0 	cmp.w	r3, #6291456	@ 0x600000
 800355a:	d828      	bhi.n	80035ae <HAL_RCCEx_PeriphCLKConfig+0x1fa>
 800355c:	f5b3 0f80 	cmp.w	r3, #4194304	@ 0x400000
 8003560:	d01a      	beq.n	8003598 <HAL_RCCEx_PeriphCLKConfig+0x1e4>
 8003562:	f5b3 0f80 	cmp.w	r3, #4194304	@ 0x400000
 8003566:	d822      	bhi.n	80035ae <HAL_RCCEx_PeriphCLKConfig+0x1fa>
 8003568:	2b00      	cmp	r3, #0
 800356a:	d003      	beq.n	8003574 <HAL_RCCEx_PeriphCLKConfig+0x1c0>
 800356c:	f5b3 1f00 	cmp.w	r3, #2097152	@ 0x200000
 8003570:	d007      	beq.n	8003582 <HAL_RCCEx_PeriphCLKConfig+0x1ce>
 8003572:	e01c      	b.n	80035ae <HAL_RCCEx_PeriphCLKConfig+0x1fa>
    {
      case RCC_SAI4ACLKSOURCE_PLL:      /* PLL is used as clock source for SAI2*/
        /* Enable SAI Clock output generated form System PLL . */
        __HAL_RCC_PLLCLKOUT_ENABLE(RCC_PLL1_DIVQ);
 8003574:	4b50      	ldr	r3, [pc, #320]	@ (80036b8 <HAL_RCCEx_PeriphCLKConfig+0x304>)
 8003576:	6adb      	ldr	r3, [r3, #44]	@ 0x2c
 8003578:	4a4f      	ldr	r2, [pc, #316]	@ (80036b8 <HAL_RCCEx_PeriphCLKConfig+0x304>)
 800357a:	f443 3300 	orr.w	r3, r3, #131072	@ 0x20000
 800357e:	62d3      	str	r3, [r2, #44]	@ 0x2c

        /* SAI1 clock source configuration done later after clock selection check */
        break;
 8003580:	e01e      	b.n	80035c0 <HAL_RCCEx_PeriphCLKConfig+0x20c>

      case RCC_SAI4ACLKSOURCE_PLL2: /* PLL2 is used as clock source for SAI2*/

        ret = RCCEx_PLL2_Config(&(PeriphClkInit->PLL2), DIVIDER_P_UPDATE);
 8003582:	f8d7 3104 	ldr.w	r3, [r7, #260]	@ 0x104
 8003586:	3308      	adds	r3, #8
 8003588:	2100      	movs	r1, #0
 800358a:	4618      	mov	r0, r3
 800358c:	f001 fb70 	bl	8004c70 <RCCEx_PLL2_Config>
 8003590:	4603      	mov	r3, r0
 8003592:	f887 3117 	strb.w	r3, [r7, #279]	@ 0x117

        /* SAI2 clock source configuration done later after clock selection check */
        break;
 8003596:	e013      	b.n	80035c0 <HAL_RCCEx_PeriphCLKConfig+0x20c>

      case RCC_SAI4ACLKSOURCE_PLL3:  /* PLL3 is used as clock source for SAI2*/
        ret = RCCEx_PLL3_Config(&(PeriphClkInit->PLL3), DIVIDER_P_UPDATE);
 8003598:	f8d7 3104 	ldr.w	r3, [r7, #260]	@ 0x104
 800359c:	3328      	adds	r3, #40	@ 0x28
 800359e:	2100      	movs	r1, #0
 80035a0:	4618      	mov	r0, r3
 80035a2:	f001 fc17 	bl	8004dd4 <RCCEx_PLL3_Config>
 80035a6:	4603      	mov	r3, r0
 80035a8:	f887 3117 	strb.w	r3, [r7, #279]	@ 0x117

        /* SAI1 clock source configuration done later after clock selection check */
        break;
 80035ac:	e008      	b.n	80035c0 <HAL_RCCEx_PeriphCLKConfig+0x20c>
        /* SAI4A clock source configuration done later after clock selection check */
        break;
#endif /* RCC_VER_3_0 */

      default:
        ret = HAL_ERROR;
 80035ae:	2301      	movs	r3, #1
 80035b0:	f887 3117 	strb.w	r3, [r7, #279]	@ 0x117
        break;
 80035b4:	e004      	b.n	80035c0 <HAL_RCCEx_PeriphCLKConfig+0x20c>
        break;
 80035b6:	bf00      	nop
 80035b8:	e002      	b.n	80035c0 <HAL_RCCEx_PeriphCLKConfig+0x20c>
        break;
 80035ba:	bf00      	nop
 80035bc:	e000      	b.n	80035c0 <HAL_RCCEx_PeriphCLKConfig+0x20c>
        break;
 80035be:	bf00      	nop
    }

    if (ret == HAL_OK)
 80035c0:	f897 3117 	ldrb.w	r3, [r7, #279]	@ 0x117
 80035c4:	2b00      	cmp	r3, #0
 80035c6:	d10b      	bne.n	80035e0 <HAL_RCCEx_PeriphCLKConfig+0x22c>
    {
      /* Set the source of SAI4A clock*/
      __HAL_RCC_SAI4A_CONFIG(PeriphClkInit->Sai4AClockSelection);
 80035c8:	4b3b      	ldr	r3, [pc, #236]	@ (80036b8 <HAL_RCCEx_PeriphCLKConfig+0x304>)
 80035ca:	6d9b      	ldr	r3, [r3, #88]	@ 0x58
 80035cc:	f423 0160 	bic.w	r1, r3, #14680064	@ 0xe00000
 80035d0:	f8d7 3104 	ldr.w	r3, [r7, #260]	@ 0x104
 80035d4:	f8d3 30a4 	ldr.w	r3, [r3, #164]	@ 0xa4
 80035d8:	4a37      	ldr	r2, [pc, #220]	@ (80036b8 <HAL_RCCEx_PeriphCLKConfig+0x304>)
 80035da:	430b      	orrs	r3, r1
 80035dc:	6593      	str	r3, [r2, #88]	@ 0x58
 80035de:	e003      	b.n	80035e8 <HAL_RCCEx_PeriphCLKConfig+0x234>
    }
    else
    {
      /* set overall return value */
      status = ret;
 80035e0:	f897 3117 	ldrb.w	r3, [r7, #279]	@ 0x117
 80035e4:	f887 3116 	strb.w	r3, [r7, #278]	@ 0x116
    }
  }
  /*---------------------------- SAI4B configuration -------------------------------*/
  if (((PeriphClkInit->PeriphClockSelection) & RCC_PERIPHCLK_SAI4B) == RCC_PERIPHCLK_SAI4B)
 80035e8:	f8d7 3104 	ldr.w	r3, [r7, #260]	@ 0x104
 80035ec:	e9d3 2300 	ldrd	r2, r3, [r3]
 80035f0:	f402 6300 	and.w	r3, r2, #2048	@ 0x800
 80035f4:	f8c7 30f8 	str.w	r3, [r7, #248]	@ 0xf8
 80035f8:	2300      	movs	r3, #0
 80035fa:	f8c7 30fc 	str.w	r3, [r7, #252]	@ 0xfc
 80035fe:	e9d7 123e 	ldrd	r1, r2, [r7, #248]	@ 0xf8
 8003602:	460b      	mov	r3, r1
 8003604:	4313      	orrs	r3, r2
 8003606:	d05d      	beq.n	80036c4 <HAL_RCCEx_PeriphCLKConfig+0x310>
  {
    switch (PeriphClkInit->Sai4BClockSelection)
 8003608:	f8d7 3104 	ldr.w	r3, [r7, #260]	@ 0x104
 800360c:	f8d3 30a8 	ldr.w	r3, [r3, #168]	@ 0xa8
 8003610:	f1b3 6fa0 	cmp.w	r3, #83886080	@ 0x5000000
 8003614:	d03b      	beq.n	800368e <HAL_RCCEx_PeriphCLKConfig+0x2da>
 8003616:	f1b3 6fa0 	cmp.w	r3, #83886080	@ 0x5000000
 800361a:	d834      	bhi.n	8003686 <HAL_RCCEx_PeriphCLKConfig+0x2d2>
 800361c:	f1b3 6f80 	cmp.w	r3, #67108864	@ 0x4000000
 8003620:	d037      	beq.n	8003692 <HAL_RCCEx_PeriphCLKConfig+0x2de>
 8003622:	f1b3 6f80 	cmp.w	r3, #67108864	@ 0x4000000
 8003626:	d82e      	bhi.n	8003686 <HAL_RCCEx_PeriphCLKConfig+0x2d2>
 8003628:	f1b3 7f40 	cmp.w	r3, #50331648	@ 0x3000000
 800362c:	d033      	beq.n	8003696 <HAL_RCCEx_PeriphCLKConfig+0x2e2>
 800362e:	f1b3 7f40 	cmp.w	r3, #50331648	@ 0x3000000
 8003632:	d828      	bhi.n	8003686 <HAL_RCCEx_PeriphCLKConfig+0x2d2>
 8003634:	f1b3 7f00 	cmp.w	r3, #33554432	@ 0x2000000
 8003638:	d01a      	beq.n	8003670 <HAL_RCCEx_PeriphCLKConfig+0x2bc>
 800363a:	f1b3 7f00 	cmp.w	r3, #33554432	@ 0x2000000
 800363e:	d822      	bhi.n	8003686 <HAL_RCCEx_PeriphCLKConfig+0x2d2>
 8003640:	2b00      	cmp	r3, #0
 8003642:	d003      	beq.n	800364c <HAL_RCCEx_PeriphCLKConfig+0x298>
 8003644:	f1b3 7f80 	cmp.w	r3, #16777216	@ 0x1000000
 8003648:	d007      	beq.n	800365a <HAL_RCCEx_PeriphCLKConfig+0x2a6>
 800364a:	e01c      	b.n	8003686 <HAL_RCCEx_PeriphCLKConfig+0x2d2>
    {
      case RCC_SAI4BCLKSOURCE_PLL:      /* PLL is used as clock source for SAI2*/
        /* Enable SAI Clock output generated form System PLL . */
        __HAL_RCC_PLLCLKOUT_ENABLE(RCC_PLL1_DIVQ);
 800364c:	4b1a      	ldr	r3, [pc, #104]	@ (80036b8 <HAL_RCCEx_PeriphCLKConfig+0x304>)
 800364e:	6adb      	ldr	r3, [r3, #44]	@ 0x2c
 8003650:	4a19      	ldr	r2, [pc, #100]	@ (80036b8 <HAL_RCCEx_PeriphCLKConfig+0x304>)
 8003652:	f443 3300 	orr.w	r3, r3, #131072	@ 0x20000
 8003656:	62d3      	str	r3, [r2, #44]	@ 0x2c

        /* SAI1 clock source configuration done later after clock selection check */
        break;
 8003658:	e01e      	b.n	8003698 <HAL_RCCEx_PeriphCLKConfig+0x2e4>

      case RCC_SAI4BCLKSOURCE_PLL2: /* PLL2 is used as clock source for SAI2*/

        ret = RCCEx_PLL2_Config(&(PeriphClkInit->PLL2), DIVIDER_P_UPDATE);
 800365a:	f8d7 3104 	ldr.w	r3, [r7, #260]	@ 0x104
 800365e:	3308      	adds	r3, #8
 8003660:	2100      	movs	r1, #0
 8003662:	4618      	mov	r0, r3
 8003664:	f001 fb04 	bl	8004c70 <RCCEx_PLL2_Config>
 8003668:	4603      	mov	r3, r0
 800366a:	f887 3117 	strb.w	r3, [r7, #279]	@ 0x117

        /* SAI2 clock source configuration done later after clock selection check */
        break;
 800366e:	e013      	b.n	8003698 <HAL_RCCEx_PeriphCLKConfig+0x2e4>

      case RCC_SAI4BCLKSOURCE_PLL3:  /* PLL3 is used as clock source for SAI2*/
        ret = RCCEx_PLL3_Config(&(PeriphClkInit->PLL3), DIVIDER_P_UPDATE);
 8003670:	f8d7 3104 	ldr.w	r3, [r7, #260]	@ 0x104
 8003674:	3328      	adds	r3, #40	@ 0x28
 8003676:	2100      	movs	r1, #0
 8003678:	4618      	mov	r0, r3
 800367a:	f001 fbab 	bl	8004dd4 <RCCEx_PLL3_Config>
 800367e:	4603      	mov	r3, r0
 8003680:	f887 3117 	strb.w	r3, [r7, #279]	@ 0x117

        /* SAI1 clock source configuration done later after clock selection check */
        break;
 8003684:	e008      	b.n	8003698 <HAL_RCCEx_PeriphCLKConfig+0x2e4>
        /* SAI4B clock source configuration done later after clock selection check */
        break;
#endif /* RCC_VER_3_0 */

      default:
        ret = HAL_ERROR;
 8003686:	2301      	movs	r3, #1
 8003688:	f887 3117 	strb.w	r3, [r7, #279]	@ 0x117
        break;
 800368c:	e004      	b.n	8003698 <HAL_RCCEx_PeriphCLKConfig+0x2e4>
        break;
 800368e:	bf00      	nop
 8003690:	e002      	b.n	8003698 <HAL_RCCEx_PeriphCLKConfig+0x2e4>
        break;
 8003692:	bf00      	nop
 8003694:	e000      	b.n	8003698 <HAL_RCCEx_PeriphCLKConfig+0x2e4>
        break;
 8003696:	bf00      	nop
    }

    if (ret == HAL_OK)
 8003698:	f897 3117 	ldrb.w	r3, [r7, #279]	@ 0x117
 800369c:	2b00      	cmp	r3, #0
 800369e:	d10d      	bne.n	80036bc <HAL_RCCEx_PeriphCLKConfig+0x308>
    {
      /* Set the source of SAI4B clock*/
      __HAL_RCC_SAI4B_CONFIG(PeriphClkInit->Sai4BClockSelection);
 80036a0:	4b05      	ldr	r3, [pc, #20]	@ (80036b8 <HAL_RCCEx_PeriphCLKConfig+0x304>)
 80036a2:	6d9b      	ldr	r3, [r3, #88]	@ 0x58
 80036a4:	f023 61e0 	bic.w	r1, r3, #117440512	@ 0x7000000
 80036a8:	f8d7 3104 	ldr.w	r3, [r7, #260]	@ 0x104
 80036ac:	f8d3 30a8 	ldr.w	r3, [r3, #168]	@ 0xa8
 80036b0:	4a01      	ldr	r2, [pc, #4]	@ (80036b8 <HAL_RCCEx_PeriphCLKConfig+0x304>)
 80036b2:	430b      	orrs	r3, r1
 80036b4:	6593      	str	r3, [r2, #88]	@ 0x58
 80036b6:	e005      	b.n	80036c4 <HAL_RCCEx_PeriphCLKConfig+0x310>
 80036b8:	58024400 	.word	0x58024400
    }
    else
    {
      /* set overall return value */
      status = ret;
 80036bc:	f897 3117 	ldrb.w	r3, [r7, #279]	@ 0x117
 80036c0:	f887 3116 	strb.w	r3, [r7, #278]	@ 0x116
  }
#endif  /*QUADSPI*/

#if defined(OCTOSPI1) || defined(OCTOSPI2)
  /*---------------------------- OCTOSPI configuration -------------------------------*/
  if (((PeriphClkInit->PeriphClockSelection) & RCC_PERIPHCLK_OSPI) == RCC_PERIPHCLK_OSPI)
 80036c4:	f8d7 3104 	ldr.w	r3, [r7, #260]	@ 0x104
 80036c8:	e9d3 2300 	ldrd	r2, r3, [r3]
 80036cc:	f002 7300 	and.w	r3, r2, #33554432	@ 0x2000000
 80036d0:	f8c7 30f0 	str.w	r3, [r7, #240]	@ 0xf0
 80036d4:	2300      	movs	r3, #0
 80036d6:	f8c7 30f4 	str.w	r3, [r7, #244]	@ 0xf4
 80036da:	e9d7 123c 	ldrd	r1, r2, [r7, #240]	@ 0xf0
 80036de:	460b      	mov	r3, r1
 80036e0:	4313      	orrs	r3, r2
 80036e2:	d03a      	beq.n	800375a <HAL_RCCEx_PeriphCLKConfig+0x3a6>
  {
    switch (PeriphClkInit->OspiClockSelection)
 80036e4:	f8d7 3104 	ldr.w	r3, [r7, #260]	@ 0x104
 80036e8:	6cdb      	ldr	r3, [r3, #76]	@ 0x4c
 80036ea:	2b30      	cmp	r3, #48	@ 0x30
 80036ec:	d01f      	beq.n	800372e <HAL_RCCEx_PeriphCLKConfig+0x37a>
 80036ee:	2b30      	cmp	r3, #48	@ 0x30
 80036f0:	d819      	bhi.n	8003726 <HAL_RCCEx_PeriphCLKConfig+0x372>
 80036f2:	2b20      	cmp	r3, #32
 80036f4:	d00c      	beq.n	8003710 <HAL_RCCEx_PeriphCLKConfig+0x35c>
 80036f6:	2b20      	cmp	r3, #32
 80036f8:	d815      	bhi.n	8003726 <HAL_RCCEx_PeriphCLKConfig+0x372>
 80036fa:	2b00      	cmp	r3, #0
 80036fc:	d019      	beq.n	8003732 <HAL_RCCEx_PeriphCLKConfig+0x37e>
 80036fe:	2b10      	cmp	r3, #16
 8003700:	d111      	bne.n	8003726 <HAL_RCCEx_PeriphCLKConfig+0x372>
    {
      case RCC_OSPICLKSOURCE_PLL:      /* PLL is used as clock source for OSPI*/
        /* Enable OSPI Clock output generated form System PLL . */
        __HAL_RCC_PLLCLKOUT_ENABLE(RCC_PLL1_DIVQ);
 8003702:	4baa      	ldr	r3, [pc, #680]	@ (80039ac <HAL_RCCEx_PeriphCLKConfig+0x5f8>)
 8003704:	6adb      	ldr	r3, [r3, #44]	@ 0x2c
 8003706:	4aa9      	ldr	r2, [pc, #676]	@ (80039ac <HAL_RCCEx_PeriphCLKConfig+0x5f8>)
 8003708:	f443 3300 	orr.w	r3, r3, #131072	@ 0x20000
 800370c:	62d3      	str	r3, [r2, #44]	@ 0x2c

        /* OSPI clock source configuration done later after clock selection check */
        break;
 800370e:	e011      	b.n	8003734 <HAL_RCCEx_PeriphCLKConfig+0x380>

      case RCC_OSPICLKSOURCE_PLL2: /* PLL2 is used as clock source for OSPI*/

        ret = RCCEx_PLL2_Config(&(PeriphClkInit->PLL2), DIVIDER_R_UPDATE);
 8003710:	f8d7 3104 	ldr.w	r3, [r7, #260]	@ 0x104
 8003714:	3308      	adds	r3, #8
 8003716:	2102      	movs	r1, #2
 8003718:	4618      	mov	r0, r3
 800371a:	f001 faa9 	bl	8004c70 <RCCEx_PLL2_Config>
 800371e:	4603      	mov	r3, r0
 8003720:	f887 3117 	strb.w	r3, [r7, #279]	@ 0x117

        /* OSPI clock source configuration done later after clock selection check */
        break;
 8003724:	e006      	b.n	8003734 <HAL_RCCEx_PeriphCLKConfig+0x380>
      case RCC_OSPICLKSOURCE_HCLK:
        /* HCLK clock selected as OSPI kernel peripheral clock */
        break;

      default:
        ret = HAL_ERROR;
 8003726:	2301      	movs	r3, #1
 8003728:	f887 3117 	strb.w	r3, [r7, #279]	@ 0x117
        break;
 800372c:	e002      	b.n	8003734 <HAL_RCCEx_PeriphCLKConfig+0x380>
        break;
 800372e:	bf00      	nop
 8003730:	e000      	b.n	8003734 <HAL_RCCEx_PeriphCLKConfig+0x380>
        break;
 8003732:	bf00      	nop
    }

    if (ret == HAL_OK)
 8003734:	f897 3117 	ldrb.w	r3, [r7, #279]	@ 0x117
 8003738:	2b00      	cmp	r3, #0
 800373a:	d10a      	bne.n	8003752 <HAL_RCCEx_PeriphCLKConfig+0x39e>
    {
      /* Set the source of OSPI clock*/
      __HAL_RCC_OSPI_CONFIG(PeriphClkInit->OspiClockSelection);
 800373c:	4b9b      	ldr	r3, [pc, #620]	@ (80039ac <HAL_RCCEx_PeriphCLKConfig+0x5f8>)
 800373e:	6cdb      	ldr	r3, [r3, #76]	@ 0x4c
 8003740:	f023 0130 	bic.w	r1, r3, #48	@ 0x30
 8003744:	f8d7 3104 	ldr.w	r3, [r7, #260]	@ 0x104
 8003748:	6cdb      	ldr	r3, [r3, #76]	@ 0x4c
 800374a:	4a98      	ldr	r2, [pc, #608]	@ (80039ac <HAL_RCCEx_PeriphCLKConfig+0x5f8>)
 800374c:	430b      	orrs	r3, r1
 800374e:	64d3      	str	r3, [r2, #76]	@ 0x4c
 8003750:	e003      	b.n	800375a <HAL_RCCEx_PeriphCLKConfig+0x3a6>
    }
    else
    {
      /* set overall return value */
      status = ret;
 8003752:	f897 3117 	ldrb.w	r3, [r7, #279]	@ 0x117
 8003756:	f887 3116 	strb.w	r3, [r7, #278]	@ 0x116
    }
  }
#endif  /*OCTOSPI*/

  /*---------------------------- SPI1/2/3 configuration -------------------------------*/
  if (((PeriphClkInit->PeriphClockSelection) & RCC_PERIPHCLK_SPI123) == RCC_PERIPHCLK_SPI123)
 800375a:	f8d7 3104 	ldr.w	r3, [r7, #260]	@ 0x104
 800375e:	e9d3 2300 	ldrd	r2, r3, [r3]
 8003762:	f402 5380 	and.w	r3, r2, #4096	@ 0x1000
 8003766:	f8c7 30e8 	str.w	r3, [r7, #232]	@ 0xe8
 800376a:	2300      	movs	r3, #0
 800376c:	f8c7 30ec 	str.w	r3, [r7, #236]	@ 0xec
 8003770:	e9d7 123a 	ldrd	r1, r2, [r7, #232]	@ 0xe8
 8003774:	460b      	mov	r3, r1
 8003776:	4313      	orrs	r3, r2
 8003778:	d051      	beq.n	800381e <HAL_RCCEx_PeriphCLKConfig+0x46a>
  {
    switch (PeriphClkInit->Spi123ClockSelection)
 800377a:	f8d7 3104 	ldr.w	r3, [r7, #260]	@ 0x104
 800377e:	6ddb      	ldr	r3, [r3, #92]	@ 0x5c
 8003780:	f5b3 4f80 	cmp.w	r3, #16384	@ 0x4000
 8003784:	d035      	beq.n	80037f2 <HAL_RCCEx_PeriphCLKConfig+0x43e>
 8003786:	f5b3 4f80 	cmp.w	r3, #16384	@ 0x4000
 800378a:	d82e      	bhi.n	80037ea <HAL_RCCEx_PeriphCLKConfig+0x436>
 800378c:	f5b3 5f40 	cmp.w	r3, #12288	@ 0x3000
 8003790:	d031      	beq.n	80037f6 <HAL_RCCEx_PeriphCLKConfig+0x442>
 8003792:	f5b3 5f40 	cmp.w	r3, #12288	@ 0x3000
 8003796:	d828      	bhi.n	80037ea <HAL_RCCEx_PeriphCLKConfig+0x436>
 8003798:	f5b3 5f00 	cmp.w	r3, #8192	@ 0x2000
 800379c:	d01a      	beq.n	80037d4 <HAL_RCCEx_PeriphCLKConfig+0x420>
 800379e:	f5b3 5f00 	cmp.w	r3, #8192	@ 0x2000
 80037a2:	d822      	bhi.n	80037ea <HAL_RCCEx_PeriphCLKConfig+0x436>
 80037a4:	2b00      	cmp	r3, #0
 80037a6:	d003      	beq.n	80037b0 <HAL_RCCEx_PeriphCLKConfig+0x3fc>
 80037a8:	f5b3 5f80 	cmp.w	r3, #4096	@ 0x1000
 80037ac:	d007      	beq.n	80037be <HAL_RCCEx_PeriphCLKConfig+0x40a>
 80037ae:	e01c      	b.n	80037ea <HAL_RCCEx_PeriphCLKConfig+0x436>
    {
      case RCC_SPI123CLKSOURCE_PLL:      /* PLL is used as clock source for SPI1/2/3 */
        /* Enable SPI Clock output generated form System PLL . */
        __HAL_RCC_PLLCLKOUT_ENABLE(RCC_PLL1_DIVQ);
 80037b0:	4b7e      	ldr	r3, [pc, #504]	@ (80039ac <HAL_RCCEx_PeriphCLKConfig+0x5f8>)
 80037b2:	6adb      	ldr	r3, [r3, #44]	@ 0x2c
 80037b4:	4a7d      	ldr	r2, [pc, #500]	@ (80039ac <HAL_RCCEx_PeriphCLKConfig+0x5f8>)
 80037b6:	f443 3300 	orr.w	r3, r3, #131072	@ 0x20000
 80037ba:	62d3      	str	r3, [r2, #44]	@ 0x2c

        /* SPI1/2/3 clock source configuration done later after clock selection check */
        break;
 80037bc:	e01c      	b.n	80037f8 <HAL_RCCEx_PeriphCLKConfig+0x444>

      case RCC_SPI123CLKSOURCE_PLL2: /* PLL2 is used as clock source for SPI1/2/3 */
        ret = RCCEx_PLL2_Config(&(PeriphClkInit->PLL2), DIVIDER_P_UPDATE);
 80037be:	f8d7 3104 	ldr.w	r3, [r7, #260]	@ 0x104
 80037c2:	3308      	adds	r3, #8
 80037c4:	2100      	movs	r1, #0
 80037c6:	4618      	mov	r0, r3
 80037c8:	f001 fa52 	bl	8004c70 <RCCEx_PLL2_Config>
 80037cc:	4603      	mov	r3, r0
 80037ce:	f887 3117 	strb.w	r3, [r7, #279]	@ 0x117

        /* SPI1/2/3 clock source configuration done later after clock selection check */
        break;
 80037d2:	e011      	b.n	80037f8 <HAL_RCCEx_PeriphCLKConfig+0x444>

      case RCC_SPI123CLKSOURCE_PLL3:  /* PLL3 is used as clock source for SPI1/2/3 */
        ret = RCCEx_PLL3_Config(&(PeriphClkInit->PLL3), DIVIDER_P_UPDATE);
 80037d4:	f8d7 3104 	ldr.w	r3, [r7, #260]	@ 0x104
 80037d8:	3328      	adds	r3, #40	@ 0x28
 80037da:	2100      	movs	r1, #0
 80037dc:	4618      	mov	r0, r3
 80037de:	f001 faf9 	bl	8004dd4 <RCCEx_PLL3_Config>
 80037e2:	4603      	mov	r3, r0
 80037e4:	f887 3117 	strb.w	r3, [r7, #279]	@ 0x117

        /* SPI1/2/3 clock source configuration done later after clock selection check */
        break;
 80037e8:	e006      	b.n	80037f8 <HAL_RCCEx_PeriphCLKConfig+0x444>
        /* HSI, HSE, or CSI oscillator is used as source of SPI1/2/3 clock */
        /* SPI1/2/3 clock source configuration done later after clock selection check */
        break;

      default:
        ret = HAL_ERROR;
 80037ea:	2301      	movs	r3, #1
 80037ec:	f887 3117 	strb.w	r3, [r7, #279]	@ 0x117
        break;
 80037f0:	e002      	b.n	80037f8 <HAL_RCCEx_PeriphCLKConfig+0x444>
        break;
 80037f2:	bf00      	nop
 80037f4:	e000      	b.n	80037f8 <HAL_RCCEx_PeriphCLKConfig+0x444>
        break;
 80037f6:	bf00      	nop
    }

    if (ret == HAL_OK)
 80037f8:	f897 3117 	ldrb.w	r3, [r7, #279]	@ 0x117
 80037fc:	2b00      	cmp	r3, #0
 80037fe:	d10a      	bne.n	8003816 <HAL_RCCEx_PeriphCLKConfig+0x462>
    {
      /* Set the source of SPI1/2/3 clock*/
      __HAL_RCC_SPI123_CONFIG(PeriphClkInit->Spi123ClockSelection);
 8003800:	4b6a      	ldr	r3, [pc, #424]	@ (80039ac <HAL_RCCEx_PeriphCLKConfig+0x5f8>)
 8003802:	6d1b      	ldr	r3, [r3, #80]	@ 0x50
 8003804:	f423 41e0 	bic.w	r1, r3, #28672	@ 0x7000
 8003808:	f8d7 3104 	ldr.w	r3, [r7, #260]	@ 0x104
 800380c:	6ddb      	ldr	r3, [r3, #92]	@ 0x5c
 800380e:	4a67      	ldr	r2, [pc, #412]	@ (80039ac <HAL_RCCEx_PeriphCLKConfig+0x5f8>)
 8003810:	430b      	orrs	r3, r1
 8003812:	6513      	str	r3, [r2, #80]	@ 0x50
 8003814:	e003      	b.n	800381e <HAL_RCCEx_PeriphCLKConfig+0x46a>
    }
    else
    {
      /* set overall return value */
      status = ret;
 8003816:	f897 3117 	ldrb.w	r3, [r7, #279]	@ 0x117
 800381a:	f887 3116 	strb.w	r3, [r7, #278]	@ 0x116
    }
  }

  /*---------------------------- SPI4/5 configuration -------------------------------*/
  if (((PeriphClkInit->PeriphClockSelection) & RCC_PERIPHCLK_SPI45) == RCC_PERIPHCLK_SPI45)
 800381e:	f8d7 3104 	ldr.w	r3, [r7, #260]	@ 0x104
 8003822:	e9d3 2300 	ldrd	r2, r3, [r3]
 8003826:	f402 5300 	and.w	r3, r2, #8192	@ 0x2000
 800382a:	f8c7 30e0 	str.w	r3, [r7, #224]	@ 0xe0
 800382e:	2300      	movs	r3, #0
 8003830:	f8c7 30e4 	str.w	r3, [r7, #228]	@ 0xe4
 8003834:	e9d7 1238 	ldrd	r1, r2, [r7, #224]	@ 0xe0
 8003838:	460b      	mov	r3, r1
 800383a:	4313      	orrs	r3, r2
 800383c:	d053      	beq.n	80038e6 <HAL_RCCEx_PeriphCLKConfig+0x532>
  {
    switch (PeriphClkInit->Spi45ClockSelection)
 800383e:	f8d7 3104 	ldr.w	r3, [r7, #260]	@ 0x104
 8003842:	6e1b      	ldr	r3, [r3, #96]	@ 0x60
 8003844:	f5b3 2fa0 	cmp.w	r3, #327680	@ 0x50000
 8003848:	d033      	beq.n	80038b2 <HAL_RCCEx_PeriphCLKConfig+0x4fe>
 800384a:	f5b3 2fa0 	cmp.w	r3, #327680	@ 0x50000
 800384e:	d82c      	bhi.n	80038aa <HAL_RCCEx_PeriphCLKConfig+0x4f6>
 8003850:	f5b3 2f80 	cmp.w	r3, #262144	@ 0x40000
 8003854:	d02f      	beq.n	80038b6 <HAL_RCCEx_PeriphCLKConfig+0x502>
 8003856:	f5b3 2f80 	cmp.w	r3, #262144	@ 0x40000
 800385a:	d826      	bhi.n	80038aa <HAL_RCCEx_PeriphCLKConfig+0x4f6>
 800385c:	f5b3 3f40 	cmp.w	r3, #196608	@ 0x30000
 8003860:	d02b      	beq.n	80038ba <HAL_RCCEx_PeriphCLKConfig+0x506>
 8003862:	f5b3 3f40 	cmp.w	r3, #196608	@ 0x30000
 8003866:	d820      	bhi.n	80038aa <HAL_RCCEx_PeriphCLKConfig+0x4f6>
 8003868:	f5b3 3f00 	cmp.w	r3, #131072	@ 0x20000
 800386c:	d012      	beq.n	8003894 <HAL_RCCEx_PeriphCLKConfig+0x4e0>
 800386e:	f5b3 3f00 	cmp.w	r3, #131072	@ 0x20000
 8003872:	d81a      	bhi.n	80038aa <HAL_RCCEx_PeriphCLKConfig+0x4f6>
 8003874:	2b00      	cmp	r3, #0
 8003876:	d022      	beq.n	80038be <HAL_RCCEx_PeriphCLKConfig+0x50a>
 8003878:	f5b3 3f80 	cmp.w	r3, #65536	@ 0x10000
 800387c:	d115      	bne.n	80038aa <HAL_RCCEx_PeriphCLKConfig+0x4f6>
        /* SPI4/5 clock source configuration done later after clock selection check */
        break;

      case RCC_SPI45CLKSOURCE_PLL2: /* PLL2 is used as clock source for SPI4/5 */

        ret = RCCEx_PLL2_Config(&(PeriphClkInit->PLL2), DIVIDER_Q_UPDATE);
 800387e:	f8d7 3104 	ldr.w	r3, [r7, #260]	@ 0x104
 8003882:	3308      	adds	r3, #8
 8003884:	2101      	movs	r1, #1
 8003886:	4618      	mov	r0, r3
 8003888:	f001 f9f2 	bl	8004c70 <RCCEx_PLL2_Config>
 800388c:	4603      	mov	r3, r0
 800388e:	f887 3117 	strb.w	r3, [r7, #279]	@ 0x117

        /* SPI4/5 clock source configuration done later after clock selection check */
        break;
 8003892:	e015      	b.n	80038c0 <HAL_RCCEx_PeriphCLKConfig+0x50c>
      case RCC_SPI45CLKSOURCE_PLL3:  /* PLL3 is used as clock source for SPI4/5 */
        ret = RCCEx_PLL3_Config(&(PeriphClkInit->PLL3), DIVIDER_Q_UPDATE);
 8003894:	f8d7 3104 	ldr.w	r3, [r7, #260]	@ 0x104
 8003898:	3328      	adds	r3, #40	@ 0x28
 800389a:	2101      	movs	r1, #1
 800389c:	4618      	mov	r0, r3
 800389e:	f001 fa99 	bl	8004dd4 <RCCEx_PLL3_Config>
 80038a2:	4603      	mov	r3, r0
 80038a4:	f887 3117 	strb.w	r3, [r7, #279]	@ 0x117
        /* SPI4/5 clock source configuration done later after clock selection check */
        break;
 80038a8:	e00a      	b.n	80038c0 <HAL_RCCEx_PeriphCLKConfig+0x50c>
        /* HSE,  oscillator is used as source of SPI4/5 clock */
        /* SPI4/5 clock source configuration done later after clock selection check */
        break;

      default:
        ret = HAL_ERROR;
 80038aa:	2301      	movs	r3, #1
 80038ac:	f887 3117 	strb.w	r3, [r7, #279]	@ 0x117
        break;
 80038b0:	e006      	b.n	80038c0 <HAL_RCCEx_PeriphCLKConfig+0x50c>
        break;
 80038b2:	bf00      	nop
 80038b4:	e004      	b.n	80038c0 <HAL_RCCEx_PeriphCLKConfig+0x50c>
        break;
 80038b6:	bf00      	nop
 80038b8:	e002      	b.n	80038c0 <HAL_RCCEx_PeriphCLKConfig+0x50c>
        break;
 80038ba:	bf00      	nop
 80038bc:	e000      	b.n	80038c0 <HAL_RCCEx_PeriphCLKConfig+0x50c>
        break;
 80038be:	bf00      	nop
    }

    if (ret == HAL_OK)
 80038c0:	f897 3117 	ldrb.w	r3, [r7, #279]	@ 0x117
 80038c4:	2b00      	cmp	r3, #0
 80038c6:	d10a      	bne.n	80038de <HAL_RCCEx_PeriphCLKConfig+0x52a>
    {
      /* Set the source of SPI4/5 clock*/
      __HAL_RCC_SPI45_CONFIG(PeriphClkInit->Spi45ClockSelection);
 80038c8:	4b38      	ldr	r3, [pc, #224]	@ (80039ac <HAL_RCCEx_PeriphCLKConfig+0x5f8>)
 80038ca:	6d1b      	ldr	r3, [r3, #80]	@ 0x50
 80038cc:	f423 21e0 	bic.w	r1, r3, #458752	@ 0x70000
 80038d0:	f8d7 3104 	ldr.w	r3, [r7, #260]	@ 0x104
 80038d4:	6e1b      	ldr	r3, [r3, #96]	@ 0x60
 80038d6:	4a35      	ldr	r2, [pc, #212]	@ (80039ac <HAL_RCCEx_PeriphCLKConfig+0x5f8>)
 80038d8:	430b      	orrs	r3, r1
 80038da:	6513      	str	r3, [r2, #80]	@ 0x50
 80038dc:	e003      	b.n	80038e6 <HAL_RCCEx_PeriphCLKConfig+0x532>
    }
    else
    {
      /* set overall return value */
      status = ret;
 80038de:	f897 3117 	ldrb.w	r3, [r7, #279]	@ 0x117
 80038e2:	f887 3116 	strb.w	r3, [r7, #278]	@ 0x116
    }
  }

  /*---------------------------- SPI6 configuration -------------------------------*/
  if (((PeriphClkInit->PeriphClockSelection) & RCC_PERIPHCLK_SPI6) == RCC_PERIPHCLK_SPI6)
 80038e6:	f8d7 3104 	ldr.w	r3, [r7, #260]	@ 0x104
 80038ea:	e9d3 2300 	ldrd	r2, r3, [r3]
 80038ee:	f402 4380 	and.w	r3, r2, #16384	@ 0x4000
 80038f2:	f8c7 30d8 	str.w	r3, [r7, #216]	@ 0xd8
 80038f6:	2300      	movs	r3, #0
 80038f8:	f8c7 30dc 	str.w	r3, [r7, #220]	@ 0xdc
 80038fc:	e9d7 1236 	ldrd	r1, r2, [r7, #216]	@ 0xd8
 8003900:	460b      	mov	r3, r1
 8003902:	4313      	orrs	r3, r2
 8003904:	d058      	beq.n	80039b8 <HAL_RCCEx_PeriphCLKConfig+0x604>
  {
    switch (PeriphClkInit->Spi6ClockSelection)
 8003906:	f8d7 3104 	ldr.w	r3, [r7, #260]	@ 0x104
 800390a:	f8d3 30ac 	ldr.w	r3, [r3, #172]	@ 0xac
 800390e:	f1b3 4fa0 	cmp.w	r3, #1342177280	@ 0x50000000
 8003912:	d033      	beq.n	800397c <HAL_RCCEx_PeriphCLKConfig+0x5c8>
 8003914:	f1b3 4fa0 	cmp.w	r3, #1342177280	@ 0x50000000
 8003918:	d82c      	bhi.n	8003974 <HAL_RCCEx_PeriphCLKConfig+0x5c0>
 800391a:	f1b3 4f80 	cmp.w	r3, #1073741824	@ 0x40000000
 800391e:	d02f      	beq.n	8003980 <HAL_RCCEx_PeriphCLKConfig+0x5cc>
 8003920:	f1b3 4f80 	cmp.w	r3, #1073741824	@ 0x40000000
 8003924:	d826      	bhi.n	8003974 <HAL_RCCEx_PeriphCLKConfig+0x5c0>
 8003926:	f1b3 5f40 	cmp.w	r3, #805306368	@ 0x30000000
 800392a:	d02b      	beq.n	8003984 <HAL_RCCEx_PeriphCLKConfig+0x5d0>
 800392c:	f1b3 5f40 	cmp.w	r3, #805306368	@ 0x30000000
 8003930:	d820      	bhi.n	8003974 <HAL_RCCEx_PeriphCLKConfig+0x5c0>
 8003932:	f1b3 5f00 	cmp.w	r3, #536870912	@ 0x20000000
 8003936:	d012      	beq.n	800395e <HAL_RCCEx_PeriphCLKConfig+0x5aa>
 8003938:	f1b3 5f00 	cmp.w	r3, #536870912	@ 0x20000000
 800393c:	d81a      	bhi.n	8003974 <HAL_RCCEx_PeriphCLKConfig+0x5c0>
 800393e:	2b00      	cmp	r3, #0
 8003940:	d022      	beq.n	8003988 <HAL_RCCEx_PeriphCLKConfig+0x5d4>
 8003942:	f1b3 5f80 	cmp.w	r3, #268435456	@ 0x10000000
 8003946:	d115      	bne.n	8003974 <HAL_RCCEx_PeriphCLKConfig+0x5c0>
        /* SPI6 clock source configuration done later after clock selection check */
        break;

      case RCC_SPI6CLKSOURCE_PLL2: /* PLL2 is used as clock source for SPI6*/

        ret = RCCEx_PLL2_Config(&(PeriphClkInit->PLL2), DIVIDER_Q_UPDATE);
 8003948:	f8d7 3104 	ldr.w	r3, [r7, #260]	@ 0x104
 800394c:	3308      	adds	r3, #8
 800394e:	2101      	movs	r1, #1
 8003950:	4618      	mov	r0, r3
 8003952:	f001 f98d 	bl	8004c70 <RCCEx_PLL2_Config>
 8003956:	4603      	mov	r3, r0
 8003958:	f887 3117 	strb.w	r3, [r7, #279]	@ 0x117

        /* SPI6 clock source configuration done later after clock selection check */
        break;
 800395c:	e015      	b.n	800398a <HAL_RCCEx_PeriphCLKConfig+0x5d6>
      case RCC_SPI6CLKSOURCE_PLL3:  /* PLL3 is used as clock source for SPI6*/
        ret = RCCEx_PLL3_Config(&(PeriphClkInit->PLL3), DIVIDER_Q_UPDATE);
 800395e:	f8d7 3104 	ldr.w	r3, [r7, #260]	@ 0x104
 8003962:	3328      	adds	r3, #40	@ 0x28
 8003964:	2101      	movs	r1, #1
 8003966:	4618      	mov	r0, r3
 8003968:	f001 fa34 	bl	8004dd4 <RCCEx_PLL3_Config>
 800396c:	4603      	mov	r3, r0
 800396e:	f887 3117 	strb.w	r3, [r7, #279]	@ 0x117
        /* SPI6 clock source configuration done later after clock selection check */
        break;
 8003972:	e00a      	b.n	800398a <HAL_RCCEx_PeriphCLKConfig+0x5d6>
        /* SPI6 clock source configuration done later after clock selection check */
        break;
#endif

      default:
        ret = HAL_ERROR;
 8003974:	2301      	movs	r3, #1
 8003976:	f887 3117 	strb.w	r3, [r7, #279]	@ 0x117
        break;
 800397a:	e006      	b.n	800398a <HAL_RCCEx_PeriphCLKConfig+0x5d6>
        break;
 800397c:	bf00      	nop
 800397e:	e004      	b.n	800398a <HAL_RCCEx_PeriphCLKConfig+0x5d6>
        break;
 8003980:	bf00      	nop
 8003982:	e002      	b.n	800398a <HAL_RCCEx_PeriphCLKConfig+0x5d6>
        break;
 8003984:	bf00      	nop
 8003986:	e000      	b.n	800398a <HAL_RCCEx_PeriphCLKConfig+0x5d6>
        break;
 8003988:	bf00      	nop
    }

    if (ret == HAL_OK)
 800398a:	f897 3117 	ldrb.w	r3, [r7, #279]	@ 0x117
 800398e:	2b00      	cmp	r3, #0
 8003990:	d10e      	bne.n	80039b0 <HAL_RCCEx_PeriphCLKConfig+0x5fc>
    {
      /* Set the source of SPI6 clock*/
      __HAL_RCC_SPI6_CONFIG(PeriphClkInit->Spi6ClockSelection);
 8003992:	4b06      	ldr	r3, [pc, #24]	@ (80039ac <HAL_RCCEx_PeriphCLKConfig+0x5f8>)
 8003994:	6d9b      	ldr	r3, [r3, #88]	@ 0x58
 8003996:	f023 41e0 	bic.w	r1, r3, #1879048192	@ 0x70000000
 800399a:	f8d7 3104 	ldr.w	r3, [r7, #260]	@ 0x104
 800399e:	f8d3 30ac 	ldr.w	r3, [r3, #172]	@ 0xac
 80039a2:	4a02      	ldr	r2, [pc, #8]	@ (80039ac <HAL_RCCEx_PeriphCLKConfig+0x5f8>)
 80039a4:	430b      	orrs	r3, r1
 80039a6:	6593      	str	r3, [r2, #88]	@ 0x58
 80039a8:	e006      	b.n	80039b8 <HAL_RCCEx_PeriphCLKConfig+0x604>
 80039aa:	bf00      	nop
 80039ac:	58024400 	.word	0x58024400
    }
    else
    {
      /* set overall return value */
      status = ret;
 80039b0:	f897 3117 	ldrb.w	r3, [r7, #279]	@ 0x117
 80039b4:	f887 3116 	strb.w	r3, [r7, #278]	@ 0x116
  }
#endif /*DSI*/

#if defined(FDCAN1) || defined(FDCAN2)
  /*---------------------------- FDCAN configuration -------------------------------*/
  if (((PeriphClkInit->PeriphClockSelection) & RCC_PERIPHCLK_FDCAN) == RCC_PERIPHCLK_FDCAN)
 80039b8:	f8d7 3104 	ldr.w	r3, [r7, #260]	@ 0x104
 80039bc:	e9d3 2300 	ldrd	r2, r3, [r3]
 80039c0:	f402 4300 	and.w	r3, r2, #32768	@ 0x8000
 80039c4:	f8c7 30d0 	str.w	r3, [r7, #208]	@ 0xd0
 80039c8:	2300      	movs	r3, #0
 80039ca:	f8c7 30d4 	str.w	r3, [r7, #212]	@ 0xd4
 80039ce:	e9d7 1234 	ldrd	r1, r2, [r7, #208]	@ 0xd0
 80039d2:	460b      	mov	r3, r1
 80039d4:	4313      	orrs	r3, r2
 80039d6:	d037      	beq.n	8003a48 <HAL_RCCEx_PeriphCLKConfig+0x694>
  {
    switch (PeriphClkInit->FdcanClockSelection)
 80039d8:	f8d7 3104 	ldr.w	r3, [r7, #260]	@ 0x104
 80039dc:	6edb      	ldr	r3, [r3, #108]	@ 0x6c
 80039de:	f1b3 5f00 	cmp.w	r3, #536870912	@ 0x20000000
 80039e2:	d00e      	beq.n	8003a02 <HAL_RCCEx_PeriphCLKConfig+0x64e>
 80039e4:	f1b3 5f00 	cmp.w	r3, #536870912	@ 0x20000000
 80039e8:	d816      	bhi.n	8003a18 <HAL_RCCEx_PeriphCLKConfig+0x664>
 80039ea:	2b00      	cmp	r3, #0
 80039ec:	d018      	beq.n	8003a20 <HAL_RCCEx_PeriphCLKConfig+0x66c>
 80039ee:	f1b3 5f80 	cmp.w	r3, #268435456	@ 0x10000000
 80039f2:	d111      	bne.n	8003a18 <HAL_RCCEx_PeriphCLKConfig+0x664>
    {
      case RCC_FDCANCLKSOURCE_PLL:      /* PLL is used as clock source for FDCAN*/
        /* Enable FDCAN Clock output generated form System PLL . */
        __HAL_RCC_PLLCLKOUT_ENABLE(RCC_PLL1_DIVQ);
 80039f4:	4bc4      	ldr	r3, [pc, #784]	@ (8003d08 <HAL_RCCEx_PeriphCLKConfig+0x954>)
 80039f6:	6adb      	ldr	r3, [r3, #44]	@ 0x2c
 80039f8:	4ac3      	ldr	r2, [pc, #780]	@ (8003d08 <HAL_RCCEx_PeriphCLKConfig+0x954>)
 80039fa:	f443 3300 	orr.w	r3, r3, #131072	@ 0x20000
 80039fe:	62d3      	str	r3, [r2, #44]	@ 0x2c

        /* FDCAN clock source configuration done later after clock selection check */
        break;
 8003a00:	e00f      	b.n	8003a22 <HAL_RCCEx_PeriphCLKConfig+0x66e>

      case RCC_FDCANCLKSOURCE_PLL2: /* PLL2 is used as clock source for FDCAN*/

        ret = RCCEx_PLL2_Config(&(PeriphClkInit->PLL2), DIVIDER_Q_UPDATE);
 8003a02:	f8d7 3104 	ldr.w	r3, [r7, #260]	@ 0x104
 8003a06:	3308      	adds	r3, #8
 8003a08:	2101      	movs	r1, #1
 8003a0a:	4618      	mov	r0, r3
 8003a0c:	f001 f930 	bl	8004c70 <RCCEx_PLL2_Config>
 8003a10:	4603      	mov	r3, r0
 8003a12:	f887 3117 	strb.w	r3, [r7, #279]	@ 0x117

        /* FDCAN clock source configuration done later after clock selection check */
        break;
 8003a16:	e004      	b.n	8003a22 <HAL_RCCEx_PeriphCLKConfig+0x66e>
        /* HSE is used as clock source for FDCAN*/
        /* FDCAN clock source configuration done later after clock selection check */
        break;

      default:
        ret = HAL_ERROR;
 8003a18:	2301      	movs	r3, #1
 8003a1a:	f887 3117 	strb.w	r3, [r7, #279]	@ 0x117
        break;
 8003a1e:	e000      	b.n	8003a22 <HAL_RCCEx_PeriphCLKConfig+0x66e>
        break;
 8003a20:	bf00      	nop
    }

    if (ret == HAL_OK)
 8003a22:	f897 3117 	ldrb.w	r3, [r7, #279]	@ 0x117
 8003a26:	2b00      	cmp	r3, #0
 8003a28:	d10a      	bne.n	8003a40 <HAL_RCCEx_PeriphCLKConfig+0x68c>
    {
      /* Set the source of FDCAN clock*/
      __HAL_RCC_FDCAN_CONFIG(PeriphClkInit->FdcanClockSelection);
 8003a2a:	4bb7      	ldr	r3, [pc, #732]	@ (8003d08 <HAL_RCCEx_PeriphCLKConfig+0x954>)
 8003a2c:	6d1b      	ldr	r3, [r3, #80]	@ 0x50
 8003a2e:	f023 5140 	bic.w	r1, r3, #805306368	@ 0x30000000
 8003a32:	f8d7 3104 	ldr.w	r3, [r7, #260]	@ 0x104
 8003a36:	6edb      	ldr	r3, [r3, #108]	@ 0x6c
 8003a38:	4ab3      	ldr	r2, [pc, #716]	@ (8003d08 <HAL_RCCEx_PeriphCLKConfig+0x954>)
 8003a3a:	430b      	orrs	r3, r1
 8003a3c:	6513      	str	r3, [r2, #80]	@ 0x50
 8003a3e:	e003      	b.n	8003a48 <HAL_RCCEx_PeriphCLKConfig+0x694>
    }
    else
    {
      /* set overall return value */
      status = ret;
 8003a40:	f897 3117 	ldrb.w	r3, [r7, #279]	@ 0x117
 8003a44:	f887 3116 	strb.w	r3, [r7, #278]	@ 0x116
    }
  }
#endif /*FDCAN1 || FDCAN2*/

  /*---------------------------- FMC configuration -------------------------------*/
  if (((PeriphClkInit->PeriphClockSelection) & RCC_PERIPHCLK_FMC) == RCC_PERIPHCLK_FMC)
 8003a48:	f8d7 3104 	ldr.w	r3, [r7, #260]	@ 0x104
 8003a4c:	e9d3 2300 	ldrd	r2, r3, [r3]
 8003a50:	f002 7380 	and.w	r3, r2, #16777216	@ 0x1000000
 8003a54:	f8c7 30c8 	str.w	r3, [r7, #200]	@ 0xc8
 8003a58:	2300      	movs	r3, #0
 8003a5a:	f8c7 30cc 	str.w	r3, [r7, #204]	@ 0xcc
 8003a5e:	e9d7 1232 	ldrd	r1, r2, [r7, #200]	@ 0xc8
 8003a62:	460b      	mov	r3, r1
 8003a64:	4313      	orrs	r3, r2
 8003a66:	d039      	beq.n	8003adc <HAL_RCCEx_PeriphCLKConfig+0x728>
  {
    switch (PeriphClkInit->FmcClockSelection)
 8003a68:	f8d7 3104 	ldr.w	r3, [r7, #260]	@ 0x104
 8003a6c:	6c9b      	ldr	r3, [r3, #72]	@ 0x48
 8003a6e:	2b03      	cmp	r3, #3
 8003a70:	d81c      	bhi.n	8003aac <HAL_RCCEx_PeriphCLKConfig+0x6f8>
 8003a72:	a201      	add	r2, pc, #4	@ (adr r2, 8003a78 <HAL_RCCEx_PeriphCLKConfig+0x6c4>)
 8003a74:	f852 f023 	ldr.w	pc, [r2, r3, lsl #2]
 8003a78:	08003ab5 	.word	0x08003ab5
 8003a7c:	08003a89 	.word	0x08003a89
 8003a80:	08003a97 	.word	0x08003a97
 8003a84:	08003ab5 	.word	0x08003ab5
    {
      case RCC_FMCCLKSOURCE_PLL:      /* PLL is used as clock source for FMC*/
        /* Enable FMC Clock output generated form System PLL . */
        __HAL_RCC_PLLCLKOUT_ENABLE(RCC_PLL1_DIVQ);
 8003a88:	4b9f      	ldr	r3, [pc, #636]	@ (8003d08 <HAL_RCCEx_PeriphCLKConfig+0x954>)
 8003a8a:	6adb      	ldr	r3, [r3, #44]	@ 0x2c
 8003a8c:	4a9e      	ldr	r2, [pc, #632]	@ (8003d08 <HAL_RCCEx_PeriphCLKConfig+0x954>)
 8003a8e:	f443 3300 	orr.w	r3, r3, #131072	@ 0x20000
 8003a92:	62d3      	str	r3, [r2, #44]	@ 0x2c

        /* FMC clock source configuration done later after clock selection check */
        break;
 8003a94:	e00f      	b.n	8003ab6 <HAL_RCCEx_PeriphCLKConfig+0x702>

      case RCC_FMCCLKSOURCE_PLL2: /* PLL2 is used as clock source for FMC*/

        ret = RCCEx_PLL2_Config(&(PeriphClkInit->PLL2), DIVIDER_R_UPDATE);
 8003a96:	f8d7 3104 	ldr.w	r3, [r7, #260]	@ 0x104
 8003a9a:	3308      	adds	r3, #8
 8003a9c:	2102      	movs	r1, #2
 8003a9e:	4618      	mov	r0, r3
 8003aa0:	f001 f8e6 	bl	8004c70 <RCCEx_PLL2_Config>
 8003aa4:	4603      	mov	r3, r0
 8003aa6:	f887 3117 	strb.w	r3, [r7, #279]	@ 0x117

        /* FMC clock source configuration done later after clock selection check */
        break;
 8003aaa:	e004      	b.n	8003ab6 <HAL_RCCEx_PeriphCLKConfig+0x702>
      case RCC_FMCCLKSOURCE_HCLK:
        /* D1/CD HCLK  clock selected as FMC kernel peripheral clock */
        break;

      default:
        ret = HAL_ERROR;
 8003aac:	2301      	movs	r3, #1
 8003aae:	f887 3117 	strb.w	r3, [r7, #279]	@ 0x117
        break;
 8003ab2:	e000      	b.n	8003ab6 <HAL_RCCEx_PeriphCLKConfig+0x702>
        break;
 8003ab4:	bf00      	nop
    }

    if (ret == HAL_OK)
 8003ab6:	f897 3117 	ldrb.w	r3, [r7, #279]	@ 0x117
 8003aba:	2b00      	cmp	r3, #0
 8003abc:	d10a      	bne.n	8003ad4 <HAL_RCCEx_PeriphCLKConfig+0x720>
    {
      /* Set the source of FMC clock*/
      __HAL_RCC_FMC_CONFIG(PeriphClkInit->FmcClockSelection);
 8003abe:	4b92      	ldr	r3, [pc, #584]	@ (8003d08 <HAL_RCCEx_PeriphCLKConfig+0x954>)
 8003ac0:	6cdb      	ldr	r3, [r3, #76]	@ 0x4c
 8003ac2:	f023 0103 	bic.w	r1, r3, #3
 8003ac6:	f8d7 3104 	ldr.w	r3, [r7, #260]	@ 0x104
 8003aca:	6c9b      	ldr	r3, [r3, #72]	@ 0x48
 8003acc:	4a8e      	ldr	r2, [pc, #568]	@ (8003d08 <HAL_RCCEx_PeriphCLKConfig+0x954>)
 8003ace:	430b      	orrs	r3, r1
 8003ad0:	64d3      	str	r3, [r2, #76]	@ 0x4c
 8003ad2:	e003      	b.n	8003adc <HAL_RCCEx_PeriphCLKConfig+0x728>
    }
    else
    {
      /* set overall return value */
      status = ret;
 8003ad4:	f897 3117 	ldrb.w	r3, [r7, #279]	@ 0x117
 8003ad8:	f887 3116 	strb.w	r3, [r7, #278]	@ 0x116
    }
  }

  /*---------------------------- RTC configuration -------------------------------*/
  if (((PeriphClkInit->PeriphClockSelection) & RCC_PERIPHCLK_RTC) == RCC_PERIPHCLK_RTC)
 8003adc:	f8d7 3104 	ldr.w	r3, [r7, #260]	@ 0x104
 8003ae0:	e9d3 2300 	ldrd	r2, r3, [r3]
 8003ae4:	f402 0380 	and.w	r3, r2, #4194304	@ 0x400000
 8003ae8:	f8c7 30c0 	str.w	r3, [r7, #192]	@ 0xc0
 8003aec:	2300      	movs	r3, #0
 8003aee:	f8c7 30c4 	str.w	r3, [r7, #196]	@ 0xc4
 8003af2:	e9d7 1230 	ldrd	r1, r2, [r7, #192]	@ 0xc0
 8003af6:	460b      	mov	r3, r1
 8003af8:	4313      	orrs	r3, r2
 8003afa:	f000 8099 	beq.w	8003c30 <HAL_RCCEx_PeriphCLKConfig+0x87c>
  {
    /* check for RTC Parameters used to output RTCCLK */
    assert_param(IS_RCC_RTCCLKSOURCE(PeriphClkInit->RTCClockSelection));

    /* Enable write access to Backup domain */
    SET_BIT(PWR->CR1, PWR_CR1_DBP);
 8003afe:	4b83      	ldr	r3, [pc, #524]	@ (8003d0c <HAL_RCCEx_PeriphCLKConfig+0x958>)
 8003b00:	681b      	ldr	r3, [r3, #0]
 8003b02:	4a82      	ldr	r2, [pc, #520]	@ (8003d0c <HAL_RCCEx_PeriphCLKConfig+0x958>)
 8003b04:	f443 7380 	orr.w	r3, r3, #256	@ 0x100
 8003b08:	6013      	str	r3, [r2, #0]

    /* Wait for Backup domain Write protection disable */
    tickstart = HAL_GetTick();
 8003b0a:	f7fd fb25 	bl	8001158 <HAL_GetTick>
 8003b0e:	f8c7 0110 	str.w	r0, [r7, #272]	@ 0x110

    while ((PWR->CR1 & PWR_CR1_DBP) == 0U)
 8003b12:	e00b      	b.n	8003b2c <HAL_RCCEx_PeriphCLKConfig+0x778>
    {
      if ((HAL_GetTick() - tickstart) > RCC_DBP_TIMEOUT_VALUE)
 8003b14:	f7fd fb20 	bl	8001158 <HAL_GetTick>
 8003b18:	4602      	mov	r2, r0
 8003b1a:	f8d7 3110 	ldr.w	r3, [r7, #272]	@ 0x110
 8003b1e:	1ad3      	subs	r3, r2, r3
 8003b20:	2b64      	cmp	r3, #100	@ 0x64
 8003b22:	d903      	bls.n	8003b2c <HAL_RCCEx_PeriphCLKConfig+0x778>
      {
        ret = HAL_TIMEOUT;
 8003b24:	2303      	movs	r3, #3
 8003b26:	f887 3117 	strb.w	r3, [r7, #279]	@ 0x117
        break;
 8003b2a:	e005      	b.n	8003b38 <HAL_RCCEx_PeriphCLKConfig+0x784>
    while ((PWR->CR1 & PWR_CR1_DBP) == 0U)
 8003b2c:	4b77      	ldr	r3, [pc, #476]	@ (8003d0c <HAL_RCCEx_PeriphCLKConfig+0x958>)
 8003b2e:	681b      	ldr	r3, [r3, #0]
 8003b30:	f403 7380 	and.w	r3, r3, #256	@ 0x100
 8003b34:	2b00      	cmp	r3, #0
 8003b36:	d0ed      	beq.n	8003b14 <HAL_RCCEx_PeriphCLKConfig+0x760>
      }
    }

    if (ret == HAL_OK)
 8003b38:	f897 3117 	ldrb.w	r3, [r7, #279]	@ 0x117
 8003b3c:	2b00      	cmp	r3, #0
 8003b3e:	d173      	bne.n	8003c28 <HAL_RCCEx_PeriphCLKConfig+0x874>
    {
      /* Reset the Backup domain only if the RTC Clock source selection is modified */
      if ((RCC->BDCR & RCC_BDCR_RTCSEL) != (PeriphClkInit->RTCClockSelection & RCC_BDCR_RTCSEL))
 8003b40:	4b71      	ldr	r3, [pc, #452]	@ (8003d08 <HAL_RCCEx_PeriphCLKConfig+0x954>)
 8003b42:	6f1a      	ldr	r2, [r3, #112]	@ 0x70
 8003b44:	f8d7 3104 	ldr.w	r3, [r7, #260]	@ 0x104
 8003b48:	f8d3 30b0 	ldr.w	r3, [r3, #176]	@ 0xb0
 8003b4c:	4053      	eors	r3, r2
 8003b4e:	f403 7340 	and.w	r3, r3, #768	@ 0x300
 8003b52:	2b00      	cmp	r3, #0
 8003b54:	d015      	beq.n	8003b82 <HAL_RCCEx_PeriphCLKConfig+0x7ce>
      {
        /* Store the content of BDCR register before the reset of Backup Domain */
        tmpreg = (RCC->BDCR & ~(RCC_BDCR_RTCSEL));
 8003b56:	4b6c      	ldr	r3, [pc, #432]	@ (8003d08 <HAL_RCCEx_PeriphCLKConfig+0x954>)
 8003b58:	6f1b      	ldr	r3, [r3, #112]	@ 0x70
 8003b5a:	f423 7340 	bic.w	r3, r3, #768	@ 0x300
 8003b5e:	f8c7 310c 	str.w	r3, [r7, #268]	@ 0x10c
        /* RTC Clock selection can be changed only if the Backup Domain is reset */
        __HAL_RCC_BACKUPRESET_FORCE();
 8003b62:	4b69      	ldr	r3, [pc, #420]	@ (8003d08 <HAL_RCCEx_PeriphCLKConfig+0x954>)
 8003b64:	6f1b      	ldr	r3, [r3, #112]	@ 0x70
 8003b66:	4a68      	ldr	r2, [pc, #416]	@ (8003d08 <HAL_RCCEx_PeriphCLKConfig+0x954>)
 8003b68:	f443 3380 	orr.w	r3, r3, #65536	@ 0x10000
 8003b6c:	6713      	str	r3, [r2, #112]	@ 0x70
        __HAL_RCC_BACKUPRESET_RELEASE();
 8003b6e:	4b66      	ldr	r3, [pc, #408]	@ (8003d08 <HAL_RCCEx_PeriphCLKConfig+0x954>)
 8003b70:	6f1b      	ldr	r3, [r3, #112]	@ 0x70
 8003b72:	4a65      	ldr	r2, [pc, #404]	@ (8003d08 <HAL_RCCEx_PeriphCLKConfig+0x954>)
 8003b74:	f423 3380 	bic.w	r3, r3, #65536	@ 0x10000
 8003b78:	6713      	str	r3, [r2, #112]	@ 0x70
        /* Restore the Content of BDCR register */
        RCC->BDCR = tmpreg;
 8003b7a:	4a63      	ldr	r2, [pc, #396]	@ (8003d08 <HAL_RCCEx_PeriphCLKConfig+0x954>)
 8003b7c:	f8d7 310c 	ldr.w	r3, [r7, #268]	@ 0x10c
 8003b80:	6713      	str	r3, [r2, #112]	@ 0x70
      }

      /* If LSE is selected as RTC clock source (and enabled prior to Backup Domain reset), wait for LSE reactivation */
      if (PeriphClkInit->RTCClockSelection == RCC_RTCCLKSOURCE_LSE)
 8003b82:	f8d7 3104 	ldr.w	r3, [r7, #260]	@ 0x104
 8003b86:	f8d3 30b0 	ldr.w	r3, [r3, #176]	@ 0xb0
 8003b8a:	f5b3 7f80 	cmp.w	r3, #256	@ 0x100
 8003b8e:	d118      	bne.n	8003bc2 <HAL_RCCEx_PeriphCLKConfig+0x80e>
      {
        /* Get Start Tick*/
        tickstart = HAL_GetTick();
 8003b90:	f7fd fae2 	bl	8001158 <HAL_GetTick>
 8003b94:	f8c7 0110 	str.w	r0, [r7, #272]	@ 0x110

        /* Wait till LSE is ready */
        while (__HAL_RCC_GET_FLAG(RCC_FLAG_LSERDY) == 0U)
 8003b98:	e00d      	b.n	8003bb6 <HAL_RCCEx_PeriphCLKConfig+0x802>
        {
          if ((HAL_GetTick() - tickstart) > RCC_LSE_TIMEOUT_VALUE)
 8003b9a:	f7fd fadd 	bl	8001158 <HAL_GetTick>
 8003b9e:	4602      	mov	r2, r0
 8003ba0:	f8d7 3110 	ldr.w	r3, [r7, #272]	@ 0x110
 8003ba4:	1ad2      	subs	r2, r2, r3
 8003ba6:	f241 3388 	movw	r3, #5000	@ 0x1388
 8003baa:	429a      	cmp	r2, r3
 8003bac:	d903      	bls.n	8003bb6 <HAL_RCCEx_PeriphCLKConfig+0x802>
          {
            ret = HAL_TIMEOUT;
 8003bae:	2303      	movs	r3, #3
 8003bb0:	f887 3117 	strb.w	r3, [r7, #279]	@ 0x117
            break;
 8003bb4:	e005      	b.n	8003bc2 <HAL_RCCEx_PeriphCLKConfig+0x80e>
        while (__HAL_RCC_GET_FLAG(RCC_FLAG_LSERDY) == 0U)
 8003bb6:	4b54      	ldr	r3, [pc, #336]	@ (8003d08 <HAL_RCCEx_PeriphCLKConfig+0x954>)
 8003bb8:	6f1b      	ldr	r3, [r3, #112]	@ 0x70
 8003bba:	f003 0302 	and.w	r3, r3, #2
 8003bbe:	2b00      	cmp	r3, #0
 8003bc0:	d0eb      	beq.n	8003b9a <HAL_RCCEx_PeriphCLKConfig+0x7e6>
          }
        }
      }

      if (ret == HAL_OK)
 8003bc2:	f897 3117 	ldrb.w	r3, [r7, #279]	@ 0x117
 8003bc6:	2b00      	cmp	r3, #0
 8003bc8:	d129      	bne.n	8003c1e <HAL_RCCEx_PeriphCLKConfig+0x86a>
      {
        __HAL_RCC_RTC_CONFIG(PeriphClkInit->RTCClockSelection);
 8003bca:	f8d7 3104 	ldr.w	r3, [r7, #260]	@ 0x104
 8003bce:	f8d3 30b0 	ldr.w	r3, [r3, #176]	@ 0xb0
 8003bd2:	f403 7340 	and.w	r3, r3, #768	@ 0x300
 8003bd6:	f5b3 7f40 	cmp.w	r3, #768	@ 0x300
 8003bda:	d10e      	bne.n	8003bfa <HAL_RCCEx_PeriphCLKConfig+0x846>
 8003bdc:	4b4a      	ldr	r3, [pc, #296]	@ (8003d08 <HAL_RCCEx_PeriphCLKConfig+0x954>)
 8003bde:	691b      	ldr	r3, [r3, #16]
 8003be0:	f423 517c 	bic.w	r1, r3, #16128	@ 0x3f00
 8003be4:	f8d7 3104 	ldr.w	r3, [r7, #260]	@ 0x104
 8003be8:	f8d3 30b0 	ldr.w	r3, [r3, #176]	@ 0xb0
 8003bec:	091a      	lsrs	r2, r3, #4
 8003bee:	4b48      	ldr	r3, [pc, #288]	@ (8003d10 <HAL_RCCEx_PeriphCLKConfig+0x95c>)
 8003bf0:	4013      	ands	r3, r2
 8003bf2:	4a45      	ldr	r2, [pc, #276]	@ (8003d08 <HAL_RCCEx_PeriphCLKConfig+0x954>)
 8003bf4:	430b      	orrs	r3, r1
 8003bf6:	6113      	str	r3, [r2, #16]
 8003bf8:	e005      	b.n	8003c06 <HAL_RCCEx_PeriphCLKConfig+0x852>
 8003bfa:	4b43      	ldr	r3, [pc, #268]	@ (8003d08 <HAL_RCCEx_PeriphCLKConfig+0x954>)
 8003bfc:	691b      	ldr	r3, [r3, #16]
 8003bfe:	4a42      	ldr	r2, [pc, #264]	@ (8003d08 <HAL_RCCEx_PeriphCLKConfig+0x954>)
 8003c00:	f423 537c 	bic.w	r3, r3, #16128	@ 0x3f00
 8003c04:	6113      	str	r3, [r2, #16]
 8003c06:	4b40      	ldr	r3, [pc, #256]	@ (8003d08 <HAL_RCCEx_PeriphCLKConfig+0x954>)
 8003c08:	6f19      	ldr	r1, [r3, #112]	@ 0x70
 8003c0a:	f8d7 3104 	ldr.w	r3, [r7, #260]	@ 0x104
 8003c0e:	f8d3 30b0 	ldr.w	r3, [r3, #176]	@ 0xb0
 8003c12:	f3c3 030b 	ubfx	r3, r3, #0, #12
 8003c16:	4a3c      	ldr	r2, [pc, #240]	@ (8003d08 <HAL_RCCEx_PeriphCLKConfig+0x954>)
 8003c18:	430b      	orrs	r3, r1
 8003c1a:	6713      	str	r3, [r2, #112]	@ 0x70
 8003c1c:	e008      	b.n	8003c30 <HAL_RCCEx_PeriphCLKConfig+0x87c>
      }
      else
      {
        /* set overall return value */
        status = ret;
 8003c1e:	f897 3117 	ldrb.w	r3, [r7, #279]	@ 0x117
 8003c22:	f887 3116 	strb.w	r3, [r7, #278]	@ 0x116
 8003c26:	e003      	b.n	8003c30 <HAL_RCCEx_PeriphCLKConfig+0x87c>
      }
    }
    else
    {
      /* set overall return value */
      status = ret;
 8003c28:	f897 3117 	ldrb.w	r3, [r7, #279]	@ 0x117
 8003c2c:	f887 3116 	strb.w	r3, [r7, #278]	@ 0x116
    }
  }


  /*-------------------------- USART1/6 configuration --------------------------*/
  if (((PeriphClkInit->PeriphClockSelection) & RCC_PERIPHCLK_USART16) == RCC_PERIPHCLK_USART16)
 8003c30:	f8d7 3104 	ldr.w	r3, [r7, #260]	@ 0x104
 8003c34:	e9d3 2300 	ldrd	r2, r3, [r3]
 8003c38:	f002 0301 	and.w	r3, r2, #1
 8003c3c:	f8c7 30b8 	str.w	r3, [r7, #184]	@ 0xb8
 8003c40:	2300      	movs	r3, #0
 8003c42:	f8c7 30bc 	str.w	r3, [r7, #188]	@ 0xbc
 8003c46:	e9d7 122e 	ldrd	r1, r2, [r7, #184]	@ 0xb8
 8003c4a:	460b      	mov	r3, r1
 8003c4c:	4313      	orrs	r3, r2
 8003c4e:	f000 808f 	beq.w	8003d70 <HAL_RCCEx_PeriphCLKConfig+0x9bc>
  {
    switch (PeriphClkInit->Usart16ClockSelection)
 8003c52:	f8d7 3104 	ldr.w	r3, [r7, #260]	@ 0x104
 8003c56:	6f9b      	ldr	r3, [r3, #120]	@ 0x78
 8003c58:	2b28      	cmp	r3, #40	@ 0x28
 8003c5a:	d871      	bhi.n	8003d40 <HAL_RCCEx_PeriphCLKConfig+0x98c>
 8003c5c:	a201      	add	r2, pc, #4	@ (adr r2, 8003c64 <HAL_RCCEx_PeriphCLKConfig+0x8b0>)
 8003c5e:	f852 f023 	ldr.w	pc, [r2, r3, lsl #2]
 8003c62:	bf00      	nop
 8003c64:	08003d49 	.word	0x08003d49
 8003c68:	08003d41 	.word	0x08003d41
 8003c6c:	08003d41 	.word	0x08003d41
 8003c70:	08003d41 	.word	0x08003d41
 8003c74:	08003d41 	.word	0x08003d41
 8003c78:	08003d41 	.word	0x08003d41
 8003c7c:	08003d41 	.word	0x08003d41
 8003c80:	08003d41 	.word	0x08003d41
 8003c84:	08003d15 	.word	0x08003d15
 8003c88:	08003d41 	.word	0x08003d41
 8003c8c:	08003d41 	.word	0x08003d41
 8003c90:	08003d41 	.word	0x08003d41
 8003c94:	08003d41 	.word	0x08003d41
 8003c98:	08003d41 	.word	0x08003d41
 8003c9c:	08003d41 	.word	0x08003d41
 8003ca0:	08003d41 	.word	0x08003d41
 8003ca4:	08003d2b 	.word	0x08003d2b
 8003ca8:	08003d41 	.word	0x08003d41
 8003cac:	08003d41 	.word	0x08003d41
 8003cb0:	08003d41 	.word	0x08003d41
 8003cb4:	08003d41 	.word	0x08003d41
 8003cb8:	08003d41 	.word	0x08003d41
 8003cbc:	08003d41 	.word	0x08003d41
 8003cc0:	08003d41 	.word	0x08003d41
 8003cc4:	08003d49 	.word	0x08003d49
 8003cc8:	08003d41 	.word	0x08003d41
 8003ccc:	08003d41 	.word	0x08003d41
 8003cd0:	08003d41 	.word	0x08003d41
 8003cd4:	08003d41 	.word	0x08003d41
 8003cd8:	08003d41 	.word	0x08003d41
 8003cdc:	08003d41 	.word	0x08003d41
 8003ce0:	08003d41 	.word	0x08003d41
 8003ce4:	08003d49 	.word	0x08003d49
 8003ce8:	08003d41 	.word	0x08003d41
 8003cec:	08003d41 	.word	0x08003d41
 8003cf0:	08003d41 	.word	0x08003d41
 8003cf4:	08003d41 	.word	0x08003d41
 8003cf8:	08003d41 	.word	0x08003d41
 8003cfc:	08003d41 	.word	0x08003d41
 8003d00:	08003d41 	.word	0x08003d41
 8003d04:	08003d49 	.word	0x08003d49
 8003d08:	58024400 	.word	0x58024400
 8003d0c:	58024800 	.word	0x58024800
 8003d10:	00ffffcf 	.word	0x00ffffcf
      case RCC_USART16CLKSOURCE_PCLK2: /* CD/D2 PCLK2 as clock source for USART1/6 */
        /* USART1/6 clock source configuration done later after clock selection check */
        break;

      case RCC_USART16CLKSOURCE_PLL2: /* PLL2 is used as clock source for USART1/6 */
        ret = RCCEx_PLL2_Config(&(PeriphClkInit->PLL2), DIVIDER_Q_UPDATE);
 8003d14:	f8d7 3104 	ldr.w	r3, [r7, #260]	@ 0x104
 8003d18:	3308      	adds	r3, #8
 8003d1a:	2101      	movs	r1, #1
 8003d1c:	4618      	mov	r0, r3
 8003d1e:	f000 ffa7 	bl	8004c70 <RCCEx_PLL2_Config>
 8003d22:	4603      	mov	r3, r0
 8003d24:	f887 3117 	strb.w	r3, [r7, #279]	@ 0x117
        /* USART1/6 clock source configuration done later after clock selection check */
        break;
 8003d28:	e00f      	b.n	8003d4a <HAL_RCCEx_PeriphCLKConfig+0x996>

      case RCC_USART16CLKSOURCE_PLL3: /* PLL3 is used as clock source for USART1/6 */
        ret = RCCEx_PLL3_Config(&(PeriphClkInit->PLL3), DIVIDER_Q_UPDATE);
 8003d2a:	f8d7 3104 	ldr.w	r3, [r7, #260]	@ 0x104
 8003d2e:	3328      	adds	r3, #40	@ 0x28
 8003d30:	2101      	movs	r1, #1
 8003d32:	4618      	mov	r0, r3
 8003d34:	f001 f84e 	bl	8004dd4 <RCCEx_PLL3_Config>
 8003d38:	4603      	mov	r3, r0
 8003d3a:	f887 3117 	strb.w	r3, [r7, #279]	@ 0x117
        /* USART1/6 clock source configuration done later after clock selection check */
        break;
 8003d3e:	e004      	b.n	8003d4a <HAL_RCCEx_PeriphCLKConfig+0x996>
        /* LSE,  oscillator is used as source of USART1/6 clock */
        /* USART1/6 clock source configuration done later after clock selection check */
        break;

      default:
        ret = HAL_ERROR;
 8003d40:	2301      	movs	r3, #1
 8003d42:	f887 3117 	strb.w	r3, [r7, #279]	@ 0x117
        break;
 8003d46:	e000      	b.n	8003d4a <HAL_RCCEx_PeriphCLKConfig+0x996>
        break;
 8003d48:	bf00      	nop
    }

    if (ret == HAL_OK)
 8003d4a:	f897 3117 	ldrb.w	r3, [r7, #279]	@ 0x117
 8003d4e:	2b00      	cmp	r3, #0
 8003d50:	d10a      	bne.n	8003d68 <HAL_RCCEx_PeriphCLKConfig+0x9b4>
    {
      /* Set the source of USART1/6 clock */
      __HAL_RCC_USART16_CONFIG(PeriphClkInit->Usart16ClockSelection);
 8003d52:	4bbf      	ldr	r3, [pc, #764]	@ (8004050 <HAL_RCCEx_PeriphCLKConfig+0xc9c>)
 8003d54:	6d5b      	ldr	r3, [r3, #84]	@ 0x54
 8003d56:	f023 0138 	bic.w	r1, r3, #56	@ 0x38
 8003d5a:	f8d7 3104 	ldr.w	r3, [r7, #260]	@ 0x104
 8003d5e:	6f9b      	ldr	r3, [r3, #120]	@ 0x78
 8003d60:	4abb      	ldr	r2, [pc, #748]	@ (8004050 <HAL_RCCEx_PeriphCLKConfig+0xc9c>)
 8003d62:	430b      	orrs	r3, r1
 8003d64:	6553      	str	r3, [r2, #84]	@ 0x54
 8003d66:	e003      	b.n	8003d70 <HAL_RCCEx_PeriphCLKConfig+0x9bc>
    }
    else
    {
      /* set overall return value */
      status = ret;
 8003d68:	f897 3117 	ldrb.w	r3, [r7, #279]	@ 0x117
 8003d6c:	f887 3116 	strb.w	r3, [r7, #278]	@ 0x116
    }
  }

  /*-------------------------- USART2/3/4/5/7/8 Configuration --------------------------*/
  if (((PeriphClkInit->PeriphClockSelection) & RCC_PERIPHCLK_USART234578) == RCC_PERIPHCLK_USART234578)
 8003d70:	f8d7 3104 	ldr.w	r3, [r7, #260]	@ 0x104
 8003d74:	e9d3 2300 	ldrd	r2, r3, [r3]
 8003d78:	f002 0302 	and.w	r3, r2, #2
 8003d7c:	f8c7 30b0 	str.w	r3, [r7, #176]	@ 0xb0
 8003d80:	2300      	movs	r3, #0
 8003d82:	f8c7 30b4 	str.w	r3, [r7, #180]	@ 0xb4
 8003d86:	e9d7 122c 	ldrd	r1, r2, [r7, #176]	@ 0xb0
 8003d8a:	460b      	mov	r3, r1
 8003d8c:	4313      	orrs	r3, r2
 8003d8e:	d041      	beq.n	8003e14 <HAL_RCCEx_PeriphCLKConfig+0xa60>
  {
    switch (PeriphClkInit->Usart234578ClockSelection)
 8003d90:	f8d7 3104 	ldr.w	r3, [r7, #260]	@ 0x104
 8003d94:	6f5b      	ldr	r3, [r3, #116]	@ 0x74
 8003d96:	2b05      	cmp	r3, #5
 8003d98:	d824      	bhi.n	8003de4 <HAL_RCCEx_PeriphCLKConfig+0xa30>
 8003d9a:	a201      	add	r2, pc, #4	@ (adr r2, 8003da0 <HAL_RCCEx_PeriphCLKConfig+0x9ec>)
 8003d9c:	f852 f023 	ldr.w	pc, [r2, r3, lsl #2]
 8003da0:	08003ded 	.word	0x08003ded
 8003da4:	08003db9 	.word	0x08003db9
 8003da8:	08003dcf 	.word	0x08003dcf
 8003dac:	08003ded 	.word	0x08003ded
 8003db0:	08003ded 	.word	0x08003ded
 8003db4:	08003ded 	.word	0x08003ded
      case RCC_USART234578CLKSOURCE_PCLK1: /* CD/D2 PCLK1 as clock source for USART2/3/4/5/7/8 */
        /* USART2/3/4/5/7/8 clock source configuration done later after clock selection check */
        break;

      case RCC_USART234578CLKSOURCE_PLL2: /* PLL2 is used as clock source for USART2/3/4/5/7/8 */
        ret = RCCEx_PLL2_Config(&(PeriphClkInit->PLL2), DIVIDER_Q_UPDATE);
 8003db8:	f8d7 3104 	ldr.w	r3, [r7, #260]	@ 0x104
 8003dbc:	3308      	adds	r3, #8
 8003dbe:	2101      	movs	r1, #1
 8003dc0:	4618      	mov	r0, r3
 8003dc2:	f000 ff55 	bl	8004c70 <RCCEx_PLL2_Config>
 8003dc6:	4603      	mov	r3, r0
 8003dc8:	f887 3117 	strb.w	r3, [r7, #279]	@ 0x117
        /* USART2/3/4/5/7/8 clock source configuration done later after clock selection check */
        break;
 8003dcc:	e00f      	b.n	8003dee <HAL_RCCEx_PeriphCLKConfig+0xa3a>

      case RCC_USART234578CLKSOURCE_PLL3: /* PLL3 is used as clock source for USART2/3/4/5/7/8 */
        ret = RCCEx_PLL3_Config(&(PeriphClkInit->PLL3), DIVIDER_Q_UPDATE);
 8003dce:	f8d7 3104 	ldr.w	r3, [r7, #260]	@ 0x104
 8003dd2:	3328      	adds	r3, #40	@ 0x28
 8003dd4:	2101      	movs	r1, #1
 8003dd6:	4618      	mov	r0, r3
 8003dd8:	f000 fffc 	bl	8004dd4 <RCCEx_PLL3_Config>
 8003ddc:	4603      	mov	r3, r0
 8003dde:	f887 3117 	strb.w	r3, [r7, #279]	@ 0x117
        /* USART2/3/4/5/7/8 clock source configuration done later after clock selection check */
        break;
 8003de2:	e004      	b.n	8003dee <HAL_RCCEx_PeriphCLKConfig+0xa3a>
        /* LSE,  oscillator is used as source of USART2/3/4/5/7/8 clock */
        /* USART2/3/4/5/7/8 clock source configuration done later after clock selection check */
        break;

      default:
        ret = HAL_ERROR;
 8003de4:	2301      	movs	r3, #1
 8003de6:	f887 3117 	strb.w	r3, [r7, #279]	@ 0x117
        break;
 8003dea:	e000      	b.n	8003dee <HAL_RCCEx_PeriphCLKConfig+0xa3a>
        break;
 8003dec:	bf00      	nop
    }

    if (ret == HAL_OK)
 8003dee:	f897 3117 	ldrb.w	r3, [r7, #279]	@ 0x117
 8003df2:	2b00      	cmp	r3, #0
 8003df4:	d10a      	bne.n	8003e0c <HAL_RCCEx_PeriphCLKConfig+0xa58>
    {
      /* Set the source of USART2/3/4/5/7/8 clock */
      __HAL_RCC_USART234578_CONFIG(PeriphClkInit->Usart234578ClockSelection);
 8003df6:	4b96      	ldr	r3, [pc, #600]	@ (8004050 <HAL_RCCEx_PeriphCLKConfig+0xc9c>)
 8003df8:	6d5b      	ldr	r3, [r3, #84]	@ 0x54
 8003dfa:	f023 0107 	bic.w	r1, r3, #7
 8003dfe:	f8d7 3104 	ldr.w	r3, [r7, #260]	@ 0x104
 8003e02:	6f5b      	ldr	r3, [r3, #116]	@ 0x74
 8003e04:	4a92      	ldr	r2, [pc, #584]	@ (8004050 <HAL_RCCEx_PeriphCLKConfig+0xc9c>)
 8003e06:	430b      	orrs	r3, r1
 8003e08:	6553      	str	r3, [r2, #84]	@ 0x54
 8003e0a:	e003      	b.n	8003e14 <HAL_RCCEx_PeriphCLKConfig+0xa60>
    }
    else
    {
      /* set overall return value */
      status = ret;
 8003e0c:	f897 3117 	ldrb.w	r3, [r7, #279]	@ 0x117
 8003e10:	f887 3116 	strb.w	r3, [r7, #278]	@ 0x116
    }
  }

  /*-------------------------- LPUART1 Configuration -------------------------*/
  if (((PeriphClkInit->PeriphClockSelection) & RCC_PERIPHCLK_LPUART1) == RCC_PERIPHCLK_LPUART1)
 8003e14:	f8d7 3104 	ldr.w	r3, [r7, #260]	@ 0x104
 8003e18:	e9d3 2300 	ldrd	r2, r3, [r3]
 8003e1c:	f002 0304 	and.w	r3, r2, #4
 8003e20:	f8c7 30a8 	str.w	r3, [r7, #168]	@ 0xa8
 8003e24:	2300      	movs	r3, #0
 8003e26:	f8c7 30ac 	str.w	r3, [r7, #172]	@ 0xac
 8003e2a:	e9d7 122a 	ldrd	r1, r2, [r7, #168]	@ 0xa8
 8003e2e:	460b      	mov	r3, r1
 8003e30:	4313      	orrs	r3, r2
 8003e32:	d044      	beq.n	8003ebe <HAL_RCCEx_PeriphCLKConfig+0xb0a>
  {
    switch (PeriphClkInit->Lpuart1ClockSelection)
 8003e34:	f8d7 3104 	ldr.w	r3, [r7, #260]	@ 0x104
 8003e38:	f8d3 3090 	ldr.w	r3, [r3, #144]	@ 0x90
 8003e3c:	2b05      	cmp	r3, #5
 8003e3e:	d825      	bhi.n	8003e8c <HAL_RCCEx_PeriphCLKConfig+0xad8>
 8003e40:	a201      	add	r2, pc, #4	@ (adr r2, 8003e48 <HAL_RCCEx_PeriphCLKConfig+0xa94>)
 8003e42:	f852 f023 	ldr.w	pc, [r2, r3, lsl #2]
 8003e46:	bf00      	nop
 8003e48:	08003e95 	.word	0x08003e95
 8003e4c:	08003e61 	.word	0x08003e61
 8003e50:	08003e77 	.word	0x08003e77
 8003e54:	08003e95 	.word	0x08003e95
 8003e58:	08003e95 	.word	0x08003e95
 8003e5c:	08003e95 	.word	0x08003e95
      case RCC_LPUART1CLKSOURCE_PCLK4: /* SRD/D3 PCLK1 (PCLK4) as clock source for LPUART1 */
        /* LPUART1 clock source configuration done later after clock selection check */
        break;

      case RCC_LPUART1CLKSOURCE_PLL2: /* PLL2 is used as clock source for LPUART1 */
        ret = RCCEx_PLL2_Config(&(PeriphClkInit->PLL2), DIVIDER_Q_UPDATE);
 8003e60:	f8d7 3104 	ldr.w	r3, [r7, #260]	@ 0x104
 8003e64:	3308      	adds	r3, #8
 8003e66:	2101      	movs	r1, #1
 8003e68:	4618      	mov	r0, r3
 8003e6a:	f000 ff01 	bl	8004c70 <RCCEx_PLL2_Config>
 8003e6e:	4603      	mov	r3, r0
 8003e70:	f887 3117 	strb.w	r3, [r7, #279]	@ 0x117
        /* LPUART1 clock source configuration done later after clock selection check */
        break;
 8003e74:	e00f      	b.n	8003e96 <HAL_RCCEx_PeriphCLKConfig+0xae2>

      case RCC_LPUART1CLKSOURCE_PLL3: /* PLL3 is used as clock source for LPUART1 */
        ret = RCCEx_PLL3_Config(&(PeriphClkInit->PLL3), DIVIDER_Q_UPDATE);
 8003e76:	f8d7 3104 	ldr.w	r3, [r7, #260]	@ 0x104
 8003e7a:	3328      	adds	r3, #40	@ 0x28
 8003e7c:	2101      	movs	r1, #1
 8003e7e:	4618      	mov	r0, r3
 8003e80:	f000 ffa8 	bl	8004dd4 <RCCEx_PLL3_Config>
 8003e84:	4603      	mov	r3, r0
 8003e86:	f887 3117 	strb.w	r3, [r7, #279]	@ 0x117
        /* LPUART1 clock source configuration done later after clock selection check */
        break;
 8003e8a:	e004      	b.n	8003e96 <HAL_RCCEx_PeriphCLKConfig+0xae2>
        /* LSE,  oscillator is used as source of LPUART1 clock */
        /* LPUART1 clock source configuration done later after clock selection check */
        break;

      default:
        ret = HAL_ERROR;
 8003e8c:	2301      	movs	r3, #1
 8003e8e:	f887 3117 	strb.w	r3, [r7, #279]	@ 0x117
        break;
 8003e92:	e000      	b.n	8003e96 <HAL_RCCEx_PeriphCLKConfig+0xae2>
        break;
 8003e94:	bf00      	nop
    }

    if (ret == HAL_OK)
 8003e96:	f897 3117 	ldrb.w	r3, [r7, #279]	@ 0x117
 8003e9a:	2b00      	cmp	r3, #0
 8003e9c:	d10b      	bne.n	8003eb6 <HAL_RCCEx_PeriphCLKConfig+0xb02>
    {
      /* Set the source of LPUART1 clock */
      __HAL_RCC_LPUART1_CONFIG(PeriphClkInit->Lpuart1ClockSelection);
 8003e9e:	4b6c      	ldr	r3, [pc, #432]	@ (8004050 <HAL_RCCEx_PeriphCLKConfig+0xc9c>)
 8003ea0:	6d9b      	ldr	r3, [r3, #88]	@ 0x58
 8003ea2:	f023 0107 	bic.w	r1, r3, #7
 8003ea6:	f8d7 3104 	ldr.w	r3, [r7, #260]	@ 0x104
 8003eaa:	f8d3 3090 	ldr.w	r3, [r3, #144]	@ 0x90
 8003eae:	4a68      	ldr	r2, [pc, #416]	@ (8004050 <HAL_RCCEx_PeriphCLKConfig+0xc9c>)
 8003eb0:	430b      	orrs	r3, r1
 8003eb2:	6593      	str	r3, [r2, #88]	@ 0x58
 8003eb4:	e003      	b.n	8003ebe <HAL_RCCEx_PeriphCLKConfig+0xb0a>
    }
    else
    {
      /* set overall return value */
      status = ret;
 8003eb6:	f897 3117 	ldrb.w	r3, [r7, #279]	@ 0x117
 8003eba:	f887 3116 	strb.w	r3, [r7, #278]	@ 0x116
    }
  }

  /*---------------------------- LPTIM1 configuration -------------------------------*/
  if (((PeriphClkInit->PeriphClockSelection) & RCC_PERIPHCLK_LPTIM1) == RCC_PERIPHCLK_LPTIM1)
 8003ebe:	f8d7 3104 	ldr.w	r3, [r7, #260]	@ 0x104
 8003ec2:	e9d3 2300 	ldrd	r2, r3, [r3]
 8003ec6:	f002 0320 	and.w	r3, r2, #32
 8003eca:	f8c7 30a0 	str.w	r3, [r7, #160]	@ 0xa0
 8003ece:	2300      	movs	r3, #0
 8003ed0:	f8c7 30a4 	str.w	r3, [r7, #164]	@ 0xa4
 8003ed4:	e9d7 1228 	ldrd	r1, r2, [r7, #160]	@ 0xa0
 8003ed8:	460b      	mov	r3, r1
 8003eda:	4313      	orrs	r3, r2
 8003edc:	d055      	beq.n	8003f8a <HAL_RCCEx_PeriphCLKConfig+0xbd6>
  {
    switch (PeriphClkInit->Lptim1ClockSelection)
 8003ede:	f8d7 3104 	ldr.w	r3, [r7, #260]	@ 0x104
 8003ee2:	f8d3 308c 	ldr.w	r3, [r3, #140]	@ 0x8c
 8003ee6:	f1b3 4fa0 	cmp.w	r3, #1342177280	@ 0x50000000
 8003eea:	d033      	beq.n	8003f54 <HAL_RCCEx_PeriphCLKConfig+0xba0>
 8003eec:	f1b3 4fa0 	cmp.w	r3, #1342177280	@ 0x50000000
 8003ef0:	d82c      	bhi.n	8003f4c <HAL_RCCEx_PeriphCLKConfig+0xb98>
 8003ef2:	f1b3 4f80 	cmp.w	r3, #1073741824	@ 0x40000000
 8003ef6:	d02f      	beq.n	8003f58 <HAL_RCCEx_PeriphCLKConfig+0xba4>
 8003ef8:	f1b3 4f80 	cmp.w	r3, #1073741824	@ 0x40000000
 8003efc:	d826      	bhi.n	8003f4c <HAL_RCCEx_PeriphCLKConfig+0xb98>
 8003efe:	f1b3 5f40 	cmp.w	r3, #805306368	@ 0x30000000
 8003f02:	d02b      	beq.n	8003f5c <HAL_RCCEx_PeriphCLKConfig+0xba8>
 8003f04:	f1b3 5f40 	cmp.w	r3, #805306368	@ 0x30000000
 8003f08:	d820      	bhi.n	8003f4c <HAL_RCCEx_PeriphCLKConfig+0xb98>
 8003f0a:	f1b3 5f00 	cmp.w	r3, #536870912	@ 0x20000000
 8003f0e:	d012      	beq.n	8003f36 <HAL_RCCEx_PeriphCLKConfig+0xb82>
 8003f10:	f1b3 5f00 	cmp.w	r3, #536870912	@ 0x20000000
 8003f14:	d81a      	bhi.n	8003f4c <HAL_RCCEx_PeriphCLKConfig+0xb98>
 8003f16:	2b00      	cmp	r3, #0
 8003f18:	d022      	beq.n	8003f60 <HAL_RCCEx_PeriphCLKConfig+0xbac>
 8003f1a:	f1b3 5f80 	cmp.w	r3, #268435456	@ 0x10000000
 8003f1e:	d115      	bne.n	8003f4c <HAL_RCCEx_PeriphCLKConfig+0xb98>
        /* LPTIM1 clock source configuration done later after clock selection check */
        break;

      case RCC_LPTIM1CLKSOURCE_PLL2: /* PLL2 is used as clock source for LPTIM1*/

        ret = RCCEx_PLL2_Config(&(PeriphClkInit->PLL2), DIVIDER_P_UPDATE);
 8003f20:	f8d7 3104 	ldr.w	r3, [r7, #260]	@ 0x104
 8003f24:	3308      	adds	r3, #8
 8003f26:	2100      	movs	r1, #0
 8003f28:	4618      	mov	r0, r3
 8003f2a:	f000 fea1 	bl	8004c70 <RCCEx_PLL2_Config>
 8003f2e:	4603      	mov	r3, r0
 8003f30:	f887 3117 	strb.w	r3, [r7, #279]	@ 0x117

        /* LPTIM1 clock source configuration done later after clock selection check */
        break;
 8003f34:	e015      	b.n	8003f62 <HAL_RCCEx_PeriphCLKConfig+0xbae>

      case RCC_LPTIM1CLKSOURCE_PLL3:  /* PLL3 is used as clock source for LPTIM1*/
        ret = RCCEx_PLL3_Config(&(PeriphClkInit->PLL3), DIVIDER_R_UPDATE);
 8003f36:	f8d7 3104 	ldr.w	r3, [r7, #260]	@ 0x104
 8003f3a:	3328      	adds	r3, #40	@ 0x28
 8003f3c:	2102      	movs	r1, #2
 8003f3e:	4618      	mov	r0, r3
 8003f40:	f000 ff48 	bl	8004dd4 <RCCEx_PLL3_Config>
 8003f44:	4603      	mov	r3, r0
 8003f46:	f887 3117 	strb.w	r3, [r7, #279]	@ 0x117

        /* LPTIM1 clock source configuration done later after clock selection check */
        break;
 8003f4a:	e00a      	b.n	8003f62 <HAL_RCCEx_PeriphCLKConfig+0xbae>
        /* HSI, HSE, or CSI oscillator is used as source of LPTIM1 clock */
        /* LPTIM1 clock source configuration done later after clock selection check */
        break;

      default:
        ret = HAL_ERROR;
 8003f4c:	2301      	movs	r3, #1
 8003f4e:	f887 3117 	strb.w	r3, [r7, #279]	@ 0x117
        break;
 8003f52:	e006      	b.n	8003f62 <HAL_RCCEx_PeriphCLKConfig+0xbae>
        break;
 8003f54:	bf00      	nop
 8003f56:	e004      	b.n	8003f62 <HAL_RCCEx_PeriphCLKConfig+0xbae>
        break;
 8003f58:	bf00      	nop
 8003f5a:	e002      	b.n	8003f62 <HAL_RCCEx_PeriphCLKConfig+0xbae>
        break;
 8003f5c:	bf00      	nop
 8003f5e:	e000      	b.n	8003f62 <HAL_RCCEx_PeriphCLKConfig+0xbae>
        break;
 8003f60:	bf00      	nop
    }

    if (ret == HAL_OK)
 8003f62:	f897 3117 	ldrb.w	r3, [r7, #279]	@ 0x117
 8003f66:	2b00      	cmp	r3, #0
 8003f68:	d10b      	bne.n	8003f82 <HAL_RCCEx_PeriphCLKConfig+0xbce>
    {
      /* Set the source of LPTIM1 clock*/
      __HAL_RCC_LPTIM1_CONFIG(PeriphClkInit->Lptim1ClockSelection);
 8003f6a:	4b39      	ldr	r3, [pc, #228]	@ (8004050 <HAL_RCCEx_PeriphCLKConfig+0xc9c>)
 8003f6c:	6d5b      	ldr	r3, [r3, #84]	@ 0x54
 8003f6e:	f023 41e0 	bic.w	r1, r3, #1879048192	@ 0x70000000
 8003f72:	f8d7 3104 	ldr.w	r3, [r7, #260]	@ 0x104
 8003f76:	f8d3 308c 	ldr.w	r3, [r3, #140]	@ 0x8c
 8003f7a:	4a35      	ldr	r2, [pc, #212]	@ (8004050 <HAL_RCCEx_PeriphCLKConfig+0xc9c>)
 8003f7c:	430b      	orrs	r3, r1
 8003f7e:	6553      	str	r3, [r2, #84]	@ 0x54
 8003f80:	e003      	b.n	8003f8a <HAL_RCCEx_PeriphCLKConfig+0xbd6>
    }
    else
    {
      /* set overall return value */
      status = ret;
 8003f82:	f897 3117 	ldrb.w	r3, [r7, #279]	@ 0x117
 8003f86:	f887 3116 	strb.w	r3, [r7, #278]	@ 0x116
    }
  }

  /*---------------------------- LPTIM2 configuration -------------------------------*/
  if (((PeriphClkInit->PeriphClockSelection) & RCC_PERIPHCLK_LPTIM2) == RCC_PERIPHCLK_LPTIM2)
 8003f8a:	f8d7 3104 	ldr.w	r3, [r7, #260]	@ 0x104
 8003f8e:	e9d3 2300 	ldrd	r2, r3, [r3]
 8003f92:	f002 0340 	and.w	r3, r2, #64	@ 0x40
 8003f96:	f8c7 3098 	str.w	r3, [r7, #152]	@ 0x98
 8003f9a:	2300      	movs	r3, #0
 8003f9c:	f8c7 309c 	str.w	r3, [r7, #156]	@ 0x9c
 8003fa0:	e9d7 1226 	ldrd	r1, r2, [r7, #152]	@ 0x98
 8003fa4:	460b      	mov	r3, r1
 8003fa6:	4313      	orrs	r3, r2
 8003fa8:	d058      	beq.n	800405c <HAL_RCCEx_PeriphCLKConfig+0xca8>
  {
    switch (PeriphClkInit->Lptim2ClockSelection)
 8003faa:	f8d7 3104 	ldr.w	r3, [r7, #260]	@ 0x104
 8003fae:	f8d3 3098 	ldr.w	r3, [r3, #152]	@ 0x98
 8003fb2:	f5b3 5fa0 	cmp.w	r3, #5120	@ 0x1400
 8003fb6:	d033      	beq.n	8004020 <HAL_RCCEx_PeriphCLKConfig+0xc6c>
 8003fb8:	f5b3 5fa0 	cmp.w	r3, #5120	@ 0x1400
 8003fbc:	d82c      	bhi.n	8004018 <HAL_RCCEx_PeriphCLKConfig+0xc64>
 8003fbe:	f5b3 5f80 	cmp.w	r3, #4096	@ 0x1000
 8003fc2:	d02f      	beq.n	8004024 <HAL_RCCEx_PeriphCLKConfig+0xc70>
 8003fc4:	f5b3 5f80 	cmp.w	r3, #4096	@ 0x1000
 8003fc8:	d826      	bhi.n	8004018 <HAL_RCCEx_PeriphCLKConfig+0xc64>
 8003fca:	f5b3 6f40 	cmp.w	r3, #3072	@ 0xc00
 8003fce:	d02b      	beq.n	8004028 <HAL_RCCEx_PeriphCLKConfig+0xc74>
 8003fd0:	f5b3 6f40 	cmp.w	r3, #3072	@ 0xc00
 8003fd4:	d820      	bhi.n	8004018 <HAL_RCCEx_PeriphCLKConfig+0xc64>
 8003fd6:	f5b3 6f00 	cmp.w	r3, #2048	@ 0x800
 8003fda:	d012      	beq.n	8004002 <HAL_RCCEx_PeriphCLKConfig+0xc4e>
 8003fdc:	f5b3 6f00 	cmp.w	r3, #2048	@ 0x800
 8003fe0:	d81a      	bhi.n	8004018 <HAL_RCCEx_PeriphCLKConfig+0xc64>
 8003fe2:	2b00      	cmp	r3, #0
 8003fe4:	d022      	beq.n	800402c <HAL_RCCEx_PeriphCLKConfig+0xc78>
 8003fe6:	f5b3 6f80 	cmp.w	r3, #1024	@ 0x400
 8003fea:	d115      	bne.n	8004018 <HAL_RCCEx_PeriphCLKConfig+0xc64>
        /* LPTIM2 clock source configuration done later after clock selection check */
        break;

      case RCC_LPTIM2CLKSOURCE_PLL2: /* PLL2 is used as clock source for LPTIM2*/

        ret = RCCEx_PLL2_Config(&(PeriphClkInit->PLL2), DIVIDER_P_UPDATE);
 8003fec:	f8d7 3104 	ldr.w	r3, [r7, #260]	@ 0x104
 8003ff0:	3308      	adds	r3, #8
 8003ff2:	2100      	movs	r1, #0
 8003ff4:	4618      	mov	r0, r3
 8003ff6:	f000 fe3b 	bl	8004c70 <RCCEx_PLL2_Config>
 8003ffa:	4603      	mov	r3, r0
 8003ffc:	f887 3117 	strb.w	r3, [r7, #279]	@ 0x117

        /* LPTIM2 clock source configuration done later after clock selection check */
        break;
 8004000:	e015      	b.n	800402e <HAL_RCCEx_PeriphCLKConfig+0xc7a>

      case RCC_LPTIM2CLKSOURCE_PLL3:  /* PLL3 is used as clock source for LPTIM2*/
        ret = RCCEx_PLL3_Config(&(PeriphClkInit->PLL3), DIVIDER_R_UPDATE);
 8004002:	f8d7 3104 	ldr.w	r3, [r7, #260]	@ 0x104
 8004006:	3328      	adds	r3, #40	@ 0x28
 8004008:	2102      	movs	r1, #2
 800400a:	4618      	mov	r0, r3
 800400c:	f000 fee2 	bl	8004dd4 <RCCEx_PLL3_Config>
 8004010:	4603      	mov	r3, r0
 8004012:	f887 3117 	strb.w	r3, [r7, #279]	@ 0x117

        /* LPTIM2 clock source configuration done later after clock selection check */
        break;
 8004016:	e00a      	b.n	800402e <HAL_RCCEx_PeriphCLKConfig+0xc7a>
        /* HSI, HSE, or CSI oscillator is used as source of LPTIM2 clock */
        /* LPTIM2 clock source configuration done later after clock selection check */
        break;

      default:
        ret = HAL_ERROR;
 8004018:	2301      	movs	r3, #1
 800401a:	f887 3117 	strb.w	r3, [r7, #279]	@ 0x117
        break;
 800401e:	e006      	b.n	800402e <HAL_RCCEx_PeriphCLKConfig+0xc7a>
        break;
 8004020:	bf00      	nop
 8004022:	e004      	b.n	800402e <HAL_RCCEx_PeriphCLKConfig+0xc7a>
        break;
 8004024:	bf00      	nop
 8004026:	e002      	b.n	800402e <HAL_RCCEx_PeriphCLKConfig+0xc7a>
        break;
 8004028:	bf00      	nop
 800402a:	e000      	b.n	800402e <HAL_RCCEx_PeriphCLKConfig+0xc7a>
        break;
 800402c:	bf00      	nop
    }

    if (ret == HAL_OK)
 800402e:	f897 3117 	ldrb.w	r3, [r7, #279]	@ 0x117
 8004032:	2b00      	cmp	r3, #0
 8004034:	d10e      	bne.n	8004054 <HAL_RCCEx_PeriphCLKConfig+0xca0>
    {
      /* Set the source of LPTIM2 clock*/
      __HAL_RCC_LPTIM2_CONFIG(PeriphClkInit->Lptim2ClockSelection);
 8004036:	4b06      	ldr	r3, [pc, #24]	@ (8004050 <HAL_RCCEx_PeriphCLKConfig+0xc9c>)
 8004038:	6d9b      	ldr	r3, [r3, #88]	@ 0x58
 800403a:	f423 51e0 	bic.w	r1, r3, #7168	@ 0x1c00
 800403e:	f8d7 3104 	ldr.w	r3, [r7, #260]	@ 0x104
 8004042:	f8d3 3098 	ldr.w	r3, [r3, #152]	@ 0x98
 8004046:	4a02      	ldr	r2, [pc, #8]	@ (8004050 <HAL_RCCEx_PeriphCLKConfig+0xc9c>)
 8004048:	430b      	orrs	r3, r1
 800404a:	6593      	str	r3, [r2, #88]	@ 0x58
 800404c:	e006      	b.n	800405c <HAL_RCCEx_PeriphCLKConfig+0xca8>
 800404e:	bf00      	nop
 8004050:	58024400 	.word	0x58024400
    }
    else
    {
      /* set overall return value */
      status = ret;
 8004054:	f897 3117 	ldrb.w	r3, [r7, #279]	@ 0x117
 8004058:	f887 3116 	strb.w	r3, [r7, #278]	@ 0x116
    }
  }

  /*---------------------------- LPTIM345 configuration -------------------------------*/
  if (((PeriphClkInit->PeriphClockSelection) & RCC_PERIPHCLK_LPTIM345) == RCC_PERIPHCLK_LPTIM345)
 800405c:	f8d7 3104 	ldr.w	r3, [r7, #260]	@ 0x104
 8004060:	e9d3 2300 	ldrd	r2, r3, [r3]
 8004064:	f002 0380 	and.w	r3, r2, #128	@ 0x80
 8004068:	f8c7 3090 	str.w	r3, [r7, #144]	@ 0x90
 800406c:	2300      	movs	r3, #0
 800406e:	f8c7 3094 	str.w	r3, [r7, #148]	@ 0x94
 8004072:	e9d7 1224 	ldrd	r1, r2, [r7, #144]	@ 0x90
 8004076:	460b      	mov	r3, r1
 8004078:	4313      	orrs	r3, r2
 800407a:	d055      	beq.n	8004128 <HAL_RCCEx_PeriphCLKConfig+0xd74>
  {
    switch (PeriphClkInit->Lptim345ClockSelection)
 800407c:	f8d7 3104 	ldr.w	r3, [r7, #260]	@ 0x104
 8004080:	f8d3 309c 	ldr.w	r3, [r3, #156]	@ 0x9c
 8004084:	f5b3 4f20 	cmp.w	r3, #40960	@ 0xa000
 8004088:	d033      	beq.n	80040f2 <HAL_RCCEx_PeriphCLKConfig+0xd3e>
 800408a:	f5b3 4f20 	cmp.w	r3, #40960	@ 0xa000
 800408e:	d82c      	bhi.n	80040ea <HAL_RCCEx_PeriphCLKConfig+0xd36>
 8004090:	f5b3 4f00 	cmp.w	r3, #32768	@ 0x8000
 8004094:	d02f      	beq.n	80040f6 <HAL_RCCEx_PeriphCLKConfig+0xd42>
 8004096:	f5b3 4f00 	cmp.w	r3, #32768	@ 0x8000
 800409a:	d826      	bhi.n	80040ea <HAL_RCCEx_PeriphCLKConfig+0xd36>
 800409c:	f5b3 4fc0 	cmp.w	r3, #24576	@ 0x6000
 80040a0:	d02b      	beq.n	80040fa <HAL_RCCEx_PeriphCLKConfig+0xd46>
 80040a2:	f5b3 4fc0 	cmp.w	r3, #24576	@ 0x6000
 80040a6:	d820      	bhi.n	80040ea <HAL_RCCEx_PeriphCLKConfig+0xd36>
 80040a8:	f5b3 4f80 	cmp.w	r3, #16384	@ 0x4000
 80040ac:	d012      	beq.n	80040d4 <HAL_RCCEx_PeriphCLKConfig+0xd20>
 80040ae:	f5b3 4f80 	cmp.w	r3, #16384	@ 0x4000
 80040b2:	d81a      	bhi.n	80040ea <HAL_RCCEx_PeriphCLKConfig+0xd36>
 80040b4:	2b00      	cmp	r3, #0
 80040b6:	d022      	beq.n	80040fe <HAL_RCCEx_PeriphCLKConfig+0xd4a>
 80040b8:	f5b3 5f00 	cmp.w	r3, #8192	@ 0x2000
 80040bc:	d115      	bne.n	80040ea <HAL_RCCEx_PeriphCLKConfig+0xd36>
      case RCC_LPTIM345CLKSOURCE_PCLK4:      /* SRD/D3 PCLK1 (PCLK4) as clock source for LPTIM3/4/5 */
        /* LPTIM3/4/5 clock source configuration done later after clock selection check */
        break;

      case RCC_LPTIM345CLKSOURCE_PLL2: /* PLL2 is used as clock source for LPTIM3/4/5 */
        ret = RCCEx_PLL2_Config(&(PeriphClkInit->PLL2), DIVIDER_P_UPDATE);
 80040be:	f8d7 3104 	ldr.w	r3, [r7, #260]	@ 0x104
 80040c2:	3308      	adds	r3, #8
 80040c4:	2100      	movs	r1, #0
 80040c6:	4618      	mov	r0, r3
 80040c8:	f000 fdd2 	bl	8004c70 <RCCEx_PLL2_Config>
 80040cc:	4603      	mov	r3, r0
 80040ce:	f887 3117 	strb.w	r3, [r7, #279]	@ 0x117

        /* LPTIM3/4/5 clock source configuration done later after clock selection check */
        break;
 80040d2:	e015      	b.n	8004100 <HAL_RCCEx_PeriphCLKConfig+0xd4c>

      case RCC_LPTIM345CLKSOURCE_PLL3:  /* PLL3 is used as clock source for LPTIM3/4/5 */
        ret = RCCEx_PLL3_Config(&(PeriphClkInit->PLL3), DIVIDER_R_UPDATE);
 80040d4:	f8d7 3104 	ldr.w	r3, [r7, #260]	@ 0x104
 80040d8:	3328      	adds	r3, #40	@ 0x28
 80040da:	2102      	movs	r1, #2
 80040dc:	4618      	mov	r0, r3
 80040de:	f000 fe79 	bl	8004dd4 <RCCEx_PLL3_Config>
 80040e2:	4603      	mov	r3, r0
 80040e4:	f887 3117 	strb.w	r3, [r7, #279]	@ 0x117

        /* LPTIM3/4/5 clock source configuration done later after clock selection check */
        break;
 80040e8:	e00a      	b.n	8004100 <HAL_RCCEx_PeriphCLKConfig+0xd4c>
        /* HSI, HSE, or CSI oscillator is used as source of LPTIM3/4/5 clock */
        /* LPTIM3/4/5 clock source configuration done later after clock selection check */
        break;

      default:
        ret = HAL_ERROR;
 80040ea:	2301      	movs	r3, #1
 80040ec:	f887 3117 	strb.w	r3, [r7, #279]	@ 0x117
        break;
 80040f0:	e006      	b.n	8004100 <HAL_RCCEx_PeriphCLKConfig+0xd4c>
        break;
 80040f2:	bf00      	nop
 80040f4:	e004      	b.n	8004100 <HAL_RCCEx_PeriphCLKConfig+0xd4c>
        break;
 80040f6:	bf00      	nop
 80040f8:	e002      	b.n	8004100 <HAL_RCCEx_PeriphCLKConfig+0xd4c>
        break;
 80040fa:	bf00      	nop
 80040fc:	e000      	b.n	8004100 <HAL_RCCEx_PeriphCLKConfig+0xd4c>
        break;
 80040fe:	bf00      	nop
    }

    if (ret == HAL_OK)
 8004100:	f897 3117 	ldrb.w	r3, [r7, #279]	@ 0x117
 8004104:	2b00      	cmp	r3, #0
 8004106:	d10b      	bne.n	8004120 <HAL_RCCEx_PeriphCLKConfig+0xd6c>
    {
      /* Set the source of LPTIM3/4/5 clock */
      __HAL_RCC_LPTIM345_CONFIG(PeriphClkInit->Lptim345ClockSelection);
 8004108:	4ba0      	ldr	r3, [pc, #640]	@ (800438c <HAL_RCCEx_PeriphCLKConfig+0xfd8>)
 800410a:	6d9b      	ldr	r3, [r3, #88]	@ 0x58
 800410c:	f423 4160 	bic.w	r1, r3, #57344	@ 0xe000
 8004110:	f8d7 3104 	ldr.w	r3, [r7, #260]	@ 0x104
 8004114:	f8d3 309c 	ldr.w	r3, [r3, #156]	@ 0x9c
 8004118:	4a9c      	ldr	r2, [pc, #624]	@ (800438c <HAL_RCCEx_PeriphCLKConfig+0xfd8>)
 800411a:	430b      	orrs	r3, r1
 800411c:	6593      	str	r3, [r2, #88]	@ 0x58
 800411e:	e003      	b.n	8004128 <HAL_RCCEx_PeriphCLKConfig+0xd74>
    }
    else
    {
      /* set overall return value */
      status = ret;
 8004120:	f897 3117 	ldrb.w	r3, [r7, #279]	@ 0x117
 8004124:	f887 3116 	strb.w	r3, [r7, #278]	@ 0x116
    }
  }

  /*------------------------------ I2C1/2/3/5* Configuration ------------------------*/
#if defined(I2C5)
  if (((PeriphClkInit->PeriphClockSelection) & RCC_PERIPHCLK_I2C1235) == RCC_PERIPHCLK_I2C1235)
 8004128:	f8d7 3104 	ldr.w	r3, [r7, #260]	@ 0x104
 800412c:	e9d3 2300 	ldrd	r2, r3, [r3]
 8004130:	f002 0308 	and.w	r3, r2, #8
 8004134:	f8c7 3088 	str.w	r3, [r7, #136]	@ 0x88
 8004138:	2300      	movs	r3, #0
 800413a:	f8c7 308c 	str.w	r3, [r7, #140]	@ 0x8c
 800413e:	e9d7 1222 	ldrd	r1, r2, [r7, #136]	@ 0x88
 8004142:	460b      	mov	r3, r1
 8004144:	4313      	orrs	r3, r2
 8004146:	d01e      	beq.n	8004186 <HAL_RCCEx_PeriphCLKConfig+0xdd2>
  {
    /* Check the parameters */
    assert_param(IS_RCC_I2C1235CLKSOURCE(PeriphClkInit->I2c1235ClockSelection));

    if ((PeriphClkInit->I2c1235ClockSelection) == RCC_I2C1235CLKSOURCE_PLL3)
 8004148:	f8d7 3104 	ldr.w	r3, [r7, #260]	@ 0x104
 800414c:	f8d3 3080 	ldr.w	r3, [r3, #128]	@ 0x80
 8004150:	f5b3 5f80 	cmp.w	r3, #4096	@ 0x1000
 8004154:	d10c      	bne.n	8004170 <HAL_RCCEx_PeriphCLKConfig+0xdbc>
    {
      if (RCCEx_PLL3_Config(&(PeriphClkInit->PLL3), DIVIDER_R_UPDATE) != HAL_OK)
 8004156:	f8d7 3104 	ldr.w	r3, [r7, #260]	@ 0x104
 800415a:	3328      	adds	r3, #40	@ 0x28
 800415c:	2102      	movs	r1, #2
 800415e:	4618      	mov	r0, r3
 8004160:	f000 fe38 	bl	8004dd4 <RCCEx_PLL3_Config>
 8004164:	4603      	mov	r3, r0
 8004166:	2b00      	cmp	r3, #0
 8004168:	d002      	beq.n	8004170 <HAL_RCCEx_PeriphCLKConfig+0xdbc>
      {
        status = HAL_ERROR;
 800416a:	2301      	movs	r3, #1
 800416c:	f887 3116 	strb.w	r3, [r7, #278]	@ 0x116
      }
    }

    __HAL_RCC_I2C1235_CONFIG(PeriphClkInit->I2c1235ClockSelection);
 8004170:	4b86      	ldr	r3, [pc, #536]	@ (800438c <HAL_RCCEx_PeriphCLKConfig+0xfd8>)
 8004172:	6d5b      	ldr	r3, [r3, #84]	@ 0x54
 8004174:	f423 5140 	bic.w	r1, r3, #12288	@ 0x3000
 8004178:	f8d7 3104 	ldr.w	r3, [r7, #260]	@ 0x104
 800417c:	f8d3 3080 	ldr.w	r3, [r3, #128]	@ 0x80
 8004180:	4a82      	ldr	r2, [pc, #520]	@ (800438c <HAL_RCCEx_PeriphCLKConfig+0xfd8>)
 8004182:	430b      	orrs	r3, r1
 8004184:	6553      	str	r3, [r2, #84]	@ 0x54

  }
#endif /* I2C5 */

  /*------------------------------ I2C4 Configuration ------------------------*/
  if (((PeriphClkInit->PeriphClockSelection) & RCC_PERIPHCLK_I2C4) == RCC_PERIPHCLK_I2C4)
 8004186:	f8d7 3104 	ldr.w	r3, [r7, #260]	@ 0x104
 800418a:	e9d3 2300 	ldrd	r2, r3, [r3]
 800418e:	f002 0310 	and.w	r3, r2, #16
 8004192:	f8c7 3080 	str.w	r3, [r7, #128]	@ 0x80
 8004196:	2300      	movs	r3, #0
 8004198:	f8c7 3084 	str.w	r3, [r7, #132]	@ 0x84
 800419c:	e9d7 1220 	ldrd	r1, r2, [r7, #128]	@ 0x80
 80041a0:	460b      	mov	r3, r1
 80041a2:	4313      	orrs	r3, r2
 80041a4:	d01e      	beq.n	80041e4 <HAL_RCCEx_PeriphCLKConfig+0xe30>
  {
    /* Check the parameters */
    assert_param(IS_RCC_I2C4CLKSOURCE(PeriphClkInit->I2c4ClockSelection));

    if ((PeriphClkInit->I2c4ClockSelection) == RCC_I2C4CLKSOURCE_PLL3)
 80041a6:	f8d7 3104 	ldr.w	r3, [r7, #260]	@ 0x104
 80041aa:	f8d3 3094 	ldr.w	r3, [r3, #148]	@ 0x94
 80041ae:	f5b3 7f80 	cmp.w	r3, #256	@ 0x100
 80041b2:	d10c      	bne.n	80041ce <HAL_RCCEx_PeriphCLKConfig+0xe1a>
    {
      if (RCCEx_PLL3_Config(&(PeriphClkInit->PLL3), DIVIDER_R_UPDATE) != HAL_OK)
 80041b4:	f8d7 3104 	ldr.w	r3, [r7, #260]	@ 0x104
 80041b8:	3328      	adds	r3, #40	@ 0x28
 80041ba:	2102      	movs	r1, #2
 80041bc:	4618      	mov	r0, r3
 80041be:	f000 fe09 	bl	8004dd4 <RCCEx_PLL3_Config>
 80041c2:	4603      	mov	r3, r0
 80041c4:	2b00      	cmp	r3, #0
 80041c6:	d002      	beq.n	80041ce <HAL_RCCEx_PeriphCLKConfig+0xe1a>
      {
        status = HAL_ERROR;
 80041c8:	2301      	movs	r3, #1
 80041ca:	f887 3116 	strb.w	r3, [r7, #278]	@ 0x116
      }
    }

    __HAL_RCC_I2C4_CONFIG(PeriphClkInit->I2c4ClockSelection);
 80041ce:	4b6f      	ldr	r3, [pc, #444]	@ (800438c <HAL_RCCEx_PeriphCLKConfig+0xfd8>)
 80041d0:	6d9b      	ldr	r3, [r3, #88]	@ 0x58
 80041d2:	f423 7140 	bic.w	r1, r3, #768	@ 0x300
 80041d6:	f8d7 3104 	ldr.w	r3, [r7, #260]	@ 0x104
 80041da:	f8d3 3094 	ldr.w	r3, [r3, #148]	@ 0x94
 80041de:	4a6b      	ldr	r2, [pc, #428]	@ (800438c <HAL_RCCEx_PeriphCLKConfig+0xfd8>)
 80041e0:	430b      	orrs	r3, r1
 80041e2:	6593      	str	r3, [r2, #88]	@ 0x58

  }

  /*---------------------------- ADC configuration -------------------------------*/
  if (((PeriphClkInit->PeriphClockSelection) & RCC_PERIPHCLK_ADC) == RCC_PERIPHCLK_ADC)
 80041e4:	f8d7 3104 	ldr.w	r3, [r7, #260]	@ 0x104
 80041e8:	e9d3 2300 	ldrd	r2, r3, [r3]
 80041ec:	f402 2300 	and.w	r3, r2, #524288	@ 0x80000
 80041f0:	67bb      	str	r3, [r7, #120]	@ 0x78
 80041f2:	2300      	movs	r3, #0
 80041f4:	67fb      	str	r3, [r7, #124]	@ 0x7c
 80041f6:	e9d7 121e 	ldrd	r1, r2, [r7, #120]	@ 0x78
 80041fa:	460b      	mov	r3, r1
 80041fc:	4313      	orrs	r3, r2
 80041fe:	d03e      	beq.n	800427e <HAL_RCCEx_PeriphCLKConfig+0xeca>
  {
    switch (PeriphClkInit->AdcClockSelection)
 8004200:	f8d7 3104 	ldr.w	r3, [r7, #260]	@ 0x104
 8004204:	f8d3 30a0 	ldr.w	r3, [r3, #160]	@ 0xa0
 8004208:	f5b3 3f00 	cmp.w	r3, #131072	@ 0x20000
 800420c:	d022      	beq.n	8004254 <HAL_RCCEx_PeriphCLKConfig+0xea0>
 800420e:	f5b3 3f00 	cmp.w	r3, #131072	@ 0x20000
 8004212:	d81b      	bhi.n	800424c <HAL_RCCEx_PeriphCLKConfig+0xe98>
 8004214:	2b00      	cmp	r3, #0
 8004216:	d003      	beq.n	8004220 <HAL_RCCEx_PeriphCLKConfig+0xe6c>
 8004218:	f5b3 3f80 	cmp.w	r3, #65536	@ 0x10000
 800421c:	d00b      	beq.n	8004236 <HAL_RCCEx_PeriphCLKConfig+0xe82>
 800421e:	e015      	b.n	800424c <HAL_RCCEx_PeriphCLKConfig+0xe98>
    {

      case RCC_ADCCLKSOURCE_PLL2: /* PLL2 is used as clock source for ADC*/

        ret = RCCEx_PLL2_Config(&(PeriphClkInit->PLL2), DIVIDER_P_UPDATE);
 8004220:	f8d7 3104 	ldr.w	r3, [r7, #260]	@ 0x104
 8004224:	3308      	adds	r3, #8
 8004226:	2100      	movs	r1, #0
 8004228:	4618      	mov	r0, r3
 800422a:	f000 fd21 	bl	8004c70 <RCCEx_PLL2_Config>
 800422e:	4603      	mov	r3, r0
 8004230:	f887 3117 	strb.w	r3, [r7, #279]	@ 0x117

        /* ADC clock source configuration done later after clock selection check */
        break;
 8004234:	e00f      	b.n	8004256 <HAL_RCCEx_PeriphCLKConfig+0xea2>

      case RCC_ADCCLKSOURCE_PLL3:  /* PLL3 is used as clock source for ADC*/
        ret = RCCEx_PLL3_Config(&(PeriphClkInit->PLL3), DIVIDER_R_UPDATE);
 8004236:	f8d7 3104 	ldr.w	r3, [r7, #260]	@ 0x104
 800423a:	3328      	adds	r3, #40	@ 0x28
 800423c:	2102      	movs	r1, #2
 800423e:	4618      	mov	r0, r3
 8004240:	f000 fdc8 	bl	8004dd4 <RCCEx_PLL3_Config>
 8004244:	4603      	mov	r3, r0
 8004246:	f887 3117 	strb.w	r3, [r7, #279]	@ 0x117

        /* ADC clock source configuration done later after clock selection check */
        break;
 800424a:	e004      	b.n	8004256 <HAL_RCCEx_PeriphCLKConfig+0xea2>
        /* HSI, HSE, or CSI oscillator is used as source of ADC clock */
        /* ADC clock source configuration done later after clock selection check */
        break;

      default:
        ret = HAL_ERROR;
 800424c:	2301      	movs	r3, #1
 800424e:	f887 3117 	strb.w	r3, [r7, #279]	@ 0x117
        break;
 8004252:	e000      	b.n	8004256 <HAL_RCCEx_PeriphCLKConfig+0xea2>
        break;
 8004254:	bf00      	nop
    }

    if (ret == HAL_OK)
 8004256:	f897 3117 	ldrb.w	r3, [r7, #279]	@ 0x117
 800425a:	2b00      	cmp	r3, #0
 800425c:	d10b      	bne.n	8004276 <HAL_RCCEx_PeriphCLKConfig+0xec2>
    {
      /* Set the source of ADC clock*/
      __HAL_RCC_ADC_CONFIG(PeriphClkInit->AdcClockSelection);
 800425e:	4b4b      	ldr	r3, [pc, #300]	@ (800438c <HAL_RCCEx_PeriphCLKConfig+0xfd8>)
 8004260:	6d9b      	ldr	r3, [r3, #88]	@ 0x58
 8004262:	f423 3140 	bic.w	r1, r3, #196608	@ 0x30000
 8004266:	f8d7 3104 	ldr.w	r3, [r7, #260]	@ 0x104
 800426a:	f8d3 30a0 	ldr.w	r3, [r3, #160]	@ 0xa0
 800426e:	4a47      	ldr	r2, [pc, #284]	@ (800438c <HAL_RCCEx_PeriphCLKConfig+0xfd8>)
 8004270:	430b      	orrs	r3, r1
 8004272:	6593      	str	r3, [r2, #88]	@ 0x58
 8004274:	e003      	b.n	800427e <HAL_RCCEx_PeriphCLKConfig+0xeca>
    }
    else
    {
      /* set overall return value */
      status = ret;
 8004276:	f897 3117 	ldrb.w	r3, [r7, #279]	@ 0x117
 800427a:	f887 3116 	strb.w	r3, [r7, #278]	@ 0x116
    }
  }

  /*------------------------------ USB Configuration -------------------------*/
  if (((PeriphClkInit->PeriphClockSelection) & RCC_PERIPHCLK_USB) == RCC_PERIPHCLK_USB)
 800427e:	f8d7 3104 	ldr.w	r3, [r7, #260]	@ 0x104
 8004282:	e9d3 2300 	ldrd	r2, r3, [r3]
 8004286:	f402 2380 	and.w	r3, r2, #262144	@ 0x40000
 800428a:	673b      	str	r3, [r7, #112]	@ 0x70
 800428c:	2300      	movs	r3, #0
 800428e:	677b      	str	r3, [r7, #116]	@ 0x74
 8004290:	e9d7 121c 	ldrd	r1, r2, [r7, #112]	@ 0x70
 8004294:	460b      	mov	r3, r1
 8004296:	4313      	orrs	r3, r2
 8004298:	d03b      	beq.n	8004312 <HAL_RCCEx_PeriphCLKConfig+0xf5e>
  {

    switch (PeriphClkInit->UsbClockSelection)
 800429a:	f8d7 3104 	ldr.w	r3, [r7, #260]	@ 0x104
 800429e:	f8d3 3084 	ldr.w	r3, [r3, #132]	@ 0x84
 80042a2:	f5b3 1f40 	cmp.w	r3, #3145728	@ 0x300000
 80042a6:	d01f      	beq.n	80042e8 <HAL_RCCEx_PeriphCLKConfig+0xf34>
 80042a8:	f5b3 1f40 	cmp.w	r3, #3145728	@ 0x300000
 80042ac:	d818      	bhi.n	80042e0 <HAL_RCCEx_PeriphCLKConfig+0xf2c>
 80042ae:	f5b3 1f80 	cmp.w	r3, #1048576	@ 0x100000
 80042b2:	d003      	beq.n	80042bc <HAL_RCCEx_PeriphCLKConfig+0xf08>
 80042b4:	f5b3 1f00 	cmp.w	r3, #2097152	@ 0x200000
 80042b8:	d007      	beq.n	80042ca <HAL_RCCEx_PeriphCLKConfig+0xf16>
 80042ba:	e011      	b.n	80042e0 <HAL_RCCEx_PeriphCLKConfig+0xf2c>
    {
      case RCC_USBCLKSOURCE_PLL:      /* PLL is used as clock source for USB*/
        /* Enable USB Clock output generated form System USB . */
        __HAL_RCC_PLLCLKOUT_ENABLE(RCC_PLL1_DIVQ);
 80042bc:	4b33      	ldr	r3, [pc, #204]	@ (800438c <HAL_RCCEx_PeriphCLKConfig+0xfd8>)
 80042be:	6adb      	ldr	r3, [r3, #44]	@ 0x2c
 80042c0:	4a32      	ldr	r2, [pc, #200]	@ (800438c <HAL_RCCEx_PeriphCLKConfig+0xfd8>)
 80042c2:	f443 3300 	orr.w	r3, r3, #131072	@ 0x20000
 80042c6:	62d3      	str	r3, [r2, #44]	@ 0x2c

        /* USB clock source configuration done later after clock selection check */
        break;
 80042c8:	e00f      	b.n	80042ea <HAL_RCCEx_PeriphCLKConfig+0xf36>

      case RCC_USBCLKSOURCE_PLL3: /* PLL3 is used as clock source for USB*/

        ret = RCCEx_PLL3_Config(&(PeriphClkInit->PLL3), DIVIDER_Q_UPDATE);
 80042ca:	f8d7 3104 	ldr.w	r3, [r7, #260]	@ 0x104
 80042ce:	3328      	adds	r3, #40	@ 0x28
 80042d0:	2101      	movs	r1, #1
 80042d2:	4618      	mov	r0, r3
 80042d4:	f000 fd7e 	bl	8004dd4 <RCCEx_PLL3_Config>
 80042d8:	4603      	mov	r3, r0
 80042da:	f887 3117 	strb.w	r3, [r7, #279]	@ 0x117

        /* USB clock source configuration done later after clock selection check */
        break;
 80042de:	e004      	b.n	80042ea <HAL_RCCEx_PeriphCLKConfig+0xf36>
        /* HSI48 oscillator is used as source of USB clock */
        /* USB clock source configuration done later after clock selection check */
        break;

      default:
        ret = HAL_ERROR;
 80042e0:	2301      	movs	r3, #1
 80042e2:	f887 3117 	strb.w	r3, [r7, #279]	@ 0x117
        break;
 80042e6:	e000      	b.n	80042ea <HAL_RCCEx_PeriphCLKConfig+0xf36>
        break;
 80042e8:	bf00      	nop
    }

    if (ret == HAL_OK)
 80042ea:	f897 3117 	ldrb.w	r3, [r7, #279]	@ 0x117
 80042ee:	2b00      	cmp	r3, #0
 80042f0:	d10b      	bne.n	800430a <HAL_RCCEx_PeriphCLKConfig+0xf56>
    {
      /* Set the source of USB clock*/
      __HAL_RCC_USB_CONFIG(PeriphClkInit->UsbClockSelection);
 80042f2:	4b26      	ldr	r3, [pc, #152]	@ (800438c <HAL_RCCEx_PeriphCLKConfig+0xfd8>)
 80042f4:	6d5b      	ldr	r3, [r3, #84]	@ 0x54
 80042f6:	f423 1140 	bic.w	r1, r3, #3145728	@ 0x300000
 80042fa:	f8d7 3104 	ldr.w	r3, [r7, #260]	@ 0x104
 80042fe:	f8d3 3084 	ldr.w	r3, [r3, #132]	@ 0x84
 8004302:	4a22      	ldr	r2, [pc, #136]	@ (800438c <HAL_RCCEx_PeriphCLKConfig+0xfd8>)
 8004304:	430b      	orrs	r3, r1
 8004306:	6553      	str	r3, [r2, #84]	@ 0x54
 8004308:	e003      	b.n	8004312 <HAL_RCCEx_PeriphCLKConfig+0xf5e>
    }
    else
    {
      /* set overall return value */
      status = ret;
 800430a:	f897 3117 	ldrb.w	r3, [r7, #279]	@ 0x117
 800430e:	f887 3116 	strb.w	r3, [r7, #278]	@ 0x116
    }

  }

  /*------------------------------------- SDMMC Configuration ------------------------------------*/
  if (((PeriphClkInit->PeriphClockSelection) & RCC_PERIPHCLK_SDMMC) == RCC_PERIPHCLK_SDMMC)
 8004312:	f8d7 3104 	ldr.w	r3, [r7, #260]	@ 0x104
 8004316:	e9d3 2300 	ldrd	r2, r3, [r3]
 800431a:	f402 3380 	and.w	r3, r2, #65536	@ 0x10000
 800431e:	66bb      	str	r3, [r7, #104]	@ 0x68
 8004320:	2300      	movs	r3, #0
 8004322:	66fb      	str	r3, [r7, #108]	@ 0x6c
 8004324:	e9d7 121a 	ldrd	r1, r2, [r7, #104]	@ 0x68
 8004328:	460b      	mov	r3, r1
 800432a:	4313      	orrs	r3, r2
 800432c:	d034      	beq.n	8004398 <HAL_RCCEx_PeriphCLKConfig+0xfe4>
  {
    /* Check the parameters */
    assert_param(IS_RCC_SDMMC(PeriphClkInit->SdmmcClockSelection));

    switch (PeriphClkInit->SdmmcClockSelection)
 800432e:	f8d7 3104 	ldr.w	r3, [r7, #260]	@ 0x104
 8004332:	6d1b      	ldr	r3, [r3, #80]	@ 0x50
 8004334:	2b00      	cmp	r3, #0
 8004336:	d003      	beq.n	8004340 <HAL_RCCEx_PeriphCLKConfig+0xf8c>
 8004338:	f5b3 3f80 	cmp.w	r3, #65536	@ 0x10000
 800433c:	d007      	beq.n	800434e <HAL_RCCEx_PeriphCLKConfig+0xf9a>
 800433e:	e011      	b.n	8004364 <HAL_RCCEx_PeriphCLKConfig+0xfb0>
    {
      case RCC_SDMMCCLKSOURCE_PLL:      /* PLL is used as clock source for SDMMC*/
        /* Enable SDMMC Clock output generated form System PLL . */
        __HAL_RCC_PLLCLKOUT_ENABLE(RCC_PLL1_DIVQ);
 8004340:	4b12      	ldr	r3, [pc, #72]	@ (800438c <HAL_RCCEx_PeriphCLKConfig+0xfd8>)
 8004342:	6adb      	ldr	r3, [r3, #44]	@ 0x2c
 8004344:	4a11      	ldr	r2, [pc, #68]	@ (800438c <HAL_RCCEx_PeriphCLKConfig+0xfd8>)
 8004346:	f443 3300 	orr.w	r3, r3, #131072	@ 0x20000
 800434a:	62d3      	str	r3, [r2, #44]	@ 0x2c

        /* SDMMC clock source configuration done later after clock selection check */
        break;
 800434c:	e00e      	b.n	800436c <HAL_RCCEx_PeriphCLKConfig+0xfb8>

      case RCC_SDMMCCLKSOURCE_PLL2: /* PLL2 is used as clock source for SDMMC*/

        ret = RCCEx_PLL2_Config(&(PeriphClkInit->PLL2), DIVIDER_R_UPDATE);
 800434e:	f8d7 3104 	ldr.w	r3, [r7, #260]	@ 0x104
 8004352:	3308      	adds	r3, #8
 8004354:	2102      	movs	r1, #2
 8004356:	4618      	mov	r0, r3
 8004358:	f000 fc8a 	bl	8004c70 <RCCEx_PLL2_Config>
 800435c:	4603      	mov	r3, r0
 800435e:	f887 3117 	strb.w	r3, [r7, #279]	@ 0x117

        /* SDMMC clock source configuration done later after clock selection check */
        break;
 8004362:	e003      	b.n	800436c <HAL_RCCEx_PeriphCLKConfig+0xfb8>

      default:
        ret = HAL_ERROR;
 8004364:	2301      	movs	r3, #1
 8004366:	f887 3117 	strb.w	r3, [r7, #279]	@ 0x117
        break;
 800436a:	bf00      	nop
    }

    if (ret == HAL_OK)
 800436c:	f897 3117 	ldrb.w	r3, [r7, #279]	@ 0x117
 8004370:	2b00      	cmp	r3, #0
 8004372:	d10d      	bne.n	8004390 <HAL_RCCEx_PeriphCLKConfig+0xfdc>
    {
      /* Set the source of SDMMC clock*/
      __HAL_RCC_SDMMC_CONFIG(PeriphClkInit->SdmmcClockSelection);
 8004374:	4b05      	ldr	r3, [pc, #20]	@ (800438c <HAL_RCCEx_PeriphCLKConfig+0xfd8>)
 8004376:	6cdb      	ldr	r3, [r3, #76]	@ 0x4c
 8004378:	f423 3180 	bic.w	r1, r3, #65536	@ 0x10000
 800437c:	f8d7 3104 	ldr.w	r3, [r7, #260]	@ 0x104
 8004380:	6d1b      	ldr	r3, [r3, #80]	@ 0x50
 8004382:	4a02      	ldr	r2, [pc, #8]	@ (800438c <HAL_RCCEx_PeriphCLKConfig+0xfd8>)
 8004384:	430b      	orrs	r3, r1
 8004386:	64d3      	str	r3, [r2, #76]	@ 0x4c
 8004388:	e006      	b.n	8004398 <HAL_RCCEx_PeriphCLKConfig+0xfe4>
 800438a:	bf00      	nop
 800438c:	58024400 	.word	0x58024400
    }
    else
    {
      /* set overall return value */
      status = ret;
 8004390:	f897 3117 	ldrb.w	r3, [r7, #279]	@ 0x117
 8004394:	f887 3116 	strb.w	r3, [r7, #278]	@ 0x116
    }
  }

#if defined(LTDC)
  /*-------------------------------------- LTDC Configuration -----------------------------------*/
  if (((PeriphClkInit->PeriphClockSelection) & RCC_PERIPHCLK_LTDC) == RCC_PERIPHCLK_LTDC)
 8004398:	f8d7 3104 	ldr.w	r3, [r7, #260]	@ 0x104
 800439c:	e9d3 2300 	ldrd	r2, r3, [r3]
 80043a0:	f002 5300 	and.w	r3, r2, #536870912	@ 0x20000000
 80043a4:	663b      	str	r3, [r7, #96]	@ 0x60
 80043a6:	2300      	movs	r3, #0
 80043a8:	667b      	str	r3, [r7, #100]	@ 0x64
 80043aa:	e9d7 1218 	ldrd	r1, r2, [r7, #96]	@ 0x60
 80043ae:	460b      	mov	r3, r1
 80043b0:	4313      	orrs	r3, r2
 80043b2:	d00c      	beq.n	80043ce <HAL_RCCEx_PeriphCLKConfig+0x101a>
  {
    if (RCCEx_PLL3_Config(&(PeriphClkInit->PLL3), DIVIDER_R_UPDATE) != HAL_OK)
 80043b4:	f8d7 3104 	ldr.w	r3, [r7, #260]	@ 0x104
 80043b8:	3328      	adds	r3, #40	@ 0x28
 80043ba:	2102      	movs	r1, #2
 80043bc:	4618      	mov	r0, r3
 80043be:	f000 fd09 	bl	8004dd4 <RCCEx_PLL3_Config>
 80043c2:	4603      	mov	r3, r0
 80043c4:	2b00      	cmp	r3, #0
 80043c6:	d002      	beq.n	80043ce <HAL_RCCEx_PeriphCLKConfig+0x101a>
    {
      status = HAL_ERROR;
 80043c8:	2301      	movs	r3, #1
 80043ca:	f887 3116 	strb.w	r3, [r7, #278]	@ 0x116
    }
  }
#endif /* LTDC */

  /*------------------------------ RNG Configuration -------------------------*/
  if (((PeriphClkInit->PeriphClockSelection) & RCC_PERIPHCLK_RNG) == RCC_PERIPHCLK_RNG)
 80043ce:	f8d7 3104 	ldr.w	r3, [r7, #260]	@ 0x104
 80043d2:	e9d3 2300 	ldrd	r2, r3, [r3]
 80043d6:	f402 3300 	and.w	r3, r2, #131072	@ 0x20000
 80043da:	65bb      	str	r3, [r7, #88]	@ 0x58
 80043dc:	2300      	movs	r3, #0
 80043de:	65fb      	str	r3, [r7, #92]	@ 0x5c
 80043e0:	e9d7 1216 	ldrd	r1, r2, [r7, #88]	@ 0x58
 80043e4:	460b      	mov	r3, r1
 80043e6:	4313      	orrs	r3, r2
 80043e8:	d036      	beq.n	8004458 <HAL_RCCEx_PeriphCLKConfig+0x10a4>
  {

    switch (PeriphClkInit->RngClockSelection)
 80043ea:	f8d7 3104 	ldr.w	r3, [r7, #260]	@ 0x104
 80043ee:	6fdb      	ldr	r3, [r3, #124]	@ 0x7c
 80043f0:	f5b3 7f40 	cmp.w	r3, #768	@ 0x300
 80043f4:	d018      	beq.n	8004428 <HAL_RCCEx_PeriphCLKConfig+0x1074>
 80043f6:	f5b3 7f40 	cmp.w	r3, #768	@ 0x300
 80043fa:	d811      	bhi.n	8004420 <HAL_RCCEx_PeriphCLKConfig+0x106c>
 80043fc:	f5b3 7f00 	cmp.w	r3, #512	@ 0x200
 8004400:	d014      	beq.n	800442c <HAL_RCCEx_PeriphCLKConfig+0x1078>
 8004402:	f5b3 7f00 	cmp.w	r3, #512	@ 0x200
 8004406:	d80b      	bhi.n	8004420 <HAL_RCCEx_PeriphCLKConfig+0x106c>
 8004408:	2b00      	cmp	r3, #0
 800440a:	d011      	beq.n	8004430 <HAL_RCCEx_PeriphCLKConfig+0x107c>
 800440c:	f5b3 7f80 	cmp.w	r3, #256	@ 0x100
 8004410:	d106      	bne.n	8004420 <HAL_RCCEx_PeriphCLKConfig+0x106c>
    {
      case RCC_RNGCLKSOURCE_PLL:     /* PLL is used as clock source for RNG*/
        /* Enable RNG Clock output generated form System RNG . */
        __HAL_RCC_PLLCLKOUT_ENABLE(RCC_PLL1_DIVQ);
 8004412:	4bb7      	ldr	r3, [pc, #732]	@ (80046f0 <HAL_RCCEx_PeriphCLKConfig+0x133c>)
 8004414:	6adb      	ldr	r3, [r3, #44]	@ 0x2c
 8004416:	4ab6      	ldr	r2, [pc, #728]	@ (80046f0 <HAL_RCCEx_PeriphCLKConfig+0x133c>)
 8004418:	f443 3300 	orr.w	r3, r3, #131072	@ 0x20000
 800441c:	62d3      	str	r3, [r2, #44]	@ 0x2c

        /* RNG clock source configuration done later after clock selection check */
        break;
 800441e:	e008      	b.n	8004432 <HAL_RCCEx_PeriphCLKConfig+0x107e>
        /* HSI48 oscillator is used as source of RNG clock */
        /* RNG clock source configuration done later after clock selection check */
        break;

      default:
        ret = HAL_ERROR;
 8004420:	2301      	movs	r3, #1
 8004422:	f887 3117 	strb.w	r3, [r7, #279]	@ 0x117
        break;
 8004426:	e004      	b.n	8004432 <HAL_RCCEx_PeriphCLKConfig+0x107e>
        break;
 8004428:	bf00      	nop
 800442a:	e002      	b.n	8004432 <HAL_RCCEx_PeriphCLKConfig+0x107e>
        break;
 800442c:	bf00      	nop
 800442e:	e000      	b.n	8004432 <HAL_RCCEx_PeriphCLKConfig+0x107e>
        break;
 8004430:	bf00      	nop
    }

    if (ret == HAL_OK)
 8004432:	f897 3117 	ldrb.w	r3, [r7, #279]	@ 0x117
 8004436:	2b00      	cmp	r3, #0
 8004438:	d10a      	bne.n	8004450 <HAL_RCCEx_PeriphCLKConfig+0x109c>
    {
      /* Set the source of RNG clock*/
      __HAL_RCC_RNG_CONFIG(PeriphClkInit->RngClockSelection);
 800443a:	4bad      	ldr	r3, [pc, #692]	@ (80046f0 <HAL_RCCEx_PeriphCLKConfig+0x133c>)
 800443c:	6d5b      	ldr	r3, [r3, #84]	@ 0x54
 800443e:	f423 7140 	bic.w	r1, r3, #768	@ 0x300
 8004442:	f8d7 3104 	ldr.w	r3, [r7, #260]	@ 0x104
 8004446:	6fdb      	ldr	r3, [r3, #124]	@ 0x7c
 8004448:	4aa9      	ldr	r2, [pc, #676]	@ (80046f0 <HAL_RCCEx_PeriphCLKConfig+0x133c>)
 800444a:	430b      	orrs	r3, r1
 800444c:	6553      	str	r3, [r2, #84]	@ 0x54
 800444e:	e003      	b.n	8004458 <HAL_RCCEx_PeriphCLKConfig+0x10a4>
    }
    else
    {
      /* set overall return value */
      status = ret;
 8004450:	f897 3117 	ldrb.w	r3, [r7, #279]	@ 0x117
 8004454:	f887 3116 	strb.w	r3, [r7, #278]	@ 0x116
    }

  }

  /*------------------------------ SWPMI1 Configuration ------------------------*/
  if (((PeriphClkInit->PeriphClockSelection) & RCC_PERIPHCLK_SWPMI1) == RCC_PERIPHCLK_SWPMI1)
 8004458:	f8d7 3104 	ldr.w	r3, [r7, #260]	@ 0x104
 800445c:	e9d3 2300 	ldrd	r2, r3, [r3]
 8004460:	f402 1380 	and.w	r3, r2, #1048576	@ 0x100000
 8004464:	653b      	str	r3, [r7, #80]	@ 0x50
 8004466:	2300      	movs	r3, #0
 8004468:	657b      	str	r3, [r7, #84]	@ 0x54
 800446a:	e9d7 1214 	ldrd	r1, r2, [r7, #80]	@ 0x50
 800446e:	460b      	mov	r3, r1
 8004470:	4313      	orrs	r3, r2
 8004472:	d009      	beq.n	8004488 <HAL_RCCEx_PeriphCLKConfig+0x10d4>
  {
    /* Check the parameters */
    assert_param(IS_RCC_SWPMI1CLKSOURCE(PeriphClkInit->Swpmi1ClockSelection));

    /* Configure the SWPMI1 interface clock source */
    __HAL_RCC_SWPMI1_CONFIG(PeriphClkInit->Swpmi1ClockSelection);
 8004474:	4b9e      	ldr	r3, [pc, #632]	@ (80046f0 <HAL_RCCEx_PeriphCLKConfig+0x133c>)
 8004476:	6d1b      	ldr	r3, [r3, #80]	@ 0x50
 8004478:	f023 4100 	bic.w	r1, r3, #2147483648	@ 0x80000000
 800447c:	f8d7 3104 	ldr.w	r3, [r7, #260]	@ 0x104
 8004480:	6f1b      	ldr	r3, [r3, #112]	@ 0x70
 8004482:	4a9b      	ldr	r2, [pc, #620]	@ (80046f0 <HAL_RCCEx_PeriphCLKConfig+0x133c>)
 8004484:	430b      	orrs	r3, r1
 8004486:	6513      	str	r3, [r2, #80]	@ 0x50
    /* Configure the HRTIM1 clock source */
    __HAL_RCC_HRTIM1_CONFIG(PeriphClkInit->Hrtim1ClockSelection);
  }
#endif  /*HRTIM1*/
  /*------------------------------ DFSDM1 Configuration ------------------------*/
  if (((PeriphClkInit->PeriphClockSelection) & RCC_PERIPHCLK_DFSDM1) == RCC_PERIPHCLK_DFSDM1)
 8004488:	f8d7 3104 	ldr.w	r3, [r7, #260]	@ 0x104
 800448c:	e9d3 2300 	ldrd	r2, r3, [r3]
 8004490:	f402 1300 	and.w	r3, r2, #2097152	@ 0x200000
 8004494:	64bb      	str	r3, [r7, #72]	@ 0x48
 8004496:	2300      	movs	r3, #0
 8004498:	64fb      	str	r3, [r7, #76]	@ 0x4c
 800449a:	e9d7 1212 	ldrd	r1, r2, [r7, #72]	@ 0x48
 800449e:	460b      	mov	r3, r1
 80044a0:	4313      	orrs	r3, r2
 80044a2:	d009      	beq.n	80044b8 <HAL_RCCEx_PeriphCLKConfig+0x1104>
  {
    /* Check the parameters */
    assert_param(IS_RCC_DFSDM1CLKSOURCE(PeriphClkInit->Dfsdm1ClockSelection));

    /* Configure the DFSDM1 interface clock source */
    __HAL_RCC_DFSDM1_CONFIG(PeriphClkInit->Dfsdm1ClockSelection);
 80044a4:	4b92      	ldr	r3, [pc, #584]	@ (80046f0 <HAL_RCCEx_PeriphCLKConfig+0x133c>)
 80044a6:	6d1b      	ldr	r3, [r3, #80]	@ 0x50
 80044a8:	f023 7180 	bic.w	r1, r3, #16777216	@ 0x1000000
 80044ac:	f8d7 3104 	ldr.w	r3, [r7, #260]	@ 0x104
 80044b0:	6e9b      	ldr	r3, [r3, #104]	@ 0x68
 80044b2:	4a8f      	ldr	r2, [pc, #572]	@ (80046f0 <HAL_RCCEx_PeriphCLKConfig+0x133c>)
 80044b4:	430b      	orrs	r3, r1
 80044b6:	6513      	str	r3, [r2, #80]	@ 0x50
    __HAL_RCC_DFSDM2_CONFIG(PeriphClkInit->Dfsdm2ClockSelection);
  }
#endif  /* DFSDM2 */

  /*------------------------------------ TIM configuration --------------------------------------*/
  if (((PeriphClkInit->PeriphClockSelection) & RCC_PERIPHCLK_TIM) == RCC_PERIPHCLK_TIM)
 80044b8:	f8d7 3104 	ldr.w	r3, [r7, #260]	@ 0x104
 80044bc:	e9d3 2300 	ldrd	r2, r3, [r3]
 80044c0:	f002 4380 	and.w	r3, r2, #1073741824	@ 0x40000000
 80044c4:	643b      	str	r3, [r7, #64]	@ 0x40
 80044c6:	2300      	movs	r3, #0
 80044c8:	647b      	str	r3, [r7, #68]	@ 0x44
 80044ca:	e9d7 1210 	ldrd	r1, r2, [r7, #64]	@ 0x40
 80044ce:	460b      	mov	r3, r1
 80044d0:	4313      	orrs	r3, r2
 80044d2:	d00e      	beq.n	80044f2 <HAL_RCCEx_PeriphCLKConfig+0x113e>
  {
    /* Check the parameters */
    assert_param(IS_RCC_TIMPRES(PeriphClkInit->TIMPresSelection));

    /* Configure Timer Prescaler */
    __HAL_RCC_TIMCLKPRESCALER(PeriphClkInit->TIMPresSelection);
 80044d4:	4b86      	ldr	r3, [pc, #536]	@ (80046f0 <HAL_RCCEx_PeriphCLKConfig+0x133c>)
 80044d6:	691b      	ldr	r3, [r3, #16]
 80044d8:	4a85      	ldr	r2, [pc, #532]	@ (80046f0 <HAL_RCCEx_PeriphCLKConfig+0x133c>)
 80044da:	f423 4300 	bic.w	r3, r3, #32768	@ 0x8000
 80044de:	6113      	str	r3, [r2, #16]
 80044e0:	4b83      	ldr	r3, [pc, #524]	@ (80046f0 <HAL_RCCEx_PeriphCLKConfig+0x133c>)
 80044e2:	6919      	ldr	r1, [r3, #16]
 80044e4:	f8d7 3104 	ldr.w	r3, [r7, #260]	@ 0x104
 80044e8:	f8d3 30b4 	ldr.w	r3, [r3, #180]	@ 0xb4
 80044ec:	4a80      	ldr	r2, [pc, #512]	@ (80046f0 <HAL_RCCEx_PeriphCLKConfig+0x133c>)
 80044ee:	430b      	orrs	r3, r1
 80044f0:	6113      	str	r3, [r2, #16]
  }

  /*------------------------------------ CKPER configuration --------------------------------------*/
  if (((PeriphClkInit->PeriphClockSelection) & RCC_PERIPHCLK_CKPER) == RCC_PERIPHCLK_CKPER)
 80044f2:	f8d7 3104 	ldr.w	r3, [r7, #260]	@ 0x104
 80044f6:	e9d3 2300 	ldrd	r2, r3, [r3]
 80044fa:	f002 4300 	and.w	r3, r2, #2147483648	@ 0x80000000
 80044fe:	63bb      	str	r3, [r7, #56]	@ 0x38
 8004500:	2300      	movs	r3, #0
 8004502:	63fb      	str	r3, [r7, #60]	@ 0x3c
 8004504:	e9d7 120e 	ldrd	r1, r2, [r7, #56]	@ 0x38
 8004508:	460b      	mov	r3, r1
 800450a:	4313      	orrs	r3, r2
 800450c:	d009      	beq.n	8004522 <HAL_RCCEx_PeriphCLKConfig+0x116e>
  {
    /* Check the parameters */
    assert_param(IS_RCC_CLKPSOURCE(PeriphClkInit->CkperClockSelection));

    /* Configure the CKPER clock source */
    __HAL_RCC_CLKP_CONFIG(PeriphClkInit->CkperClockSelection);
 800450e:	4b78      	ldr	r3, [pc, #480]	@ (80046f0 <HAL_RCCEx_PeriphCLKConfig+0x133c>)
 8004510:	6cdb      	ldr	r3, [r3, #76]	@ 0x4c
 8004512:	f023 5140 	bic.w	r1, r3, #805306368	@ 0x30000000
 8004516:	f8d7 3104 	ldr.w	r3, [r7, #260]	@ 0x104
 800451a:	6d5b      	ldr	r3, [r3, #84]	@ 0x54
 800451c:	4a74      	ldr	r2, [pc, #464]	@ (80046f0 <HAL_RCCEx_PeriphCLKConfig+0x133c>)
 800451e:	430b      	orrs	r3, r1
 8004520:	64d3      	str	r3, [r2, #76]	@ 0x4c
  }

  /*------------------------------ CEC Configuration ------------------------*/
  if (((PeriphClkInit->PeriphClockSelection) & RCC_PERIPHCLK_CEC) == RCC_PERIPHCLK_CEC)
 8004522:	f8d7 3104 	ldr.w	r3, [r7, #260]	@ 0x104
 8004526:	e9d3 2300 	ldrd	r2, r3, [r3]
 800452a:	f402 0300 	and.w	r3, r2, #8388608	@ 0x800000
 800452e:	633b      	str	r3, [r7, #48]	@ 0x30
 8004530:	2300      	movs	r3, #0
 8004532:	637b      	str	r3, [r7, #52]	@ 0x34
 8004534:	e9d7 120c 	ldrd	r1, r2, [r7, #48]	@ 0x30
 8004538:	460b      	mov	r3, r1
 800453a:	4313      	orrs	r3, r2
 800453c:	d00a      	beq.n	8004554 <HAL_RCCEx_PeriphCLKConfig+0x11a0>
  {
    /* Check the parameters */
    assert_param(IS_RCC_CECCLKSOURCE(PeriphClkInit->CecClockSelection));

    /* Configure the CEC interface clock source */
    __HAL_RCC_CEC_CONFIG(PeriphClkInit->CecClockSelection);
 800453e:	4b6c      	ldr	r3, [pc, #432]	@ (80046f0 <HAL_RCCEx_PeriphCLKConfig+0x133c>)
 8004540:	6d5b      	ldr	r3, [r3, #84]	@ 0x54
 8004542:	f423 0140 	bic.w	r1, r3, #12582912	@ 0xc00000
 8004546:	f8d7 3104 	ldr.w	r3, [r7, #260]	@ 0x104
 800454a:	f8d3 3088 	ldr.w	r3, [r3, #136]	@ 0x88
 800454e:	4a68      	ldr	r2, [pc, #416]	@ (80046f0 <HAL_RCCEx_PeriphCLKConfig+0x133c>)
 8004550:	430b      	orrs	r3, r1
 8004552:	6553      	str	r3, [r2, #84]	@ 0x54
  }

  /*---------------------------- PLL2 configuration -------------------------------*/
  if (((PeriphClkInit->PeriphClockSelection) & RCC_PERIPHCLK_PLL2_DIVP) == RCC_PERIPHCLK_PLL2_DIVP)
 8004554:	f8d7 3104 	ldr.w	r3, [r7, #260]	@ 0x104
 8004558:	e9d3 2300 	ldrd	r2, r3, [r3]
 800455c:	2100      	movs	r1, #0
 800455e:	62b9      	str	r1, [r7, #40]	@ 0x28
 8004560:	f003 0301 	and.w	r3, r3, #1
 8004564:	62fb      	str	r3, [r7, #44]	@ 0x2c
 8004566:	e9d7 120a 	ldrd	r1, r2, [r7, #40]	@ 0x28
 800456a:	460b      	mov	r3, r1
 800456c:	4313      	orrs	r3, r2
 800456e:	d011      	beq.n	8004594 <HAL_RCCEx_PeriphCLKConfig+0x11e0>
  {
    ret = RCCEx_PLL2_Config(&(PeriphClkInit->PLL2), DIVIDER_P_UPDATE);
 8004570:	f8d7 3104 	ldr.w	r3, [r7, #260]	@ 0x104
 8004574:	3308      	adds	r3, #8
 8004576:	2100      	movs	r1, #0
 8004578:	4618      	mov	r0, r3
 800457a:	f000 fb79 	bl	8004c70 <RCCEx_PLL2_Config>
 800457e:	4603      	mov	r3, r0
 8004580:	f887 3117 	strb.w	r3, [r7, #279]	@ 0x117
    
    if (ret == HAL_OK)
 8004584:	f897 3117 	ldrb.w	r3, [r7, #279]	@ 0x117
 8004588:	2b00      	cmp	r3, #0
 800458a:	d003      	beq.n	8004594 <HAL_RCCEx_PeriphCLKConfig+0x11e0>
      /*Nothing to do*/
    }
    else
    {
      /* set overall return value */
      status = ret;
 800458c:	f897 3117 	ldrb.w	r3, [r7, #279]	@ 0x117
 8004590:	f887 3116 	strb.w	r3, [r7, #278]	@ 0x116
    } 
  }
  
  
  if (((PeriphClkInit->PeriphClockSelection) & RCC_PERIPHCLK_PLL2_DIVQ) == RCC_PERIPHCLK_PLL2_DIVQ)
 8004594:	f8d7 3104 	ldr.w	r3, [r7, #260]	@ 0x104
 8004598:	e9d3 2300 	ldrd	r2, r3, [r3]
 800459c:	2100      	movs	r1, #0
 800459e:	6239      	str	r1, [r7, #32]
 80045a0:	f003 0302 	and.w	r3, r3, #2
 80045a4:	627b      	str	r3, [r7, #36]	@ 0x24
 80045a6:	e9d7 1208 	ldrd	r1, r2, [r7, #32]
 80045aa:	460b      	mov	r3, r1
 80045ac:	4313      	orrs	r3, r2
 80045ae:	d011      	beq.n	80045d4 <HAL_RCCEx_PeriphCLKConfig+0x1220>
  {
    ret = RCCEx_PLL2_Config(&(PeriphClkInit->PLL2), DIVIDER_Q_UPDATE);
 80045b0:	f8d7 3104 	ldr.w	r3, [r7, #260]	@ 0x104
 80045b4:	3308      	adds	r3, #8
 80045b6:	2101      	movs	r1, #1
 80045b8:	4618      	mov	r0, r3
 80045ba:	f000 fb59 	bl	8004c70 <RCCEx_PLL2_Config>
 80045be:	4603      	mov	r3, r0
 80045c0:	f887 3117 	strb.w	r3, [r7, #279]	@ 0x117
    
    if (ret == HAL_OK)
 80045c4:	f897 3117 	ldrb.w	r3, [r7, #279]	@ 0x117
 80045c8:	2b00      	cmp	r3, #0
 80045ca:	d003      	beq.n	80045d4 <HAL_RCCEx_PeriphCLKConfig+0x1220>
      /*Nothing to do*/
    }
    else
    {
      /* set overall return value */
      status = ret;
 80045cc:	f897 3117 	ldrb.w	r3, [r7, #279]	@ 0x117
 80045d0:	f887 3116 	strb.w	r3, [r7, #278]	@ 0x116
    }
  }
  
  
  if (((PeriphClkInit->PeriphClockSelection) & RCC_PERIPHCLK_PLL2_DIVR) == RCC_PERIPHCLK_PLL2_DIVR)
 80045d4:	f8d7 3104 	ldr.w	r3, [r7, #260]	@ 0x104
 80045d8:	e9d3 2300 	ldrd	r2, r3, [r3]
 80045dc:	2100      	movs	r1, #0
 80045de:	61b9      	str	r1, [r7, #24]
 80045e0:	f003 0304 	and.w	r3, r3, #4
 80045e4:	61fb      	str	r3, [r7, #28]
 80045e6:	e9d7 1206 	ldrd	r1, r2, [r7, #24]
 80045ea:	460b      	mov	r3, r1
 80045ec:	4313      	orrs	r3, r2
 80045ee:	d011      	beq.n	8004614 <HAL_RCCEx_PeriphCLKConfig+0x1260>
  {
    ret = RCCEx_PLL2_Config(&(PeriphClkInit->PLL2), DIVIDER_R_UPDATE);
 80045f0:	f8d7 3104 	ldr.w	r3, [r7, #260]	@ 0x104
 80045f4:	3308      	adds	r3, #8
 80045f6:	2102      	movs	r1, #2
 80045f8:	4618      	mov	r0, r3
 80045fa:	f000 fb39 	bl	8004c70 <RCCEx_PLL2_Config>
 80045fe:	4603      	mov	r3, r0
 8004600:	f887 3117 	strb.w	r3, [r7, #279]	@ 0x117
    
    if (ret == HAL_OK)
 8004604:	f897 3117 	ldrb.w	r3, [r7, #279]	@ 0x117
 8004608:	2b00      	cmp	r3, #0
 800460a:	d003      	beq.n	8004614 <HAL_RCCEx_PeriphCLKConfig+0x1260>
      /*Nothing to do*/
    }
    else
    {
      /* set overall return value */
      status = ret;
 800460c:	f897 3117 	ldrb.w	r3, [r7, #279]	@ 0x117
 8004610:	f887 3116 	strb.w	r3, [r7, #278]	@ 0x116
    }
  }
  

  /*---------------------------- PLL3 configuration -------------------------------*/
  if (((PeriphClkInit->PeriphClockSelection) & RCC_PERIPHCLK_PLL3_DIVP) == RCC_PERIPHCLK_PLL3_DIVP)
 8004614:	f8d7 3104 	ldr.w	r3, [r7, #260]	@ 0x104
 8004618:	e9d3 2300 	ldrd	r2, r3, [r3]
 800461c:	2100      	movs	r1, #0
 800461e:	6139      	str	r1, [r7, #16]
 8004620:	f003 0308 	and.w	r3, r3, #8
 8004624:	617b      	str	r3, [r7, #20]
 8004626:	e9d7 1204 	ldrd	r1, r2, [r7, #16]
 800462a:	460b      	mov	r3, r1
 800462c:	4313      	orrs	r3, r2
 800462e:	d011      	beq.n	8004654 <HAL_RCCEx_PeriphCLKConfig+0x12a0>
  {
    ret = RCCEx_PLL3_Config(&(PeriphClkInit->PLL3), DIVIDER_P_UPDATE);
 8004630:	f8d7 3104 	ldr.w	r3, [r7, #260]	@ 0x104
 8004634:	3328      	adds	r3, #40	@ 0x28
 8004636:	2100      	movs	r1, #0
 8004638:	4618      	mov	r0, r3
 800463a:	f000 fbcb 	bl	8004dd4 <RCCEx_PLL3_Config>
 800463e:	4603      	mov	r3, r0
 8004640:	f887 3117 	strb.w	r3, [r7, #279]	@ 0x117
  
    if (ret == HAL_OK)
 8004644:	f897 3117 	ldrb.w	r3, [r7, #279]	@ 0x117
 8004648:	2b00      	cmp	r3, #0
 800464a:	d003      	beq.n	8004654 <HAL_RCCEx_PeriphCLKConfig+0x12a0>
      /*Nothing to do*/
    }
    else
    {
      /* set overall return value */
      status = ret;
 800464c:	f897 3117 	ldrb.w	r3, [r7, #279]	@ 0x117
 8004650:	f887 3116 	strb.w	r3, [r7, #278]	@ 0x116
    }
  }
  
  
  if (((PeriphClkInit->PeriphClockSelection) & RCC_PERIPHCLK_PLL3_DIVQ) == RCC_PERIPHCLK_PLL3_DIVQ)
 8004654:	f8d7 3104 	ldr.w	r3, [r7, #260]	@ 0x104
 8004658:	e9d3 2300 	ldrd	r2, r3, [r3]
 800465c:	2100      	movs	r1, #0
 800465e:	60b9      	str	r1, [r7, #8]
 8004660:	f003 0310 	and.w	r3, r3, #16
 8004664:	60fb      	str	r3, [r7, #12]
 8004666:	e9d7 1202 	ldrd	r1, r2, [r7, #8]
 800466a:	460b      	mov	r3, r1
 800466c:	4313      	orrs	r3, r2
 800466e:	d011      	beq.n	8004694 <HAL_RCCEx_PeriphCLKConfig+0x12e0>
  {
    ret = RCCEx_PLL3_Config(&(PeriphClkInit->PLL3), DIVIDER_Q_UPDATE);
 8004670:	f8d7 3104 	ldr.w	r3, [r7, #260]	@ 0x104
 8004674:	3328      	adds	r3, #40	@ 0x28
 8004676:	2101      	movs	r1, #1
 8004678:	4618      	mov	r0, r3
 800467a:	f000 fbab 	bl	8004dd4 <RCCEx_PLL3_Config>
 800467e:	4603      	mov	r3, r0
 8004680:	f887 3117 	strb.w	r3, [r7, #279]	@ 0x117
    
    if (ret == HAL_OK)
 8004684:	f897 3117 	ldrb.w	r3, [r7, #279]	@ 0x117
 8004688:	2b00      	cmp	r3, #0
 800468a:	d003      	beq.n	8004694 <HAL_RCCEx_PeriphCLKConfig+0x12e0>
      /*Nothing to do*/
    }
    else
    {
      /* set overall return value */
      status = ret;
 800468c:	f897 3117 	ldrb.w	r3, [r7, #279]	@ 0x117
 8004690:	f887 3116 	strb.w	r3, [r7, #278]	@ 0x116
    }
  }
  
  
  if (((PeriphClkInit->PeriphClockSelection) & RCC_PERIPHCLK_PLL3_DIVR) == RCC_PERIPHCLK_PLL3_DIVR)
 8004694:	f8d7 3104 	ldr.w	r3, [r7, #260]	@ 0x104
 8004698:	e9d3 2300 	ldrd	r2, r3, [r3]
 800469c:	2100      	movs	r1, #0
 800469e:	6039      	str	r1, [r7, #0]
 80046a0:	f003 0320 	and.w	r3, r3, #32
 80046a4:	607b      	str	r3, [r7, #4]
 80046a6:	e9d7 1200 	ldrd	r1, r2, [r7]
 80046aa:	460b      	mov	r3, r1
 80046ac:	4313      	orrs	r3, r2
 80046ae:	d011      	beq.n	80046d4 <HAL_RCCEx_PeriphCLKConfig+0x1320>
  {
    ret = RCCEx_PLL3_Config(&(PeriphClkInit->PLL3), DIVIDER_R_UPDATE);
 80046b0:	f8d7 3104 	ldr.w	r3, [r7, #260]	@ 0x104
 80046b4:	3328      	adds	r3, #40	@ 0x28
 80046b6:	2102      	movs	r1, #2
 80046b8:	4618      	mov	r0, r3
 80046ba:	f000 fb8b 	bl	8004dd4 <RCCEx_PLL3_Config>
 80046be:	4603      	mov	r3, r0
 80046c0:	f887 3117 	strb.w	r3, [r7, #279]	@ 0x117
    
    if (ret == HAL_OK)
 80046c4:	f897 3117 	ldrb.w	r3, [r7, #279]	@ 0x117
 80046c8:	2b00      	cmp	r3, #0
 80046ca:	d003      	beq.n	80046d4 <HAL_RCCEx_PeriphCLKConfig+0x1320>
      /*Nothing to do*/
    }
    else
    {
      /* set overall return value */
      status = ret;
 80046cc:	f897 3117 	ldrb.w	r3, [r7, #279]	@ 0x117
 80046d0:	f887 3116 	strb.w	r3, [r7, #278]	@ 0x116
    } 
  }

  if (status == HAL_OK)
 80046d4:	f897 3116 	ldrb.w	r3, [r7, #278]	@ 0x116
 80046d8:	2b00      	cmp	r3, #0
 80046da:	d101      	bne.n	80046e0 <HAL_RCCEx_PeriphCLKConfig+0x132c>
  {
    return HAL_OK;
 80046dc:	2300      	movs	r3, #0
 80046de:	e000      	b.n	80046e2 <HAL_RCCEx_PeriphCLKConfig+0x132e>
  }
  return HAL_ERROR;
 80046e0:	2301      	movs	r3, #1
}
 80046e2:	4618      	mov	r0, r3
 80046e4:	f507 778c 	add.w	r7, r7, #280	@ 0x118
 80046e8:	46bd      	mov	sp, r7
 80046ea:	e8bd 8fb0 	ldmia.w	sp!, {r4, r5, r7, r8, r9, sl, fp, pc}
 80046ee:	bf00      	nop
 80046f0:	58024400 	.word	0x58024400

080046f4 <HAL_RCCEx_GetD3PCLK1Freq>:
  * @note   Each time D3PCLK1 changes, this function must be called to update the
  *         right D3PCLK1 value. Otherwise, any configuration based on this function will be incorrect.
  * @retval D3PCLK1 frequency
  */
uint32_t HAL_RCCEx_GetD3PCLK1Freq(void)
{
 80046f4:	b580      	push	{r7, lr}
 80046f6:	af00      	add	r7, sp, #0
#if defined(RCC_D3CFGR_D3PPRE)
  /* Get HCLK source and Compute D3PCLK1 frequency ---------------------------*/
  return (HAL_RCC_GetHCLKFreq() >> (D1CorePrescTable[(RCC->D3CFGR & RCC_D3CFGR_D3PPRE) >> RCC_D3CFGR_D3PPRE_Pos] & 0x1FU));
 80046f8:	f7fe fe00 	bl	80032fc <HAL_RCC_GetHCLKFreq>
 80046fc:	4602      	mov	r2, r0
 80046fe:	4b06      	ldr	r3, [pc, #24]	@ (8004718 <HAL_RCCEx_GetD3PCLK1Freq+0x24>)
 8004700:	6a1b      	ldr	r3, [r3, #32]
 8004702:	091b      	lsrs	r3, r3, #4
 8004704:	f003 0307 	and.w	r3, r3, #7
 8004708:	4904      	ldr	r1, [pc, #16]	@ (800471c <HAL_RCCEx_GetD3PCLK1Freq+0x28>)
 800470a:	5ccb      	ldrb	r3, [r1, r3]
 800470c:	f003 031f 	and.w	r3, r3, #31
 8004710:	fa22 f303 	lsr.w	r3, r2, r3
#else
  /* Get HCLK source and Compute D3PCLK1 frequency ---------------------------*/
  return (HAL_RCC_GetHCLKFreq() >> (D1CorePrescTable[(RCC->SRDCFGR & RCC_SRDCFGR_SRDPPRE) >> RCC_SRDCFGR_SRDPPRE_Pos] & 0x1FU));
#endif
}
 8004714:	4618      	mov	r0, r3
 8004716:	bd80      	pop	{r7, pc}
 8004718:	58024400 	.word	0x58024400
 800471c:	080061dc 	.word	0x080061dc

08004720 <HAL_RCCEx_GetPLL2ClockFreq>:
  *         right PLL2CLK value. Otherwise, any configuration based on this function will be incorrect.
  * @param  PLL2_Clocks structure.
  * @retval None
  */
void HAL_RCCEx_GetPLL2ClockFreq(PLL2_ClocksTypeDef *PLL2_Clocks)
{
 8004720:	b480      	push	{r7}
 8004722:	b089      	sub	sp, #36	@ 0x24
 8004724:	af00      	add	r7, sp, #0
 8004726:	6078      	str	r0, [r7, #4]
  float_t fracn2, pll2vco;

  /* PLL_VCO = (HSE_VALUE or HSI_VALUE or CSI_VALUE/ PLL2M) * PLL2N
     PLL2xCLK = PLL2_VCO / PLL2x
  */
  pllsource = (RCC->PLLCKSELR & RCC_PLLCKSELR_PLLSRC);
 8004728:	4ba1      	ldr	r3, [pc, #644]	@ (80049b0 <HAL_RCCEx_GetPLL2ClockFreq+0x290>)
 800472a:	6a9b      	ldr	r3, [r3, #40]	@ 0x28
 800472c:	f003 0303 	and.w	r3, r3, #3
 8004730:	61bb      	str	r3, [r7, #24]
  pll2m = ((RCC->PLLCKSELR & RCC_PLLCKSELR_DIVM2) >> 12);
 8004732:	4b9f      	ldr	r3, [pc, #636]	@ (80049b0 <HAL_RCCEx_GetPLL2ClockFreq+0x290>)
 8004734:	6a9b      	ldr	r3, [r3, #40]	@ 0x28
 8004736:	0b1b      	lsrs	r3, r3, #12
 8004738:	f003 033f 	and.w	r3, r3, #63	@ 0x3f
 800473c:	617b      	str	r3, [r7, #20]
  pll2fracen = (RCC->PLLCFGR & RCC_PLLCFGR_PLL2FRACEN) >> RCC_PLLCFGR_PLL2FRACEN_Pos;
 800473e:	4b9c      	ldr	r3, [pc, #624]	@ (80049b0 <HAL_RCCEx_GetPLL2ClockFreq+0x290>)
 8004740:	6adb      	ldr	r3, [r3, #44]	@ 0x2c
 8004742:	091b      	lsrs	r3, r3, #4
 8004744:	f003 0301 	and.w	r3, r3, #1
 8004748:	613b      	str	r3, [r7, #16]
  fracn2 = (float_t)(uint32_t)(pll2fracen * ((RCC->PLL2FRACR & RCC_PLL2FRACR_FRACN2) >> 3));
 800474a:	4b99      	ldr	r3, [pc, #612]	@ (80049b0 <HAL_RCCEx_GetPLL2ClockFreq+0x290>)
 800474c:	6bdb      	ldr	r3, [r3, #60]	@ 0x3c
 800474e:	08db      	lsrs	r3, r3, #3
 8004750:	f3c3 030c 	ubfx	r3, r3, #0, #13
 8004754:	693a      	ldr	r2, [r7, #16]
 8004756:	fb02 f303 	mul.w	r3, r2, r3
 800475a:	ee07 3a90 	vmov	s15, r3
 800475e:	eef8 7a67 	vcvt.f32.u32	s15, s15
 8004762:	edc7 7a03 	vstr	s15, [r7, #12]

  if (pll2m != 0U)
 8004766:	697b      	ldr	r3, [r7, #20]
 8004768:	2b00      	cmp	r3, #0
 800476a:	f000 8111 	beq.w	8004990 <HAL_RCCEx_GetPLL2ClockFreq+0x270>
  {
    switch (pllsource)
 800476e:	69bb      	ldr	r3, [r7, #24]
 8004770:	2b02      	cmp	r3, #2
 8004772:	f000 8083 	beq.w	800487c <HAL_RCCEx_GetPLL2ClockFreq+0x15c>
 8004776:	69bb      	ldr	r3, [r7, #24]
 8004778:	2b02      	cmp	r3, #2
 800477a:	f200 80a1 	bhi.w	80048c0 <HAL_RCCEx_GetPLL2ClockFreq+0x1a0>
 800477e:	69bb      	ldr	r3, [r7, #24]
 8004780:	2b00      	cmp	r3, #0
 8004782:	d003      	beq.n	800478c <HAL_RCCEx_GetPLL2ClockFreq+0x6c>
 8004784:	69bb      	ldr	r3, [r7, #24]
 8004786:	2b01      	cmp	r3, #1
 8004788:	d056      	beq.n	8004838 <HAL_RCCEx_GetPLL2ClockFreq+0x118>
 800478a:	e099      	b.n	80048c0 <HAL_RCCEx_GetPLL2ClockFreq+0x1a0>
    {

      case RCC_PLLSOURCE_HSI:  /* HSI used as PLL clock source */

        if (__HAL_RCC_GET_FLAG(RCC_FLAG_HSIDIV) != 0U)
 800478c:	4b88      	ldr	r3, [pc, #544]	@ (80049b0 <HAL_RCCEx_GetPLL2ClockFreq+0x290>)
 800478e:	681b      	ldr	r3, [r3, #0]
 8004790:	f003 0320 	and.w	r3, r3, #32
 8004794:	2b00      	cmp	r3, #0
 8004796:	d02d      	beq.n	80047f4 <HAL_RCCEx_GetPLL2ClockFreq+0xd4>
        {
          hsivalue = (HSI_VALUE >> (__HAL_RCC_GET_HSI_DIVIDER() >> 3));
 8004798:	4b85      	ldr	r3, [pc, #532]	@ (80049b0 <HAL_RCCEx_GetPLL2ClockFreq+0x290>)
 800479a:	681b      	ldr	r3, [r3, #0]
 800479c:	08db      	lsrs	r3, r3, #3
 800479e:	f003 0303 	and.w	r3, r3, #3
 80047a2:	4a84      	ldr	r2, [pc, #528]	@ (80049b4 <HAL_RCCEx_GetPLL2ClockFreq+0x294>)
 80047a4:	fa22 f303 	lsr.w	r3, r2, r3
 80047a8:	60bb      	str	r3, [r7, #8]
          pll2vco = ((float_t)hsivalue / (float_t)pll2m) * ((float_t)(uint32_t)(RCC->PLL2DIVR & RCC_PLL2DIVR_N2) + (fracn2 / (float_t)0x2000) + (float_t)1);
 80047aa:	68bb      	ldr	r3, [r7, #8]
 80047ac:	ee07 3a90 	vmov	s15, r3
 80047b0:	eef8 6a67 	vcvt.f32.u32	s13, s15
 80047b4:	697b      	ldr	r3, [r7, #20]
 80047b6:	ee07 3a90 	vmov	s15, r3
 80047ba:	eef8 7a67 	vcvt.f32.u32	s15, s15
 80047be:	ee86 7aa7 	vdiv.f32	s14, s13, s15
 80047c2:	4b7b      	ldr	r3, [pc, #492]	@ (80049b0 <HAL_RCCEx_GetPLL2ClockFreq+0x290>)
 80047c4:	6b9b      	ldr	r3, [r3, #56]	@ 0x38
 80047c6:	f3c3 0308 	ubfx	r3, r3, #0, #9
 80047ca:	ee07 3a90 	vmov	s15, r3
 80047ce:	eef8 6a67 	vcvt.f32.u32	s13, s15
 80047d2:	ed97 6a03 	vldr	s12, [r7, #12]
 80047d6:	eddf 5a78 	vldr	s11, [pc, #480]	@ 80049b8 <HAL_RCCEx_GetPLL2ClockFreq+0x298>
 80047da:	eec6 7a25 	vdiv.f32	s15, s12, s11
 80047de:	ee76 7aa7 	vadd.f32	s15, s13, s15
 80047e2:	eef7 6a00 	vmov.f32	s13, #112	@ 0x3f800000  1.0
 80047e6:	ee77 7aa6 	vadd.f32	s15, s15, s13
 80047ea:	ee67 7a27 	vmul.f32	s15, s14, s15
 80047ee:	edc7 7a07 	vstr	s15, [r7, #28]
        }
        else
        {
          pll2vco = ((float_t)HSI_VALUE / (float_t)pll2m) * ((float_t)(uint32_t)(RCC->PLL2DIVR & RCC_PLL2DIVR_N2) + (fracn2 / (float_t)0x2000) + (float_t)1);
        }
        break;
 80047f2:	e087      	b.n	8004904 <HAL_RCCEx_GetPLL2ClockFreq+0x1e4>
          pll2vco = ((float_t)HSI_VALUE / (float_t)pll2m) * ((float_t)(uint32_t)(RCC->PLL2DIVR & RCC_PLL2DIVR_N2) + (fracn2 / (float_t)0x2000) + (float_t)1);
 80047f4:	697b      	ldr	r3, [r7, #20]
 80047f6:	ee07 3a90 	vmov	s15, r3
 80047fa:	eef8 7a67 	vcvt.f32.u32	s15, s15
 80047fe:	eddf 6a6f 	vldr	s13, [pc, #444]	@ 80049bc <HAL_RCCEx_GetPLL2ClockFreq+0x29c>
 8004802:	ee86 7aa7 	vdiv.f32	s14, s13, s15
 8004806:	4b6a      	ldr	r3, [pc, #424]	@ (80049b0 <HAL_RCCEx_GetPLL2ClockFreq+0x290>)
 8004808:	6b9b      	ldr	r3, [r3, #56]	@ 0x38
 800480a:	f3c3 0308 	ubfx	r3, r3, #0, #9
 800480e:	ee07 3a90 	vmov	s15, r3
 8004812:	eef8 6a67 	vcvt.f32.u32	s13, s15
 8004816:	ed97 6a03 	vldr	s12, [r7, #12]
 800481a:	eddf 5a67 	vldr	s11, [pc, #412]	@ 80049b8 <HAL_RCCEx_GetPLL2ClockFreq+0x298>
 800481e:	eec6 7a25 	vdiv.f32	s15, s12, s11
 8004822:	ee76 7aa7 	vadd.f32	s15, s13, s15
 8004826:	eef7 6a00 	vmov.f32	s13, #112	@ 0x3f800000  1.0
 800482a:	ee77 7aa6 	vadd.f32	s15, s15, s13
 800482e:	ee67 7a27 	vmul.f32	s15, s14, s15
 8004832:	edc7 7a07 	vstr	s15, [r7, #28]
        break;
 8004836:	e065      	b.n	8004904 <HAL_RCCEx_GetPLL2ClockFreq+0x1e4>

      case RCC_PLLSOURCE_CSI:  /* CSI used as PLL clock source */
        pll2vco = ((float_t)CSI_VALUE / (float_t)pll2m) * ((float_t)(uint32_t)(RCC->PLL2DIVR & RCC_PLL2DIVR_N2) + (fracn2 / (float_t)0x2000) + (float_t)1);
 8004838:	697b      	ldr	r3, [r7, #20]
 800483a:	ee07 3a90 	vmov	s15, r3
 800483e:	eef8 7a67 	vcvt.f32.u32	s15, s15
 8004842:	eddf 6a5f 	vldr	s13, [pc, #380]	@ 80049c0 <HAL_RCCEx_GetPLL2ClockFreq+0x2a0>
 8004846:	ee86 7aa7 	vdiv.f32	s14, s13, s15
 800484a:	4b59      	ldr	r3, [pc, #356]	@ (80049b0 <HAL_RCCEx_GetPLL2ClockFreq+0x290>)
 800484c:	6b9b      	ldr	r3, [r3, #56]	@ 0x38
 800484e:	f3c3 0308 	ubfx	r3, r3, #0, #9
 8004852:	ee07 3a90 	vmov	s15, r3
 8004856:	eef8 6a67 	vcvt.f32.u32	s13, s15
 800485a:	ed97 6a03 	vldr	s12, [r7, #12]
 800485e:	eddf 5a56 	vldr	s11, [pc, #344]	@ 80049b8 <HAL_RCCEx_GetPLL2ClockFreq+0x298>
 8004862:	eec6 7a25 	vdiv.f32	s15, s12, s11
 8004866:	ee76 7aa7 	vadd.f32	s15, s13, s15
 800486a:	eef7 6a00 	vmov.f32	s13, #112	@ 0x3f800000  1.0
 800486e:	ee77 7aa6 	vadd.f32	s15, s15, s13
 8004872:	ee67 7a27 	vmul.f32	s15, s14, s15
 8004876:	edc7 7a07 	vstr	s15, [r7, #28]
        break;
 800487a:	e043      	b.n	8004904 <HAL_RCCEx_GetPLL2ClockFreq+0x1e4>

      case RCC_PLLSOURCE_HSE:  /* HSE used as PLL clock source */
        pll2vco = ((float_t)HSE_VALUE / (float_t)pll2m) * ((float_t)(uint32_t)(RCC->PLL2DIVR & RCC_PLL2DIVR_N2) + (fracn2 / (float_t)0x2000) + (float_t)1);
 800487c:	697b      	ldr	r3, [r7, #20]
 800487e:	ee07 3a90 	vmov	s15, r3
 8004882:	eef8 7a67 	vcvt.f32.u32	s15, s15
 8004886:	eddf 6a4f 	vldr	s13, [pc, #316]	@ 80049c4 <HAL_RCCEx_GetPLL2ClockFreq+0x2a4>
 800488a:	ee86 7aa7 	vdiv.f32	s14, s13, s15
 800488e:	4b48      	ldr	r3, [pc, #288]	@ (80049b0 <HAL_RCCEx_GetPLL2ClockFreq+0x290>)
 8004890:	6b9b      	ldr	r3, [r3, #56]	@ 0x38
 8004892:	f3c3 0308 	ubfx	r3, r3, #0, #9
 8004896:	ee07 3a90 	vmov	s15, r3
 800489a:	eef8 6a67 	vcvt.f32.u32	s13, s15
 800489e:	ed97 6a03 	vldr	s12, [r7, #12]
 80048a2:	eddf 5a45 	vldr	s11, [pc, #276]	@ 80049b8 <HAL_RCCEx_GetPLL2ClockFreq+0x298>
 80048a6:	eec6 7a25 	vdiv.f32	s15, s12, s11
 80048aa:	ee76 7aa7 	vadd.f32	s15, s13, s15
 80048ae:	eef7 6a00 	vmov.f32	s13, #112	@ 0x3f800000  1.0
 80048b2:	ee77 7aa6 	vadd.f32	s15, s15, s13
 80048b6:	ee67 7a27 	vmul.f32	s15, s14, s15
 80048ba:	edc7 7a07 	vstr	s15, [r7, #28]
        break;
 80048be:	e021      	b.n	8004904 <HAL_RCCEx_GetPLL2ClockFreq+0x1e4>

      default:
        pll2vco = ((float_t)CSI_VALUE / (float_t)pll2m) * ((float_t)(uint32_t)(RCC->PLL2DIVR & RCC_PLL2DIVR_N2) + (fracn2 / (float_t)0x2000) + (float_t)1);
 80048c0:	697b      	ldr	r3, [r7, #20]
 80048c2:	ee07 3a90 	vmov	s15, r3
 80048c6:	eef8 7a67 	vcvt.f32.u32	s15, s15
 80048ca:	eddf 6a3d 	vldr	s13, [pc, #244]	@ 80049c0 <HAL_RCCEx_GetPLL2ClockFreq+0x2a0>
 80048ce:	ee86 7aa7 	vdiv.f32	s14, s13, s15
 80048d2:	4b37      	ldr	r3, [pc, #220]	@ (80049b0 <HAL_RCCEx_GetPLL2ClockFreq+0x290>)
 80048d4:	6b9b      	ldr	r3, [r3, #56]	@ 0x38
 80048d6:	f3c3 0308 	ubfx	r3, r3, #0, #9
 80048da:	ee07 3a90 	vmov	s15, r3
 80048de:	eef8 6a67 	vcvt.f32.u32	s13, s15
 80048e2:	ed97 6a03 	vldr	s12, [r7, #12]
 80048e6:	eddf 5a34 	vldr	s11, [pc, #208]	@ 80049b8 <HAL_RCCEx_GetPLL2ClockFreq+0x298>
 80048ea:	eec6 7a25 	vdiv.f32	s15, s12, s11
 80048ee:	ee76 7aa7 	vadd.f32	s15, s13, s15
 80048f2:	eef7 6a00 	vmov.f32	s13, #112	@ 0x3f800000  1.0
 80048f6:	ee77 7aa6 	vadd.f32	s15, s15, s13
 80048fa:	ee67 7a27 	vmul.f32	s15, s14, s15
 80048fe:	edc7 7a07 	vstr	s15, [r7, #28]
        break;
 8004902:	bf00      	nop
    }
    PLL2_Clocks->PLL2_P_Frequency = (uint32_t)(float_t)(pll2vco / ((float_t)(uint32_t)((RCC->PLL2DIVR & RCC_PLL2DIVR_P2) >> 9)  + (float_t)1)) ;
 8004904:	4b2a      	ldr	r3, [pc, #168]	@ (80049b0 <HAL_RCCEx_GetPLL2ClockFreq+0x290>)
 8004906:	6b9b      	ldr	r3, [r3, #56]	@ 0x38
 8004908:	0a5b      	lsrs	r3, r3, #9
 800490a:	f003 037f 	and.w	r3, r3, #127	@ 0x7f
 800490e:	ee07 3a90 	vmov	s15, r3
 8004912:	eef8 7a67 	vcvt.f32.u32	s15, s15
 8004916:	eeb7 7a00 	vmov.f32	s14, #112	@ 0x3f800000  1.0
 800491a:	ee37 7a87 	vadd.f32	s14, s15, s14
 800491e:	edd7 6a07 	vldr	s13, [r7, #28]
 8004922:	eec6 7a87 	vdiv.f32	s15, s13, s14
 8004926:	eefc 7ae7 	vcvt.u32.f32	s15, s15
 800492a:	ee17 2a90 	vmov	r2, s15
 800492e:	687b      	ldr	r3, [r7, #4]
 8004930:	601a      	str	r2, [r3, #0]
    PLL2_Clocks->PLL2_Q_Frequency = (uint32_t)(float_t)(pll2vco / ((float_t)(uint32_t)((RCC->PLL2DIVR & RCC_PLL2DIVR_Q2) >> 16) + (float_t)1)) ;
 8004932:	4b1f      	ldr	r3, [pc, #124]	@ (80049b0 <HAL_RCCEx_GetPLL2ClockFreq+0x290>)
 8004934:	6b9b      	ldr	r3, [r3, #56]	@ 0x38
 8004936:	0c1b      	lsrs	r3, r3, #16
 8004938:	f003 037f 	and.w	r3, r3, #127	@ 0x7f
 800493c:	ee07 3a90 	vmov	s15, r3
 8004940:	eef8 7a67 	vcvt.f32.u32	s15, s15
 8004944:	eeb7 7a00 	vmov.f32	s14, #112	@ 0x3f800000  1.0
 8004948:	ee37 7a87 	vadd.f32	s14, s15, s14
 800494c:	edd7 6a07 	vldr	s13, [r7, #28]
 8004950:	eec6 7a87 	vdiv.f32	s15, s13, s14
 8004954:	eefc 7ae7 	vcvt.u32.f32	s15, s15
 8004958:	ee17 2a90 	vmov	r2, s15
 800495c:	687b      	ldr	r3, [r7, #4]
 800495e:	605a      	str	r2, [r3, #4]
    PLL2_Clocks->PLL2_R_Frequency = (uint32_t)(float_t)(pll2vco / ((float_t)(uint32_t)((RCC->PLL2DIVR & RCC_PLL2DIVR_R2) >> 24) + (float_t)1)) ;
 8004960:	4b13      	ldr	r3, [pc, #76]	@ (80049b0 <HAL_RCCEx_GetPLL2ClockFreq+0x290>)
 8004962:	6b9b      	ldr	r3, [r3, #56]	@ 0x38
 8004964:	0e1b      	lsrs	r3, r3, #24
 8004966:	f003 037f 	and.w	r3, r3, #127	@ 0x7f
 800496a:	ee07 3a90 	vmov	s15, r3
 800496e:	eef8 7a67 	vcvt.f32.u32	s15, s15
 8004972:	eeb7 7a00 	vmov.f32	s14, #112	@ 0x3f800000  1.0
 8004976:	ee37 7a87 	vadd.f32	s14, s15, s14
 800497a:	edd7 6a07 	vldr	s13, [r7, #28]
 800497e:	eec6 7a87 	vdiv.f32	s15, s13, s14
 8004982:	eefc 7ae7 	vcvt.u32.f32	s15, s15
 8004986:	ee17 2a90 	vmov	r2, s15
 800498a:	687b      	ldr	r3, [r7, #4]
 800498c:	609a      	str	r2, [r3, #8]
  {
    PLL2_Clocks->PLL2_P_Frequency = 0U;
    PLL2_Clocks->PLL2_Q_Frequency = 0U;
    PLL2_Clocks->PLL2_R_Frequency = 0U;
  }
}
 800498e:	e008      	b.n	80049a2 <HAL_RCCEx_GetPLL2ClockFreq+0x282>
    PLL2_Clocks->PLL2_P_Frequency = 0U;
 8004990:	687b      	ldr	r3, [r7, #4]
 8004992:	2200      	movs	r2, #0
 8004994:	601a      	str	r2, [r3, #0]
    PLL2_Clocks->PLL2_Q_Frequency = 0U;
 8004996:	687b      	ldr	r3, [r7, #4]
 8004998:	2200      	movs	r2, #0
 800499a:	605a      	str	r2, [r3, #4]
    PLL2_Clocks->PLL2_R_Frequency = 0U;
 800499c:	687b      	ldr	r3, [r7, #4]
 800499e:	2200      	movs	r2, #0
 80049a0:	609a      	str	r2, [r3, #8]
}
 80049a2:	bf00      	nop
 80049a4:	3724      	adds	r7, #36	@ 0x24
 80049a6:	46bd      	mov	sp, r7
 80049a8:	f85d 7b04 	ldr.w	r7, [sp], #4
 80049ac:	4770      	bx	lr
 80049ae:	bf00      	nop
 80049b0:	58024400 	.word	0x58024400
 80049b4:	03d09000 	.word	0x03d09000
 80049b8:	46000000 	.word	0x46000000
 80049bc:	4c742400 	.word	0x4c742400
 80049c0:	4a742400 	.word	0x4a742400
 80049c4:	4af42400 	.word	0x4af42400

080049c8 <HAL_RCCEx_GetPLL3ClockFreq>:
  *         right PLL3CLK value. Otherwise, any configuration based on this function will be incorrect.
  * @param  PLL3_Clocks structure.
  * @retval None
  */
void HAL_RCCEx_GetPLL3ClockFreq(PLL3_ClocksTypeDef *PLL3_Clocks)
{
 80049c8:	b480      	push	{r7}
 80049ca:	b089      	sub	sp, #36	@ 0x24
 80049cc:	af00      	add	r7, sp, #0
 80049ce:	6078      	str	r0, [r7, #4]
  float_t fracn3, pll3vco;

  /* PLL3_VCO = (HSE_VALUE or HSI_VALUE or CSI_VALUE/ PLL3M) * PLL3N
     PLL3xCLK = PLL3_VCO / PLLxR
  */
  pllsource = (RCC->PLLCKSELR & RCC_PLLCKSELR_PLLSRC);
 80049d0:	4ba1      	ldr	r3, [pc, #644]	@ (8004c58 <HAL_RCCEx_GetPLL3ClockFreq+0x290>)
 80049d2:	6a9b      	ldr	r3, [r3, #40]	@ 0x28
 80049d4:	f003 0303 	and.w	r3, r3, #3
 80049d8:	61bb      	str	r3, [r7, #24]
  pll3m = ((RCC->PLLCKSELR & RCC_PLLCKSELR_DIVM3) >> 20)  ;
 80049da:	4b9f      	ldr	r3, [pc, #636]	@ (8004c58 <HAL_RCCEx_GetPLL3ClockFreq+0x290>)
 80049dc:	6a9b      	ldr	r3, [r3, #40]	@ 0x28
 80049de:	0d1b      	lsrs	r3, r3, #20
 80049e0:	f003 033f 	and.w	r3, r3, #63	@ 0x3f
 80049e4:	617b      	str	r3, [r7, #20]
  pll3fracen = (RCC->PLLCFGR & RCC_PLLCFGR_PLL3FRACEN) >> RCC_PLLCFGR_PLL3FRACEN_Pos;
 80049e6:	4b9c      	ldr	r3, [pc, #624]	@ (8004c58 <HAL_RCCEx_GetPLL3ClockFreq+0x290>)
 80049e8:	6adb      	ldr	r3, [r3, #44]	@ 0x2c
 80049ea:	0a1b      	lsrs	r3, r3, #8
 80049ec:	f003 0301 	and.w	r3, r3, #1
 80049f0:	613b      	str	r3, [r7, #16]
  fracn3 = (float_t)(uint32_t)(pll3fracen * ((RCC->PLL3FRACR & RCC_PLL3FRACR_FRACN3) >> 3));
 80049f2:	4b99      	ldr	r3, [pc, #612]	@ (8004c58 <HAL_RCCEx_GetPLL3ClockFreq+0x290>)
 80049f4:	6c5b      	ldr	r3, [r3, #68]	@ 0x44
 80049f6:	08db      	lsrs	r3, r3, #3
 80049f8:	f3c3 030c 	ubfx	r3, r3, #0, #13
 80049fc:	693a      	ldr	r2, [r7, #16]
 80049fe:	fb02 f303 	mul.w	r3, r2, r3
 8004a02:	ee07 3a90 	vmov	s15, r3
 8004a06:	eef8 7a67 	vcvt.f32.u32	s15, s15
 8004a0a:	edc7 7a03 	vstr	s15, [r7, #12]

  if (pll3m != 0U)
 8004a0e:	697b      	ldr	r3, [r7, #20]
 8004a10:	2b00      	cmp	r3, #0
 8004a12:	f000 8111 	beq.w	8004c38 <HAL_RCCEx_GetPLL3ClockFreq+0x270>
  {
    switch (pllsource)
 8004a16:	69bb      	ldr	r3, [r7, #24]
 8004a18:	2b02      	cmp	r3, #2
 8004a1a:	f000 8083 	beq.w	8004b24 <HAL_RCCEx_GetPLL3ClockFreq+0x15c>
 8004a1e:	69bb      	ldr	r3, [r7, #24]
 8004a20:	2b02      	cmp	r3, #2
 8004a22:	f200 80a1 	bhi.w	8004b68 <HAL_RCCEx_GetPLL3ClockFreq+0x1a0>
 8004a26:	69bb      	ldr	r3, [r7, #24]
 8004a28:	2b00      	cmp	r3, #0
 8004a2a:	d003      	beq.n	8004a34 <HAL_RCCEx_GetPLL3ClockFreq+0x6c>
 8004a2c:	69bb      	ldr	r3, [r7, #24]
 8004a2e:	2b01      	cmp	r3, #1
 8004a30:	d056      	beq.n	8004ae0 <HAL_RCCEx_GetPLL3ClockFreq+0x118>
 8004a32:	e099      	b.n	8004b68 <HAL_RCCEx_GetPLL3ClockFreq+0x1a0>
    {
      case RCC_PLLSOURCE_HSI:  /* HSI used as PLL clock source */

        if (__HAL_RCC_GET_FLAG(RCC_FLAG_HSIDIV) != 0U)
 8004a34:	4b88      	ldr	r3, [pc, #544]	@ (8004c58 <HAL_RCCEx_GetPLL3ClockFreq+0x290>)
 8004a36:	681b      	ldr	r3, [r3, #0]
 8004a38:	f003 0320 	and.w	r3, r3, #32
 8004a3c:	2b00      	cmp	r3, #0
 8004a3e:	d02d      	beq.n	8004a9c <HAL_RCCEx_GetPLL3ClockFreq+0xd4>
        {
          hsivalue = (HSI_VALUE >> (__HAL_RCC_GET_HSI_DIVIDER() >> 3));
 8004a40:	4b85      	ldr	r3, [pc, #532]	@ (8004c58 <HAL_RCCEx_GetPLL3ClockFreq+0x290>)
 8004a42:	681b      	ldr	r3, [r3, #0]
 8004a44:	08db      	lsrs	r3, r3, #3
 8004a46:	f003 0303 	and.w	r3, r3, #3
 8004a4a:	4a84      	ldr	r2, [pc, #528]	@ (8004c5c <HAL_RCCEx_GetPLL3ClockFreq+0x294>)
 8004a4c:	fa22 f303 	lsr.w	r3, r2, r3
 8004a50:	60bb      	str	r3, [r7, #8]
          pll3vco = ((float_t)hsivalue / (float_t)pll3m) * ((float_t)(uint32_t)(RCC->PLL3DIVR & RCC_PLL3DIVR_N3) + (fracn3 / (float_t)0x2000) + (float_t)1);
 8004a52:	68bb      	ldr	r3, [r7, #8]
 8004a54:	ee07 3a90 	vmov	s15, r3
 8004a58:	eef8 6a67 	vcvt.f32.u32	s13, s15
 8004a5c:	697b      	ldr	r3, [r7, #20]
 8004a5e:	ee07 3a90 	vmov	s15, r3
 8004a62:	eef8 7a67 	vcvt.f32.u32	s15, s15
 8004a66:	ee86 7aa7 	vdiv.f32	s14, s13, s15
 8004a6a:	4b7b      	ldr	r3, [pc, #492]	@ (8004c58 <HAL_RCCEx_GetPLL3ClockFreq+0x290>)
 8004a6c:	6c1b      	ldr	r3, [r3, #64]	@ 0x40
 8004a6e:	f3c3 0308 	ubfx	r3, r3, #0, #9
 8004a72:	ee07 3a90 	vmov	s15, r3
 8004a76:	eef8 6a67 	vcvt.f32.u32	s13, s15
 8004a7a:	ed97 6a03 	vldr	s12, [r7, #12]
 8004a7e:	eddf 5a78 	vldr	s11, [pc, #480]	@ 8004c60 <HAL_RCCEx_GetPLL3ClockFreq+0x298>
 8004a82:	eec6 7a25 	vdiv.f32	s15, s12, s11
 8004a86:	ee76 7aa7 	vadd.f32	s15, s13, s15
 8004a8a:	eef7 6a00 	vmov.f32	s13, #112	@ 0x3f800000  1.0
 8004a8e:	ee77 7aa6 	vadd.f32	s15, s15, s13
 8004a92:	ee67 7a27 	vmul.f32	s15, s14, s15
 8004a96:	edc7 7a07 	vstr	s15, [r7, #28]
        }
        else
        {
          pll3vco = ((float_t)HSI_VALUE / (float_t)pll3m) * ((float_t)(uint32_t)(RCC->PLL3DIVR & RCC_PLL3DIVR_N3) + (fracn3 / (float_t)0x2000) + (float_t)1);
        }
        break;
 8004a9a:	e087      	b.n	8004bac <HAL_RCCEx_GetPLL3ClockFreq+0x1e4>
          pll3vco = ((float_t)HSI_VALUE / (float_t)pll3m) * ((float_t)(uint32_t)(RCC->PLL3DIVR & RCC_PLL3DIVR_N3) + (fracn3 / (float_t)0x2000) + (float_t)1);
 8004a9c:	697b      	ldr	r3, [r7, #20]
 8004a9e:	ee07 3a90 	vmov	s15, r3
 8004aa2:	eef8 7a67 	vcvt.f32.u32	s15, s15
 8004aa6:	eddf 6a6f 	vldr	s13, [pc, #444]	@ 8004c64 <HAL_RCCEx_GetPLL3ClockFreq+0x29c>
 8004aaa:	ee86 7aa7 	vdiv.f32	s14, s13, s15
 8004aae:	4b6a      	ldr	r3, [pc, #424]	@ (8004c58 <HAL_RCCEx_GetPLL3ClockFreq+0x290>)
 8004ab0:	6c1b      	ldr	r3, [r3, #64]	@ 0x40
 8004ab2:	f3c3 0308 	ubfx	r3, r3, #0, #9
 8004ab6:	ee07 3a90 	vmov	s15, r3
 8004aba:	eef8 6a67 	vcvt.f32.u32	s13, s15
 8004abe:	ed97 6a03 	vldr	s12, [r7, #12]
 8004ac2:	eddf 5a67 	vldr	s11, [pc, #412]	@ 8004c60 <HAL_RCCEx_GetPLL3ClockFreq+0x298>
 8004ac6:	eec6 7a25 	vdiv.f32	s15, s12, s11
 8004aca:	ee76 7aa7 	vadd.f32	s15, s13, s15
 8004ace:	eef7 6a00 	vmov.f32	s13, #112	@ 0x3f800000  1.0
 8004ad2:	ee77 7aa6 	vadd.f32	s15, s15, s13
 8004ad6:	ee67 7a27 	vmul.f32	s15, s14, s15
 8004ada:	edc7 7a07 	vstr	s15, [r7, #28]
        break;
 8004ade:	e065      	b.n	8004bac <HAL_RCCEx_GetPLL3ClockFreq+0x1e4>
      case RCC_PLLSOURCE_CSI:  /* CSI used as PLL clock source */
        pll3vco = ((float_t)CSI_VALUE / (float_t)pll3m) * ((float_t)(uint32_t)(RCC->PLL3DIVR & RCC_PLL3DIVR_N3) + (fracn3 / (float_t)0x2000) + (float_t)1);
 8004ae0:	697b      	ldr	r3, [r7, #20]
 8004ae2:	ee07 3a90 	vmov	s15, r3
 8004ae6:	eef8 7a67 	vcvt.f32.u32	s15, s15
 8004aea:	eddf 6a5f 	vldr	s13, [pc, #380]	@ 8004c68 <HAL_RCCEx_GetPLL3ClockFreq+0x2a0>
 8004aee:	ee86 7aa7 	vdiv.f32	s14, s13, s15
 8004af2:	4b59      	ldr	r3, [pc, #356]	@ (8004c58 <HAL_RCCEx_GetPLL3ClockFreq+0x290>)
 8004af4:	6c1b      	ldr	r3, [r3, #64]	@ 0x40
 8004af6:	f3c3 0308 	ubfx	r3, r3, #0, #9
 8004afa:	ee07 3a90 	vmov	s15, r3
 8004afe:	eef8 6a67 	vcvt.f32.u32	s13, s15
 8004b02:	ed97 6a03 	vldr	s12, [r7, #12]
 8004b06:	eddf 5a56 	vldr	s11, [pc, #344]	@ 8004c60 <HAL_RCCEx_GetPLL3ClockFreq+0x298>
 8004b0a:	eec6 7a25 	vdiv.f32	s15, s12, s11
 8004b0e:	ee76 7aa7 	vadd.f32	s15, s13, s15
 8004b12:	eef7 6a00 	vmov.f32	s13, #112	@ 0x3f800000  1.0
 8004b16:	ee77 7aa6 	vadd.f32	s15, s15, s13
 8004b1a:	ee67 7a27 	vmul.f32	s15, s14, s15
 8004b1e:	edc7 7a07 	vstr	s15, [r7, #28]
        break;
 8004b22:	e043      	b.n	8004bac <HAL_RCCEx_GetPLL3ClockFreq+0x1e4>

      case RCC_PLLSOURCE_HSE:  /* HSE used as PLL clock source */
        pll3vco = ((float_t)HSE_VALUE / (float_t)pll3m) * ((float_t)(uint32_t)(RCC->PLL3DIVR & RCC_PLL3DIVR_N3) + (fracn3 / (float_t)0x2000) + (float_t)1);
 8004b24:	697b      	ldr	r3, [r7, #20]
 8004b26:	ee07 3a90 	vmov	s15, r3
 8004b2a:	eef8 7a67 	vcvt.f32.u32	s15, s15
 8004b2e:	eddf 6a4f 	vldr	s13, [pc, #316]	@ 8004c6c <HAL_RCCEx_GetPLL3ClockFreq+0x2a4>
 8004b32:	ee86 7aa7 	vdiv.f32	s14, s13, s15
 8004b36:	4b48      	ldr	r3, [pc, #288]	@ (8004c58 <HAL_RCCEx_GetPLL3ClockFreq+0x290>)
 8004b38:	6c1b      	ldr	r3, [r3, #64]	@ 0x40
 8004b3a:	f3c3 0308 	ubfx	r3, r3, #0, #9
 8004b3e:	ee07 3a90 	vmov	s15, r3
 8004b42:	eef8 6a67 	vcvt.f32.u32	s13, s15
 8004b46:	ed97 6a03 	vldr	s12, [r7, #12]
 8004b4a:	eddf 5a45 	vldr	s11, [pc, #276]	@ 8004c60 <HAL_RCCEx_GetPLL3ClockFreq+0x298>
 8004b4e:	eec6 7a25 	vdiv.f32	s15, s12, s11
 8004b52:	ee76 7aa7 	vadd.f32	s15, s13, s15
 8004b56:	eef7 6a00 	vmov.f32	s13, #112	@ 0x3f800000  1.0
 8004b5a:	ee77 7aa6 	vadd.f32	s15, s15, s13
 8004b5e:	ee67 7a27 	vmul.f32	s15, s14, s15
 8004b62:	edc7 7a07 	vstr	s15, [r7, #28]
        break;
 8004b66:	e021      	b.n	8004bac <HAL_RCCEx_GetPLL3ClockFreq+0x1e4>

      default:
        pll3vco = ((float_t)CSI_VALUE / (float_t)pll3m) * ((float_t)(uint32_t)(RCC->PLL3DIVR & RCC_PLL3DIVR_N3) + (fracn3 / (float_t)0x2000) + (float_t)1);
 8004b68:	697b      	ldr	r3, [r7, #20]
 8004b6a:	ee07 3a90 	vmov	s15, r3
 8004b6e:	eef8 7a67 	vcvt.f32.u32	s15, s15
 8004b72:	eddf 6a3d 	vldr	s13, [pc, #244]	@ 8004c68 <HAL_RCCEx_GetPLL3ClockFreq+0x2a0>
 8004b76:	ee86 7aa7 	vdiv.f32	s14, s13, s15
 8004b7a:	4b37      	ldr	r3, [pc, #220]	@ (8004c58 <HAL_RCCEx_GetPLL3ClockFreq+0x290>)
 8004b7c:	6c1b      	ldr	r3, [r3, #64]	@ 0x40
 8004b7e:	f3c3 0308 	ubfx	r3, r3, #0, #9
 8004b82:	ee07 3a90 	vmov	s15, r3
 8004b86:	eef8 6a67 	vcvt.f32.u32	s13, s15
 8004b8a:	ed97 6a03 	vldr	s12, [r7, #12]
 8004b8e:	eddf 5a34 	vldr	s11, [pc, #208]	@ 8004c60 <HAL_RCCEx_GetPLL3ClockFreq+0x298>
 8004b92:	eec6 7a25 	vdiv.f32	s15, s12, s11
 8004b96:	ee76 7aa7 	vadd.f32	s15, s13, s15
 8004b9a:	eef7 6a00 	vmov.f32	s13, #112	@ 0x3f800000  1.0
 8004b9e:	ee77 7aa6 	vadd.f32	s15, s15, s13
 8004ba2:	ee67 7a27 	vmul.f32	s15, s14, s15
 8004ba6:	edc7 7a07 	vstr	s15, [r7, #28]
        break;
 8004baa:	bf00      	nop
    }
    PLL3_Clocks->PLL3_P_Frequency = (uint32_t)(float_t)(pll3vco / ((float_t)(uint32_t)((RCC->PLL3DIVR & RCC_PLL3DIVR_P3) >> 9)  + (float_t)1)) ;
 8004bac:	4b2a      	ldr	r3, [pc, #168]	@ (8004c58 <HAL_RCCEx_GetPLL3ClockFreq+0x290>)
 8004bae:	6c1b      	ldr	r3, [r3, #64]	@ 0x40
 8004bb0:	0a5b      	lsrs	r3, r3, #9
 8004bb2:	f003 037f 	and.w	r3, r3, #127	@ 0x7f
 8004bb6:	ee07 3a90 	vmov	s15, r3
 8004bba:	eef8 7a67 	vcvt.f32.u32	s15, s15
 8004bbe:	eeb7 7a00 	vmov.f32	s14, #112	@ 0x3f800000  1.0
 8004bc2:	ee37 7a87 	vadd.f32	s14, s15, s14
 8004bc6:	edd7 6a07 	vldr	s13, [r7, #28]
 8004bca:	eec6 7a87 	vdiv.f32	s15, s13, s14
 8004bce:	eefc 7ae7 	vcvt.u32.f32	s15, s15
 8004bd2:	ee17 2a90 	vmov	r2, s15
 8004bd6:	687b      	ldr	r3, [r7, #4]
 8004bd8:	601a      	str	r2, [r3, #0]
    PLL3_Clocks->PLL3_Q_Frequency = (uint32_t)(float_t)(pll3vco / ((float_t)(uint32_t)((RCC->PLL3DIVR & RCC_PLL3DIVR_Q3) >> 16) + (float_t)1)) ;
 8004bda:	4b1f      	ldr	r3, [pc, #124]	@ (8004c58 <HAL_RCCEx_GetPLL3ClockFreq+0x290>)
 8004bdc:	6c1b      	ldr	r3, [r3, #64]	@ 0x40
 8004bde:	0c1b      	lsrs	r3, r3, #16
 8004be0:	f003 037f 	and.w	r3, r3, #127	@ 0x7f
 8004be4:	ee07 3a90 	vmov	s15, r3
 8004be8:	eef8 7a67 	vcvt.f32.u32	s15, s15
 8004bec:	eeb7 7a00 	vmov.f32	s14, #112	@ 0x3f800000  1.0
 8004bf0:	ee37 7a87 	vadd.f32	s14, s15, s14
 8004bf4:	edd7 6a07 	vldr	s13, [r7, #28]
 8004bf8:	eec6 7a87 	vdiv.f32	s15, s13, s14
 8004bfc:	eefc 7ae7 	vcvt.u32.f32	s15, s15
 8004c00:	ee17 2a90 	vmov	r2, s15
 8004c04:	687b      	ldr	r3, [r7, #4]
 8004c06:	605a      	str	r2, [r3, #4]
    PLL3_Clocks->PLL3_R_Frequency = (uint32_t)(float_t)(pll3vco / ((float_t)(uint32_t)((RCC->PLL3DIVR & RCC_PLL3DIVR_R3) >> 24) + (float_t)1)) ;
 8004c08:	4b13      	ldr	r3, [pc, #76]	@ (8004c58 <HAL_RCCEx_GetPLL3ClockFreq+0x290>)
 8004c0a:	6c1b      	ldr	r3, [r3, #64]	@ 0x40
 8004c0c:	0e1b      	lsrs	r3, r3, #24
 8004c0e:	f003 037f 	and.w	r3, r3, #127	@ 0x7f
 8004c12:	ee07 3a90 	vmov	s15, r3
 8004c16:	eef8 7a67 	vcvt.f32.u32	s15, s15
 8004c1a:	eeb7 7a00 	vmov.f32	s14, #112	@ 0x3f800000  1.0
 8004c1e:	ee37 7a87 	vadd.f32	s14, s15, s14
 8004c22:	edd7 6a07 	vldr	s13, [r7, #28]
 8004c26:	eec6 7a87 	vdiv.f32	s15, s13, s14
 8004c2a:	eefc 7ae7 	vcvt.u32.f32	s15, s15
 8004c2e:	ee17 2a90 	vmov	r2, s15
 8004c32:	687b      	ldr	r3, [r7, #4]
 8004c34:	609a      	str	r2, [r3, #8]
    PLL3_Clocks->PLL3_P_Frequency = 0U;
    PLL3_Clocks->PLL3_Q_Frequency = 0U;
    PLL3_Clocks->PLL3_R_Frequency = 0U;
  }

}
 8004c36:	e008      	b.n	8004c4a <HAL_RCCEx_GetPLL3ClockFreq+0x282>
    PLL3_Clocks->PLL3_P_Frequency = 0U;
 8004c38:	687b      	ldr	r3, [r7, #4]
 8004c3a:	2200      	movs	r2, #0
 8004c3c:	601a      	str	r2, [r3, #0]
    PLL3_Clocks->PLL3_Q_Frequency = 0U;
 8004c3e:	687b      	ldr	r3, [r7, #4]
 8004c40:	2200      	movs	r2, #0
 8004c42:	605a      	str	r2, [r3, #4]
    PLL3_Clocks->PLL3_R_Frequency = 0U;
 8004c44:	687b      	ldr	r3, [r7, #4]
 8004c46:	2200      	movs	r2, #0
 8004c48:	609a      	str	r2, [r3, #8]
}
 8004c4a:	bf00      	nop
 8004c4c:	3724      	adds	r7, #36	@ 0x24
 8004c4e:	46bd      	mov	sp, r7
 8004c50:	f85d 7b04 	ldr.w	r7, [sp], #4
 8004c54:	4770      	bx	lr
 8004c56:	bf00      	nop
 8004c58:	58024400 	.word	0x58024400
 8004c5c:	03d09000 	.word	0x03d09000
 8004c60:	46000000 	.word	0x46000000
 8004c64:	4c742400 	.word	0x4c742400
 8004c68:	4a742400 	.word	0x4a742400
 8004c6c:	4af42400 	.word	0x4af42400

08004c70 <RCCEx_PLL2_Config>:
  * @note   PLL2 is temporary disabled to apply new parameters
  *
  * @retval HAL status
  */
static HAL_StatusTypeDef RCCEx_PLL2_Config(const RCC_PLL2InitTypeDef *pll2, uint32_t Divider)
{
 8004c70:	b580      	push	{r7, lr}
 8004c72:	b084      	sub	sp, #16
 8004c74:	af00      	add	r7, sp, #0
 8004c76:	6078      	str	r0, [r7, #4]
 8004c78:	6039      	str	r1, [r7, #0]

  uint32_t tickstart;
  HAL_StatusTypeDef status = HAL_OK;
 8004c7a:	2300      	movs	r3, #0
 8004c7c:	73fb      	strb	r3, [r7, #15]
  assert_param(IS_RCC_PLL2RGE_VALUE(pll2->PLL2RGE));
  assert_param(IS_RCC_PLL2VCO_VALUE(pll2->PLL2VCOSEL));
  assert_param(IS_RCC_PLLFRACN_VALUE(pll2->PLL2FRACN));

  /* Check that PLL2 OSC clock source is already set */
  if (__HAL_RCC_GET_PLL_OSCSOURCE() == RCC_PLLSOURCE_NONE)
 8004c7e:	4b53      	ldr	r3, [pc, #332]	@ (8004dcc <RCCEx_PLL2_Config+0x15c>)
 8004c80:	6a9b      	ldr	r3, [r3, #40]	@ 0x28
 8004c82:	f003 0303 	and.w	r3, r3, #3
 8004c86:	2b03      	cmp	r3, #3
 8004c88:	d101      	bne.n	8004c8e <RCCEx_PLL2_Config+0x1e>
  {
    return HAL_ERROR;
 8004c8a:	2301      	movs	r3, #1
 8004c8c:	e099      	b.n	8004dc2 <RCCEx_PLL2_Config+0x152>


  else
  {
    /* Disable  PLL2. */
    __HAL_RCC_PLL2_DISABLE();
 8004c8e:	4b4f      	ldr	r3, [pc, #316]	@ (8004dcc <RCCEx_PLL2_Config+0x15c>)
 8004c90:	681b      	ldr	r3, [r3, #0]
 8004c92:	4a4e      	ldr	r2, [pc, #312]	@ (8004dcc <RCCEx_PLL2_Config+0x15c>)
 8004c94:	f023 6380 	bic.w	r3, r3, #67108864	@ 0x4000000
 8004c98:	6013      	str	r3, [r2, #0]

    /* Get Start Tick*/
    tickstart = HAL_GetTick();
 8004c9a:	f7fc fa5d 	bl	8001158 <HAL_GetTick>
 8004c9e:	60b8      	str	r0, [r7, #8]

    /* Wait till PLL is disabled */
    while (__HAL_RCC_GET_FLAG(RCC_FLAG_PLL2RDY) != 0U)
 8004ca0:	e008      	b.n	8004cb4 <RCCEx_PLL2_Config+0x44>
    {
      if ((HAL_GetTick() - tickstart) > PLL2_TIMEOUT_VALUE)
 8004ca2:	f7fc fa59 	bl	8001158 <HAL_GetTick>
 8004ca6:	4602      	mov	r2, r0
 8004ca8:	68bb      	ldr	r3, [r7, #8]
 8004caa:	1ad3      	subs	r3, r2, r3
 8004cac:	2b02      	cmp	r3, #2
 8004cae:	d901      	bls.n	8004cb4 <RCCEx_PLL2_Config+0x44>
      {
        return HAL_TIMEOUT;
 8004cb0:	2303      	movs	r3, #3
 8004cb2:	e086      	b.n	8004dc2 <RCCEx_PLL2_Config+0x152>
    while (__HAL_RCC_GET_FLAG(RCC_FLAG_PLL2RDY) != 0U)
 8004cb4:	4b45      	ldr	r3, [pc, #276]	@ (8004dcc <RCCEx_PLL2_Config+0x15c>)
 8004cb6:	681b      	ldr	r3, [r3, #0]
 8004cb8:	f003 6300 	and.w	r3, r3, #134217728	@ 0x8000000
 8004cbc:	2b00      	cmp	r3, #0
 8004cbe:	d1f0      	bne.n	8004ca2 <RCCEx_PLL2_Config+0x32>
      }
    }

    /* Configure PLL2 multiplication and division factors. */
    __HAL_RCC_PLL2_CONFIG(pll2->PLL2M,
 8004cc0:	4b42      	ldr	r3, [pc, #264]	@ (8004dcc <RCCEx_PLL2_Config+0x15c>)
 8004cc2:	6a9b      	ldr	r3, [r3, #40]	@ 0x28
 8004cc4:	f423 327c 	bic.w	r2, r3, #258048	@ 0x3f000
 8004cc8:	687b      	ldr	r3, [r7, #4]
 8004cca:	681b      	ldr	r3, [r3, #0]
 8004ccc:	031b      	lsls	r3, r3, #12
 8004cce:	493f      	ldr	r1, [pc, #252]	@ (8004dcc <RCCEx_PLL2_Config+0x15c>)
 8004cd0:	4313      	orrs	r3, r2
 8004cd2:	628b      	str	r3, [r1, #40]	@ 0x28
 8004cd4:	687b      	ldr	r3, [r7, #4]
 8004cd6:	685b      	ldr	r3, [r3, #4]
 8004cd8:	3b01      	subs	r3, #1
 8004cda:	f3c3 0208 	ubfx	r2, r3, #0, #9
 8004cde:	687b      	ldr	r3, [r7, #4]
 8004ce0:	689b      	ldr	r3, [r3, #8]
 8004ce2:	3b01      	subs	r3, #1
 8004ce4:	025b      	lsls	r3, r3, #9
 8004ce6:	b29b      	uxth	r3, r3
 8004ce8:	431a      	orrs	r2, r3
 8004cea:	687b      	ldr	r3, [r7, #4]
 8004cec:	68db      	ldr	r3, [r3, #12]
 8004cee:	3b01      	subs	r3, #1
 8004cf0:	041b      	lsls	r3, r3, #16
 8004cf2:	f403 03fe 	and.w	r3, r3, #8323072	@ 0x7f0000
 8004cf6:	431a      	orrs	r2, r3
 8004cf8:	687b      	ldr	r3, [r7, #4]
 8004cfa:	691b      	ldr	r3, [r3, #16]
 8004cfc:	3b01      	subs	r3, #1
 8004cfe:	061b      	lsls	r3, r3, #24
 8004d00:	f003 43fe 	and.w	r3, r3, #2130706432	@ 0x7f000000
 8004d04:	4931      	ldr	r1, [pc, #196]	@ (8004dcc <RCCEx_PLL2_Config+0x15c>)
 8004d06:	4313      	orrs	r3, r2
 8004d08:	638b      	str	r3, [r1, #56]	@ 0x38
                          pll2->PLL2P,
                          pll2->PLL2Q,
                          pll2->PLL2R);

    /* Select PLL2 input reference frequency range: VCI */
    __HAL_RCC_PLL2_VCIRANGE(pll2->PLL2RGE) ;
 8004d0a:	4b30      	ldr	r3, [pc, #192]	@ (8004dcc <RCCEx_PLL2_Config+0x15c>)
 8004d0c:	6adb      	ldr	r3, [r3, #44]	@ 0x2c
 8004d0e:	f023 02c0 	bic.w	r2, r3, #192	@ 0xc0
 8004d12:	687b      	ldr	r3, [r7, #4]
 8004d14:	695b      	ldr	r3, [r3, #20]
 8004d16:	492d      	ldr	r1, [pc, #180]	@ (8004dcc <RCCEx_PLL2_Config+0x15c>)
 8004d18:	4313      	orrs	r3, r2
 8004d1a:	62cb      	str	r3, [r1, #44]	@ 0x2c

    /* Select PLL2 output frequency range : VCO */
    __HAL_RCC_PLL2_VCORANGE(pll2->PLL2VCOSEL) ;
 8004d1c:	4b2b      	ldr	r3, [pc, #172]	@ (8004dcc <RCCEx_PLL2_Config+0x15c>)
 8004d1e:	6adb      	ldr	r3, [r3, #44]	@ 0x2c
 8004d20:	f023 0220 	bic.w	r2, r3, #32
 8004d24:	687b      	ldr	r3, [r7, #4]
 8004d26:	699b      	ldr	r3, [r3, #24]
 8004d28:	4928      	ldr	r1, [pc, #160]	@ (8004dcc <RCCEx_PLL2_Config+0x15c>)
 8004d2a:	4313      	orrs	r3, r2
 8004d2c:	62cb      	str	r3, [r1, #44]	@ 0x2c

    /* Disable PLL2FRACN . */
    __HAL_RCC_PLL2FRACN_DISABLE();
 8004d2e:	4b27      	ldr	r3, [pc, #156]	@ (8004dcc <RCCEx_PLL2_Config+0x15c>)
 8004d30:	6adb      	ldr	r3, [r3, #44]	@ 0x2c
 8004d32:	4a26      	ldr	r2, [pc, #152]	@ (8004dcc <RCCEx_PLL2_Config+0x15c>)
 8004d34:	f023 0310 	bic.w	r3, r3, #16
 8004d38:	62d3      	str	r3, [r2, #44]	@ 0x2c

    /* Configures PLL2 clock Fractional Part Of The Multiplication Factor */
    __HAL_RCC_PLL2FRACN_CONFIG(pll2->PLL2FRACN);
 8004d3a:	4b24      	ldr	r3, [pc, #144]	@ (8004dcc <RCCEx_PLL2_Config+0x15c>)
 8004d3c:	6bda      	ldr	r2, [r3, #60]	@ 0x3c
 8004d3e:	4b24      	ldr	r3, [pc, #144]	@ (8004dd0 <RCCEx_PLL2_Config+0x160>)
 8004d40:	4013      	ands	r3, r2
 8004d42:	687a      	ldr	r2, [r7, #4]
 8004d44:	69d2      	ldr	r2, [r2, #28]
 8004d46:	00d2      	lsls	r2, r2, #3
 8004d48:	4920      	ldr	r1, [pc, #128]	@ (8004dcc <RCCEx_PLL2_Config+0x15c>)
 8004d4a:	4313      	orrs	r3, r2
 8004d4c:	63cb      	str	r3, [r1, #60]	@ 0x3c

    /* Enable PLL2FRACN . */
    __HAL_RCC_PLL2FRACN_ENABLE();
 8004d4e:	4b1f      	ldr	r3, [pc, #124]	@ (8004dcc <RCCEx_PLL2_Config+0x15c>)
 8004d50:	6adb      	ldr	r3, [r3, #44]	@ 0x2c
 8004d52:	4a1e      	ldr	r2, [pc, #120]	@ (8004dcc <RCCEx_PLL2_Config+0x15c>)
 8004d54:	f043 0310 	orr.w	r3, r3, #16
 8004d58:	62d3      	str	r3, [r2, #44]	@ 0x2c

    /* Enable the PLL2 clock output */
    if (Divider == DIVIDER_P_UPDATE)
 8004d5a:	683b      	ldr	r3, [r7, #0]
 8004d5c:	2b00      	cmp	r3, #0
 8004d5e:	d106      	bne.n	8004d6e <RCCEx_PLL2_Config+0xfe>
    {
      __HAL_RCC_PLL2CLKOUT_ENABLE(RCC_PLL2_DIVP);
 8004d60:	4b1a      	ldr	r3, [pc, #104]	@ (8004dcc <RCCEx_PLL2_Config+0x15c>)
 8004d62:	6adb      	ldr	r3, [r3, #44]	@ 0x2c
 8004d64:	4a19      	ldr	r2, [pc, #100]	@ (8004dcc <RCCEx_PLL2_Config+0x15c>)
 8004d66:	f443 2300 	orr.w	r3, r3, #524288	@ 0x80000
 8004d6a:	62d3      	str	r3, [r2, #44]	@ 0x2c
 8004d6c:	e00f      	b.n	8004d8e <RCCEx_PLL2_Config+0x11e>
    }
    else if (Divider == DIVIDER_Q_UPDATE)
 8004d6e:	683b      	ldr	r3, [r7, #0]
 8004d70:	2b01      	cmp	r3, #1
 8004d72:	d106      	bne.n	8004d82 <RCCEx_PLL2_Config+0x112>
    {
      __HAL_RCC_PLL2CLKOUT_ENABLE(RCC_PLL2_DIVQ);
 8004d74:	4b15      	ldr	r3, [pc, #84]	@ (8004dcc <RCCEx_PLL2_Config+0x15c>)
 8004d76:	6adb      	ldr	r3, [r3, #44]	@ 0x2c
 8004d78:	4a14      	ldr	r2, [pc, #80]	@ (8004dcc <RCCEx_PLL2_Config+0x15c>)
 8004d7a:	f443 1380 	orr.w	r3, r3, #1048576	@ 0x100000
 8004d7e:	62d3      	str	r3, [r2, #44]	@ 0x2c
 8004d80:	e005      	b.n	8004d8e <RCCEx_PLL2_Config+0x11e>
    }
    else
    {
      __HAL_RCC_PLL2CLKOUT_ENABLE(RCC_PLL2_DIVR);
 8004d82:	4b12      	ldr	r3, [pc, #72]	@ (8004dcc <RCCEx_PLL2_Config+0x15c>)
 8004d84:	6adb      	ldr	r3, [r3, #44]	@ 0x2c
 8004d86:	4a11      	ldr	r2, [pc, #68]	@ (8004dcc <RCCEx_PLL2_Config+0x15c>)
 8004d88:	f443 1300 	orr.w	r3, r3, #2097152	@ 0x200000
 8004d8c:	62d3      	str	r3, [r2, #44]	@ 0x2c
    }

    /* Enable  PLL2. */
    __HAL_RCC_PLL2_ENABLE();
 8004d8e:	4b0f      	ldr	r3, [pc, #60]	@ (8004dcc <RCCEx_PLL2_Config+0x15c>)
 8004d90:	681b      	ldr	r3, [r3, #0]
 8004d92:	4a0e      	ldr	r2, [pc, #56]	@ (8004dcc <RCCEx_PLL2_Config+0x15c>)
 8004d94:	f043 6380 	orr.w	r3, r3, #67108864	@ 0x4000000
 8004d98:	6013      	str	r3, [r2, #0]

    /* Get Start Tick*/
    tickstart = HAL_GetTick();
 8004d9a:	f7fc f9dd 	bl	8001158 <HAL_GetTick>
 8004d9e:	60b8      	str	r0, [r7, #8]

    /* Wait till PLL2 is ready */
    while (__HAL_RCC_GET_FLAG(RCC_FLAG_PLL2RDY) == 0U)
 8004da0:	e008      	b.n	8004db4 <RCCEx_PLL2_Config+0x144>
    {
      if ((HAL_GetTick() - tickstart) > PLL2_TIMEOUT_VALUE)
 8004da2:	f7fc f9d9 	bl	8001158 <HAL_GetTick>
 8004da6:	4602      	mov	r2, r0
 8004da8:	68bb      	ldr	r3, [r7, #8]
 8004daa:	1ad3      	subs	r3, r2, r3
 8004dac:	2b02      	cmp	r3, #2
 8004dae:	d901      	bls.n	8004db4 <RCCEx_PLL2_Config+0x144>
      {
        return HAL_TIMEOUT;
 8004db0:	2303      	movs	r3, #3
 8004db2:	e006      	b.n	8004dc2 <RCCEx_PLL2_Config+0x152>
    while (__HAL_RCC_GET_FLAG(RCC_FLAG_PLL2RDY) == 0U)
 8004db4:	4b05      	ldr	r3, [pc, #20]	@ (8004dcc <RCCEx_PLL2_Config+0x15c>)
 8004db6:	681b      	ldr	r3, [r3, #0]
 8004db8:	f003 6300 	and.w	r3, r3, #134217728	@ 0x8000000
 8004dbc:	2b00      	cmp	r3, #0
 8004dbe:	d0f0      	beq.n	8004da2 <RCCEx_PLL2_Config+0x132>
    }

  }


  return status;
 8004dc0:	7bfb      	ldrb	r3, [r7, #15]
}
 8004dc2:	4618      	mov	r0, r3
 8004dc4:	3710      	adds	r7, #16
 8004dc6:	46bd      	mov	sp, r7
 8004dc8:	bd80      	pop	{r7, pc}
 8004dca:	bf00      	nop
 8004dcc:	58024400 	.word	0x58024400
 8004dd0:	ffff0007 	.word	0xffff0007

08004dd4 <RCCEx_PLL3_Config>:
  * @note   PLL3 is temporary disabled to apply new parameters
  *
  * @retval HAL status
  */
static HAL_StatusTypeDef RCCEx_PLL3_Config(const RCC_PLL3InitTypeDef *pll3, uint32_t Divider)
{
 8004dd4:	b580      	push	{r7, lr}
 8004dd6:	b084      	sub	sp, #16
 8004dd8:	af00      	add	r7, sp, #0
 8004dda:	6078      	str	r0, [r7, #4]
 8004ddc:	6039      	str	r1, [r7, #0]
  uint32_t tickstart;
  HAL_StatusTypeDef status = HAL_OK;
 8004dde:	2300      	movs	r3, #0
 8004de0:	73fb      	strb	r3, [r7, #15]
  assert_param(IS_RCC_PLL3RGE_VALUE(pll3->PLL3RGE));
  assert_param(IS_RCC_PLL3VCO_VALUE(pll3->PLL3VCOSEL));
  assert_param(IS_RCC_PLLFRACN_VALUE(pll3->PLL3FRACN));

  /* Check that PLL3 OSC clock source is already set */
  if (__HAL_RCC_GET_PLL_OSCSOURCE() == RCC_PLLSOURCE_NONE)
 8004de2:	4b53      	ldr	r3, [pc, #332]	@ (8004f30 <RCCEx_PLL3_Config+0x15c>)
 8004de4:	6a9b      	ldr	r3, [r3, #40]	@ 0x28
 8004de6:	f003 0303 	and.w	r3, r3, #3
 8004dea:	2b03      	cmp	r3, #3
 8004dec:	d101      	bne.n	8004df2 <RCCEx_PLL3_Config+0x1e>
  {
    return HAL_ERROR;
 8004dee:	2301      	movs	r3, #1
 8004df0:	e099      	b.n	8004f26 <RCCEx_PLL3_Config+0x152>


  else
  {
    /* Disable  PLL3. */
    __HAL_RCC_PLL3_DISABLE();
 8004df2:	4b4f      	ldr	r3, [pc, #316]	@ (8004f30 <RCCEx_PLL3_Config+0x15c>)
 8004df4:	681b      	ldr	r3, [r3, #0]
 8004df6:	4a4e      	ldr	r2, [pc, #312]	@ (8004f30 <RCCEx_PLL3_Config+0x15c>)
 8004df8:	f023 5380 	bic.w	r3, r3, #268435456	@ 0x10000000
 8004dfc:	6013      	str	r3, [r2, #0]

    /* Get Start Tick*/
    tickstart = HAL_GetTick();
 8004dfe:	f7fc f9ab 	bl	8001158 <HAL_GetTick>
 8004e02:	60b8      	str	r0, [r7, #8]
    /* Wait till PLL3 is ready */
    while (__HAL_RCC_GET_FLAG(RCC_FLAG_PLL3RDY) != 0U)
 8004e04:	e008      	b.n	8004e18 <RCCEx_PLL3_Config+0x44>
    {
      if ((HAL_GetTick() - tickstart) > PLL3_TIMEOUT_VALUE)
 8004e06:	f7fc f9a7 	bl	8001158 <HAL_GetTick>
 8004e0a:	4602      	mov	r2, r0
 8004e0c:	68bb      	ldr	r3, [r7, #8]
 8004e0e:	1ad3      	subs	r3, r2, r3
 8004e10:	2b02      	cmp	r3, #2
 8004e12:	d901      	bls.n	8004e18 <RCCEx_PLL3_Config+0x44>
      {
        return HAL_TIMEOUT;
 8004e14:	2303      	movs	r3, #3
 8004e16:	e086      	b.n	8004f26 <RCCEx_PLL3_Config+0x152>
    while (__HAL_RCC_GET_FLAG(RCC_FLAG_PLL3RDY) != 0U)
 8004e18:	4b45      	ldr	r3, [pc, #276]	@ (8004f30 <RCCEx_PLL3_Config+0x15c>)
 8004e1a:	681b      	ldr	r3, [r3, #0]
 8004e1c:	f003 5300 	and.w	r3, r3, #536870912	@ 0x20000000
 8004e20:	2b00      	cmp	r3, #0
 8004e22:	d1f0      	bne.n	8004e06 <RCCEx_PLL3_Config+0x32>
      }
    }

    /* Configure the PLL3  multiplication and division factors. */
    __HAL_RCC_PLL3_CONFIG(pll3->PLL3M,
 8004e24:	4b42      	ldr	r3, [pc, #264]	@ (8004f30 <RCCEx_PLL3_Config+0x15c>)
 8004e26:	6a9b      	ldr	r3, [r3, #40]	@ 0x28
 8004e28:	f023 727c 	bic.w	r2, r3, #66060288	@ 0x3f00000
 8004e2c:	687b      	ldr	r3, [r7, #4]
 8004e2e:	681b      	ldr	r3, [r3, #0]
 8004e30:	051b      	lsls	r3, r3, #20
 8004e32:	493f      	ldr	r1, [pc, #252]	@ (8004f30 <RCCEx_PLL3_Config+0x15c>)
 8004e34:	4313      	orrs	r3, r2
 8004e36:	628b      	str	r3, [r1, #40]	@ 0x28
 8004e38:	687b      	ldr	r3, [r7, #4]
 8004e3a:	685b      	ldr	r3, [r3, #4]
 8004e3c:	3b01      	subs	r3, #1
 8004e3e:	f3c3 0208 	ubfx	r2, r3, #0, #9
 8004e42:	687b      	ldr	r3, [r7, #4]
 8004e44:	689b      	ldr	r3, [r3, #8]
 8004e46:	3b01      	subs	r3, #1
 8004e48:	025b      	lsls	r3, r3, #9
 8004e4a:	b29b      	uxth	r3, r3
 8004e4c:	431a      	orrs	r2, r3
 8004e4e:	687b      	ldr	r3, [r7, #4]
 8004e50:	68db      	ldr	r3, [r3, #12]
 8004e52:	3b01      	subs	r3, #1
 8004e54:	041b      	lsls	r3, r3, #16
 8004e56:	f403 03fe 	and.w	r3, r3, #8323072	@ 0x7f0000
 8004e5a:	431a      	orrs	r2, r3
 8004e5c:	687b      	ldr	r3, [r7, #4]
 8004e5e:	691b      	ldr	r3, [r3, #16]
 8004e60:	3b01      	subs	r3, #1
 8004e62:	061b      	lsls	r3, r3, #24
 8004e64:	f003 43fe 	and.w	r3, r3, #2130706432	@ 0x7f000000
 8004e68:	4931      	ldr	r1, [pc, #196]	@ (8004f30 <RCCEx_PLL3_Config+0x15c>)
 8004e6a:	4313      	orrs	r3, r2
 8004e6c:	640b      	str	r3, [r1, #64]	@ 0x40
                          pll3->PLL3P,
                          pll3->PLL3Q,
                          pll3->PLL3R);

    /* Select PLL3 input reference frequency range: VCI */
    __HAL_RCC_PLL3_VCIRANGE(pll3->PLL3RGE) ;
 8004e6e:	4b30      	ldr	r3, [pc, #192]	@ (8004f30 <RCCEx_PLL3_Config+0x15c>)
 8004e70:	6adb      	ldr	r3, [r3, #44]	@ 0x2c
 8004e72:	f423 6240 	bic.w	r2, r3, #3072	@ 0xc00
 8004e76:	687b      	ldr	r3, [r7, #4]
 8004e78:	695b      	ldr	r3, [r3, #20]
 8004e7a:	492d      	ldr	r1, [pc, #180]	@ (8004f30 <RCCEx_PLL3_Config+0x15c>)
 8004e7c:	4313      	orrs	r3, r2
 8004e7e:	62cb      	str	r3, [r1, #44]	@ 0x2c

    /* Select PLL3 output frequency range : VCO */
    __HAL_RCC_PLL3_VCORANGE(pll3->PLL3VCOSEL) ;
 8004e80:	4b2b      	ldr	r3, [pc, #172]	@ (8004f30 <RCCEx_PLL3_Config+0x15c>)
 8004e82:	6adb      	ldr	r3, [r3, #44]	@ 0x2c
 8004e84:	f423 7200 	bic.w	r2, r3, #512	@ 0x200
 8004e88:	687b      	ldr	r3, [r7, #4]
 8004e8a:	699b      	ldr	r3, [r3, #24]
 8004e8c:	4928      	ldr	r1, [pc, #160]	@ (8004f30 <RCCEx_PLL3_Config+0x15c>)
 8004e8e:	4313      	orrs	r3, r2
 8004e90:	62cb      	str	r3, [r1, #44]	@ 0x2c

    /* Disable PLL3FRACN . */
    __HAL_RCC_PLL3FRACN_DISABLE();
 8004e92:	4b27      	ldr	r3, [pc, #156]	@ (8004f30 <RCCEx_PLL3_Config+0x15c>)
 8004e94:	6adb      	ldr	r3, [r3, #44]	@ 0x2c
 8004e96:	4a26      	ldr	r2, [pc, #152]	@ (8004f30 <RCCEx_PLL3_Config+0x15c>)
 8004e98:	f423 7380 	bic.w	r3, r3, #256	@ 0x100
 8004e9c:	62d3      	str	r3, [r2, #44]	@ 0x2c

    /* Configures PLL3 clock Fractional Part Of The Multiplication Factor */
    __HAL_RCC_PLL3FRACN_CONFIG(pll3->PLL3FRACN);
 8004e9e:	4b24      	ldr	r3, [pc, #144]	@ (8004f30 <RCCEx_PLL3_Config+0x15c>)
 8004ea0:	6c5a      	ldr	r2, [r3, #68]	@ 0x44
 8004ea2:	4b24      	ldr	r3, [pc, #144]	@ (8004f34 <RCCEx_PLL3_Config+0x160>)
 8004ea4:	4013      	ands	r3, r2
 8004ea6:	687a      	ldr	r2, [r7, #4]
 8004ea8:	69d2      	ldr	r2, [r2, #28]
 8004eaa:	00d2      	lsls	r2, r2, #3
 8004eac:	4920      	ldr	r1, [pc, #128]	@ (8004f30 <RCCEx_PLL3_Config+0x15c>)
 8004eae:	4313      	orrs	r3, r2
 8004eb0:	644b      	str	r3, [r1, #68]	@ 0x44

    /* Enable PLL3FRACN . */
    __HAL_RCC_PLL3FRACN_ENABLE();
 8004eb2:	4b1f      	ldr	r3, [pc, #124]	@ (8004f30 <RCCEx_PLL3_Config+0x15c>)
 8004eb4:	6adb      	ldr	r3, [r3, #44]	@ 0x2c
 8004eb6:	4a1e      	ldr	r2, [pc, #120]	@ (8004f30 <RCCEx_PLL3_Config+0x15c>)
 8004eb8:	f443 7380 	orr.w	r3, r3, #256	@ 0x100
 8004ebc:	62d3      	str	r3, [r2, #44]	@ 0x2c

    /* Enable the PLL3 clock output */
    if (Divider == DIVIDER_P_UPDATE)
 8004ebe:	683b      	ldr	r3, [r7, #0]
 8004ec0:	2b00      	cmp	r3, #0
 8004ec2:	d106      	bne.n	8004ed2 <RCCEx_PLL3_Config+0xfe>
    {
      __HAL_RCC_PLL3CLKOUT_ENABLE(RCC_PLL3_DIVP);
 8004ec4:	4b1a      	ldr	r3, [pc, #104]	@ (8004f30 <RCCEx_PLL3_Config+0x15c>)
 8004ec6:	6adb      	ldr	r3, [r3, #44]	@ 0x2c
 8004ec8:	4a19      	ldr	r2, [pc, #100]	@ (8004f30 <RCCEx_PLL3_Config+0x15c>)
 8004eca:	f443 0380 	orr.w	r3, r3, #4194304	@ 0x400000
 8004ece:	62d3      	str	r3, [r2, #44]	@ 0x2c
 8004ed0:	e00f      	b.n	8004ef2 <RCCEx_PLL3_Config+0x11e>
    }
    else if (Divider == DIVIDER_Q_UPDATE)
 8004ed2:	683b      	ldr	r3, [r7, #0]
 8004ed4:	2b01      	cmp	r3, #1
 8004ed6:	d106      	bne.n	8004ee6 <RCCEx_PLL3_Config+0x112>
    {
      __HAL_RCC_PLL3CLKOUT_ENABLE(RCC_PLL3_DIVQ);
 8004ed8:	4b15      	ldr	r3, [pc, #84]	@ (8004f30 <RCCEx_PLL3_Config+0x15c>)
 8004eda:	6adb      	ldr	r3, [r3, #44]	@ 0x2c
 8004edc:	4a14      	ldr	r2, [pc, #80]	@ (8004f30 <RCCEx_PLL3_Config+0x15c>)
 8004ede:	f443 0300 	orr.w	r3, r3, #8388608	@ 0x800000
 8004ee2:	62d3      	str	r3, [r2, #44]	@ 0x2c
 8004ee4:	e005      	b.n	8004ef2 <RCCEx_PLL3_Config+0x11e>
    }
    else
    {
      __HAL_RCC_PLL3CLKOUT_ENABLE(RCC_PLL3_DIVR);
 8004ee6:	4b12      	ldr	r3, [pc, #72]	@ (8004f30 <RCCEx_PLL3_Config+0x15c>)
 8004ee8:	6adb      	ldr	r3, [r3, #44]	@ 0x2c
 8004eea:	4a11      	ldr	r2, [pc, #68]	@ (8004f30 <RCCEx_PLL3_Config+0x15c>)
 8004eec:	f043 7380 	orr.w	r3, r3, #16777216	@ 0x1000000
 8004ef0:	62d3      	str	r3, [r2, #44]	@ 0x2c
    }

    /* Enable  PLL3. */
    __HAL_RCC_PLL3_ENABLE();
 8004ef2:	4b0f      	ldr	r3, [pc, #60]	@ (8004f30 <RCCEx_PLL3_Config+0x15c>)
 8004ef4:	681b      	ldr	r3, [r3, #0]
 8004ef6:	4a0e      	ldr	r2, [pc, #56]	@ (8004f30 <RCCEx_PLL3_Config+0x15c>)
 8004ef8:	f043 5380 	orr.w	r3, r3, #268435456	@ 0x10000000
 8004efc:	6013      	str	r3, [r2, #0]

    /* Get Start Tick*/
    tickstart = HAL_GetTick();
 8004efe:	f7fc f92b 	bl	8001158 <HAL_GetTick>
 8004f02:	60b8      	str	r0, [r7, #8]

    /* Wait till PLL3 is ready */
    while (__HAL_RCC_GET_FLAG(RCC_FLAG_PLL3RDY) == 0U)
 8004f04:	e008      	b.n	8004f18 <RCCEx_PLL3_Config+0x144>
    {
      if ((HAL_GetTick() - tickstart) > PLL3_TIMEOUT_VALUE)
 8004f06:	f7fc f927 	bl	8001158 <HAL_GetTick>
 8004f0a:	4602      	mov	r2, r0
 8004f0c:	68bb      	ldr	r3, [r7, #8]
 8004f0e:	1ad3      	subs	r3, r2, r3
 8004f10:	2b02      	cmp	r3, #2
 8004f12:	d901      	bls.n	8004f18 <RCCEx_PLL3_Config+0x144>
      {
        return HAL_TIMEOUT;
 8004f14:	2303      	movs	r3, #3
 8004f16:	e006      	b.n	8004f26 <RCCEx_PLL3_Config+0x152>
    while (__HAL_RCC_GET_FLAG(RCC_FLAG_PLL3RDY) == 0U)
 8004f18:	4b05      	ldr	r3, [pc, #20]	@ (8004f30 <RCCEx_PLL3_Config+0x15c>)
 8004f1a:	681b      	ldr	r3, [r3, #0]
 8004f1c:	f003 5300 	and.w	r3, r3, #536870912	@ 0x20000000
 8004f20:	2b00      	cmp	r3, #0
 8004f22:	d0f0      	beq.n	8004f06 <RCCEx_PLL3_Config+0x132>
    }

  }


  return status;
 8004f24:	7bfb      	ldrb	r3, [r7, #15]
}
 8004f26:	4618      	mov	r0, r3
 8004f28:	3710      	adds	r7, #16
 8004f2a:	46bd      	mov	sp, r7
 8004f2c:	bd80      	pop	{r7, pc}
 8004f2e:	bf00      	nop
 8004f30:	58024400 	.word	0x58024400
 8004f34:	ffff0007 	.word	0xffff0007

08004f38 <HAL_UART_Init>:
  *        parameters in the UART_InitTypeDef and initialize the associated handle.
  * @param huart UART handle.
  * @retval HAL status
  */
HAL_StatusTypeDef HAL_UART_Init(UART_HandleTypeDef *huart)
{
 8004f38:	b580      	push	{r7, lr}
 8004f3a:	b082      	sub	sp, #8
 8004f3c:	af00      	add	r7, sp, #0
 8004f3e:	6078      	str	r0, [r7, #4]
  /* Check the UART handle allocation */
  if (huart == NULL)
 8004f40:	687b      	ldr	r3, [r7, #4]
 8004f42:	2b00      	cmp	r3, #0
 8004f44:	d101      	bne.n	8004f4a <HAL_UART_Init+0x12>
  {
    return HAL_ERROR;
 8004f46:	2301      	movs	r3, #1
 8004f48:	e042      	b.n	8004fd0 <HAL_UART_Init+0x98>
  {
    /* Check the parameters */
    assert_param((IS_UART_INSTANCE(huart->Instance)) || (IS_LPUART_INSTANCE(huart->Instance)));
  }

  if (huart->gState == HAL_UART_STATE_RESET)
 8004f4a:	687b      	ldr	r3, [r7, #4]
 8004f4c:	f8d3 3088 	ldr.w	r3, [r3, #136]	@ 0x88
 8004f50:	2b00      	cmp	r3, #0
 8004f52:	d106      	bne.n	8004f62 <HAL_UART_Init+0x2a>
  {
    /* Allocate lock resource and initialize it */
    huart->Lock = HAL_UNLOCKED;
 8004f54:	687b      	ldr	r3, [r7, #4]
 8004f56:	2200      	movs	r2, #0
 8004f58:	f883 2084 	strb.w	r2, [r3, #132]	@ 0x84

    /* Init the low level hardware */
    huart->MspInitCallback(huart);
#else
    /* Init the low level hardware : GPIO, CLOCK */
    HAL_UART_MspInit(huart);
 8004f5c:	6878      	ldr	r0, [r7, #4]
 8004f5e:	f000 f83b 	bl	8004fd8 <HAL_UART_MspInit>
#endif /* (USE_HAL_UART_REGISTER_CALLBACKS) */
  }

  huart->gState = HAL_UART_STATE_BUSY;
 8004f62:	687b      	ldr	r3, [r7, #4]
 8004f64:	2224      	movs	r2, #36	@ 0x24
 8004f66:	f8c3 2088 	str.w	r2, [r3, #136]	@ 0x88

  __HAL_UART_DISABLE(huart);
 8004f6a:	687b      	ldr	r3, [r7, #4]
 8004f6c:	681b      	ldr	r3, [r3, #0]
 8004f6e:	681a      	ldr	r2, [r3, #0]
 8004f70:	687b      	ldr	r3, [r7, #4]
 8004f72:	681b      	ldr	r3, [r3, #0]
 8004f74:	f022 0201 	bic.w	r2, r2, #1
 8004f78:	601a      	str	r2, [r3, #0]

  /* Perform advanced settings configuration */
  /* For some items, configuration requires to be done prior TE and RE bits are set */
  if (huart->AdvancedInit.AdvFeatureInit != UART_ADVFEATURE_NO_INIT)
 8004f7a:	687b      	ldr	r3, [r7, #4]
 8004f7c:	6a9b      	ldr	r3, [r3, #40]	@ 0x28
 8004f7e:	2b00      	cmp	r3, #0
 8004f80:	d002      	beq.n	8004f88 <HAL_UART_Init+0x50>
  {
    UART_AdvFeatureConfig(huart);
 8004f82:	6878      	ldr	r0, [r7, #4]
 8004f84:	f000 fe9e 	bl	8005cc4 <UART_AdvFeatureConfig>
  }

  /* Set the UART Communication parameters */
  if (UART_SetConfig(huart) == HAL_ERROR)
 8004f88:	6878      	ldr	r0, [r7, #4]
 8004f8a:	f000 f82f 	bl	8004fec <UART_SetConfig>
 8004f8e:	4603      	mov	r3, r0
 8004f90:	2b01      	cmp	r3, #1
 8004f92:	d101      	bne.n	8004f98 <HAL_UART_Init+0x60>
  {
    return HAL_ERROR;
 8004f94:	2301      	movs	r3, #1
 8004f96:	e01b      	b.n	8004fd0 <HAL_UART_Init+0x98>
  }

  /* In asynchronous mode, the following bits must be kept cleared:
  - LINEN and CLKEN bits in the USART_CR2 register,
  - SCEN, HDSEL and IREN  bits in the USART_CR3 register.*/
  CLEAR_BIT(huart->Instance->CR2, (USART_CR2_LINEN | USART_CR2_CLKEN));
 8004f98:	687b      	ldr	r3, [r7, #4]
 8004f9a:	681b      	ldr	r3, [r3, #0]
 8004f9c:	685a      	ldr	r2, [r3, #4]
 8004f9e:	687b      	ldr	r3, [r7, #4]
 8004fa0:	681b      	ldr	r3, [r3, #0]
 8004fa2:	f422 4290 	bic.w	r2, r2, #18432	@ 0x4800
 8004fa6:	605a      	str	r2, [r3, #4]
  CLEAR_BIT(huart->Instance->CR3, (USART_CR3_SCEN | USART_CR3_HDSEL | USART_CR3_IREN));
 8004fa8:	687b      	ldr	r3, [r7, #4]
 8004faa:	681b      	ldr	r3, [r3, #0]
 8004fac:	689a      	ldr	r2, [r3, #8]
 8004fae:	687b      	ldr	r3, [r7, #4]
 8004fb0:	681b      	ldr	r3, [r3, #0]
 8004fb2:	f022 022a 	bic.w	r2, r2, #42	@ 0x2a
 8004fb6:	609a      	str	r2, [r3, #8]

  __HAL_UART_ENABLE(huart);
 8004fb8:	687b      	ldr	r3, [r7, #4]
 8004fba:	681b      	ldr	r3, [r3, #0]
 8004fbc:	681a      	ldr	r2, [r3, #0]
 8004fbe:	687b      	ldr	r3, [r7, #4]
 8004fc0:	681b      	ldr	r3, [r3, #0]
 8004fc2:	f042 0201 	orr.w	r2, r2, #1
 8004fc6:	601a      	str	r2, [r3, #0]

  /* TEACK and/or REACK to check before moving huart->gState and huart->RxState to Ready */
  return (UART_CheckIdleState(huart));
 8004fc8:	6878      	ldr	r0, [r7, #4]
 8004fca:	f000 ff1d 	bl	8005e08 <UART_CheckIdleState>
 8004fce:	4603      	mov	r3, r0
}
 8004fd0:	4618      	mov	r0, r3
 8004fd2:	3708      	adds	r7, #8
 8004fd4:	46bd      	mov	sp, r7
 8004fd6:	bd80      	pop	{r7, pc}

08004fd8 <HAL_UART_MspInit>:
  * @brief Initialize the UART MSP.
  * @param huart UART handle.
  * @retval None
  */
__weak void HAL_UART_MspInit(UART_HandleTypeDef *huart)
{
 8004fd8:	b480      	push	{r7}
 8004fda:	b083      	sub	sp, #12
 8004fdc:	af00      	add	r7, sp, #0
 8004fde:	6078      	str	r0, [r7, #4]
  UNUSED(huart);

  /* NOTE : This function should not be modified, when the callback is needed,
            the HAL_UART_MspInit can be implemented in the user file
   */
}
 8004fe0:	bf00      	nop
 8004fe2:	370c      	adds	r7, #12
 8004fe4:	46bd      	mov	sp, r7
 8004fe6:	f85d 7b04 	ldr.w	r7, [sp], #4
 8004fea:	4770      	bx	lr

08004fec <UART_SetConfig>:
  * @brief Configure the UART peripheral.
  * @param huart UART handle.
  * @retval HAL status
  */
HAL_StatusTypeDef UART_SetConfig(UART_HandleTypeDef *huart)
{
 8004fec:	e92d 4fb0 	stmdb	sp!, {r4, r5, r7, r8, r9, sl, fp, lr}
 8004ff0:	b092      	sub	sp, #72	@ 0x48
 8004ff2:	af00      	add	r7, sp, #0
 8004ff4:	6178      	str	r0, [r7, #20]
  uint32_t tmpreg;
  uint16_t brrtemp;
  UART_ClockSourceTypeDef clocksource;
  uint32_t usartdiv;
  HAL_StatusTypeDef ret               = HAL_OK;
 8004ff6:	2300      	movs	r3, #0
 8004ff8:	f887 3042 	strb.w	r3, [r7, #66]	@ 0x42
  *  the UART Word Length, Parity, Mode and oversampling:
  *  set the M bits according to huart->Init.WordLength value
  *  set PCE and PS bits according to huart->Init.Parity value
  *  set TE and RE bits according to huart->Init.Mode value
  *  set OVER8 bit according to huart->Init.OverSampling value */
  tmpreg = (uint32_t)huart->Init.WordLength | huart->Init.Parity | huart->Init.Mode | huart->Init.OverSampling ;
 8004ffc:	697b      	ldr	r3, [r7, #20]
 8004ffe:	689a      	ldr	r2, [r3, #8]
 8005000:	697b      	ldr	r3, [r7, #20]
 8005002:	691b      	ldr	r3, [r3, #16]
 8005004:	431a      	orrs	r2, r3
 8005006:	697b      	ldr	r3, [r7, #20]
 8005008:	695b      	ldr	r3, [r3, #20]
 800500a:	431a      	orrs	r2, r3
 800500c:	697b      	ldr	r3, [r7, #20]
 800500e:	69db      	ldr	r3, [r3, #28]
 8005010:	4313      	orrs	r3, r2
 8005012:	647b      	str	r3, [r7, #68]	@ 0x44
  MODIFY_REG(huart->Instance->CR1, USART_CR1_FIELDS, tmpreg);
 8005014:	697b      	ldr	r3, [r7, #20]
 8005016:	681b      	ldr	r3, [r3, #0]
 8005018:	681a      	ldr	r2, [r3, #0]
 800501a:	4bbe      	ldr	r3, [pc, #760]	@ (8005314 <UART_SetConfig+0x328>)
 800501c:	4013      	ands	r3, r2
 800501e:	697a      	ldr	r2, [r7, #20]
 8005020:	6812      	ldr	r2, [r2, #0]
 8005022:	6c79      	ldr	r1, [r7, #68]	@ 0x44
 8005024:	430b      	orrs	r3, r1
 8005026:	6013      	str	r3, [r2, #0]

  /*-------------------------- USART CR2 Configuration -----------------------*/
  /* Configure the UART Stop Bits: Set STOP[13:12] bits according
  * to huart->Init.StopBits value */
  MODIFY_REG(huart->Instance->CR2, USART_CR2_STOP, huart->Init.StopBits);
 8005028:	697b      	ldr	r3, [r7, #20]
 800502a:	681b      	ldr	r3, [r3, #0]
 800502c:	685b      	ldr	r3, [r3, #4]
 800502e:	f423 5140 	bic.w	r1, r3, #12288	@ 0x3000
 8005032:	697b      	ldr	r3, [r7, #20]
 8005034:	68da      	ldr	r2, [r3, #12]
 8005036:	697b      	ldr	r3, [r7, #20]
 8005038:	681b      	ldr	r3, [r3, #0]
 800503a:	430a      	orrs	r2, r1
 800503c:	605a      	str	r2, [r3, #4]
  /* Configure
  * - UART HardWare Flow Control: set CTSE and RTSE bits according
  *   to huart->Init.HwFlowCtl value
  * - one-bit sampling method versus three samples' majority rule according
  *   to huart->Init.OneBitSampling (not applicable to LPUART) */
  tmpreg = (uint32_t)huart->Init.HwFlowCtl;
 800503e:	697b      	ldr	r3, [r7, #20]
 8005040:	699b      	ldr	r3, [r3, #24]
 8005042:	647b      	str	r3, [r7, #68]	@ 0x44

  if (!(UART_INSTANCE_LOWPOWER(huart)))
 8005044:	697b      	ldr	r3, [r7, #20]
 8005046:	681b      	ldr	r3, [r3, #0]
 8005048:	4ab3      	ldr	r2, [pc, #716]	@ (8005318 <UART_SetConfig+0x32c>)
 800504a:	4293      	cmp	r3, r2
 800504c:	d004      	beq.n	8005058 <UART_SetConfig+0x6c>
  {
    tmpreg |= huart->Init.OneBitSampling;
 800504e:	697b      	ldr	r3, [r7, #20]
 8005050:	6a1b      	ldr	r3, [r3, #32]
 8005052:	6c7a      	ldr	r2, [r7, #68]	@ 0x44
 8005054:	4313      	orrs	r3, r2
 8005056:	647b      	str	r3, [r7, #68]	@ 0x44
  }
  MODIFY_REG(huart->Instance->CR3, USART_CR3_FIELDS, tmpreg);
 8005058:	697b      	ldr	r3, [r7, #20]
 800505a:	681b      	ldr	r3, [r3, #0]
 800505c:	689a      	ldr	r2, [r3, #8]
 800505e:	4baf      	ldr	r3, [pc, #700]	@ (800531c <UART_SetConfig+0x330>)
 8005060:	4013      	ands	r3, r2
 8005062:	697a      	ldr	r2, [r7, #20]
 8005064:	6812      	ldr	r2, [r2, #0]
 8005066:	6c79      	ldr	r1, [r7, #68]	@ 0x44
 8005068:	430b      	orrs	r3, r1
 800506a:	6093      	str	r3, [r2, #8]

  /*-------------------------- USART PRESC Configuration -----------------------*/
  /* Configure
  * - UART Clock Prescaler : set PRESCALER according to huart->Init.ClockPrescaler value */
  MODIFY_REG(huart->Instance->PRESC, USART_PRESC_PRESCALER, huart->Init.ClockPrescaler);
 800506c:	697b      	ldr	r3, [r7, #20]
 800506e:	681b      	ldr	r3, [r3, #0]
 8005070:	6adb      	ldr	r3, [r3, #44]	@ 0x2c
 8005072:	f023 010f 	bic.w	r1, r3, #15
 8005076:	697b      	ldr	r3, [r7, #20]
 8005078:	6a5a      	ldr	r2, [r3, #36]	@ 0x24
 800507a:	697b      	ldr	r3, [r7, #20]
 800507c:	681b      	ldr	r3, [r3, #0]
 800507e:	430a      	orrs	r2, r1
 8005080:	62da      	str	r2, [r3, #44]	@ 0x2c

  /*-------------------------- USART BRR Configuration -----------------------*/
  UART_GETCLOCKSOURCE(huart, clocksource);
 8005082:	697b      	ldr	r3, [r7, #20]
 8005084:	681b      	ldr	r3, [r3, #0]
 8005086:	4aa6      	ldr	r2, [pc, #664]	@ (8005320 <UART_SetConfig+0x334>)
 8005088:	4293      	cmp	r3, r2
 800508a:	d177      	bne.n	800517c <UART_SetConfig+0x190>
 800508c:	4ba5      	ldr	r3, [pc, #660]	@ (8005324 <UART_SetConfig+0x338>)
 800508e:	6d5b      	ldr	r3, [r3, #84]	@ 0x54
 8005090:	f003 0338 	and.w	r3, r3, #56	@ 0x38
 8005094:	2b28      	cmp	r3, #40	@ 0x28
 8005096:	d86d      	bhi.n	8005174 <UART_SetConfig+0x188>
 8005098:	a201      	add	r2, pc, #4	@ (adr r2, 80050a0 <UART_SetConfig+0xb4>)
 800509a:	f852 f023 	ldr.w	pc, [r2, r3, lsl #2]
 800509e:	bf00      	nop
 80050a0:	08005145 	.word	0x08005145
 80050a4:	08005175 	.word	0x08005175
 80050a8:	08005175 	.word	0x08005175
 80050ac:	08005175 	.word	0x08005175
 80050b0:	08005175 	.word	0x08005175
 80050b4:	08005175 	.word	0x08005175
 80050b8:	08005175 	.word	0x08005175
 80050bc:	08005175 	.word	0x08005175
 80050c0:	0800514d 	.word	0x0800514d
 80050c4:	08005175 	.word	0x08005175
 80050c8:	08005175 	.word	0x08005175
 80050cc:	08005175 	.word	0x08005175
 80050d0:	08005175 	.word	0x08005175
 80050d4:	08005175 	.word	0x08005175
 80050d8:	08005175 	.word	0x08005175
 80050dc:	08005175 	.word	0x08005175
 80050e0:	08005155 	.word	0x08005155
 80050e4:	08005175 	.word	0x08005175
 80050e8:	08005175 	.word	0x08005175
 80050ec:	08005175 	.word	0x08005175
 80050f0:	08005175 	.word	0x08005175
 80050f4:	08005175 	.word	0x08005175
 80050f8:	08005175 	.word	0x08005175
 80050fc:	08005175 	.word	0x08005175
 8005100:	0800515d 	.word	0x0800515d
 8005104:	08005175 	.word	0x08005175
 8005108:	08005175 	.word	0x08005175
 800510c:	08005175 	.word	0x08005175
 8005110:	08005175 	.word	0x08005175
 8005114:	08005175 	.word	0x08005175
 8005118:	08005175 	.word	0x08005175
 800511c:	08005175 	.word	0x08005175
 8005120:	08005165 	.word	0x08005165
 8005124:	08005175 	.word	0x08005175
 8005128:	08005175 	.word	0x08005175
 800512c:	08005175 	.word	0x08005175
 8005130:	08005175 	.word	0x08005175
 8005134:	08005175 	.word	0x08005175
 8005138:	08005175 	.word	0x08005175
 800513c:	08005175 	.word	0x08005175
 8005140:	0800516d 	.word	0x0800516d
 8005144:	2301      	movs	r3, #1
 8005146:	f887 3043 	strb.w	r3, [r7, #67]	@ 0x43
 800514a:	e326      	b.n	800579a <UART_SetConfig+0x7ae>
 800514c:	2304      	movs	r3, #4
 800514e:	f887 3043 	strb.w	r3, [r7, #67]	@ 0x43
 8005152:	e322      	b.n	800579a <UART_SetConfig+0x7ae>
 8005154:	2308      	movs	r3, #8
 8005156:	f887 3043 	strb.w	r3, [r7, #67]	@ 0x43
 800515a:	e31e      	b.n	800579a <UART_SetConfig+0x7ae>
 800515c:	2310      	movs	r3, #16
 800515e:	f887 3043 	strb.w	r3, [r7, #67]	@ 0x43
 8005162:	e31a      	b.n	800579a <UART_SetConfig+0x7ae>
 8005164:	2320      	movs	r3, #32
 8005166:	f887 3043 	strb.w	r3, [r7, #67]	@ 0x43
 800516a:	e316      	b.n	800579a <UART_SetConfig+0x7ae>
 800516c:	2340      	movs	r3, #64	@ 0x40
 800516e:	f887 3043 	strb.w	r3, [r7, #67]	@ 0x43
 8005172:	e312      	b.n	800579a <UART_SetConfig+0x7ae>
 8005174:	2380      	movs	r3, #128	@ 0x80
 8005176:	f887 3043 	strb.w	r3, [r7, #67]	@ 0x43
 800517a:	e30e      	b.n	800579a <UART_SetConfig+0x7ae>
 800517c:	697b      	ldr	r3, [r7, #20]
 800517e:	681b      	ldr	r3, [r3, #0]
 8005180:	4a69      	ldr	r2, [pc, #420]	@ (8005328 <UART_SetConfig+0x33c>)
 8005182:	4293      	cmp	r3, r2
 8005184:	d130      	bne.n	80051e8 <UART_SetConfig+0x1fc>
 8005186:	4b67      	ldr	r3, [pc, #412]	@ (8005324 <UART_SetConfig+0x338>)
 8005188:	6d5b      	ldr	r3, [r3, #84]	@ 0x54
 800518a:	f003 0307 	and.w	r3, r3, #7
 800518e:	2b05      	cmp	r3, #5
 8005190:	d826      	bhi.n	80051e0 <UART_SetConfig+0x1f4>
 8005192:	a201      	add	r2, pc, #4	@ (adr r2, 8005198 <UART_SetConfig+0x1ac>)
 8005194:	f852 f023 	ldr.w	pc, [r2, r3, lsl #2]
 8005198:	080051b1 	.word	0x080051b1
 800519c:	080051b9 	.word	0x080051b9
 80051a0:	080051c1 	.word	0x080051c1
 80051a4:	080051c9 	.word	0x080051c9
 80051a8:	080051d1 	.word	0x080051d1
 80051ac:	080051d9 	.word	0x080051d9
 80051b0:	2300      	movs	r3, #0
 80051b2:	f887 3043 	strb.w	r3, [r7, #67]	@ 0x43
 80051b6:	e2f0      	b.n	800579a <UART_SetConfig+0x7ae>
 80051b8:	2304      	movs	r3, #4
 80051ba:	f887 3043 	strb.w	r3, [r7, #67]	@ 0x43
 80051be:	e2ec      	b.n	800579a <UART_SetConfig+0x7ae>
 80051c0:	2308      	movs	r3, #8
 80051c2:	f887 3043 	strb.w	r3, [r7, #67]	@ 0x43
 80051c6:	e2e8      	b.n	800579a <UART_SetConfig+0x7ae>
 80051c8:	2310      	movs	r3, #16
 80051ca:	f887 3043 	strb.w	r3, [r7, #67]	@ 0x43
 80051ce:	e2e4      	b.n	800579a <UART_SetConfig+0x7ae>
 80051d0:	2320      	movs	r3, #32
 80051d2:	f887 3043 	strb.w	r3, [r7, #67]	@ 0x43
 80051d6:	e2e0      	b.n	800579a <UART_SetConfig+0x7ae>
 80051d8:	2340      	movs	r3, #64	@ 0x40
 80051da:	f887 3043 	strb.w	r3, [r7, #67]	@ 0x43
 80051de:	e2dc      	b.n	800579a <UART_SetConfig+0x7ae>
 80051e0:	2380      	movs	r3, #128	@ 0x80
 80051e2:	f887 3043 	strb.w	r3, [r7, #67]	@ 0x43
 80051e6:	e2d8      	b.n	800579a <UART_SetConfig+0x7ae>
 80051e8:	697b      	ldr	r3, [r7, #20]
 80051ea:	681b      	ldr	r3, [r3, #0]
 80051ec:	4a4f      	ldr	r2, [pc, #316]	@ (800532c <UART_SetConfig+0x340>)
 80051ee:	4293      	cmp	r3, r2
 80051f0:	d130      	bne.n	8005254 <UART_SetConfig+0x268>
 80051f2:	4b4c      	ldr	r3, [pc, #304]	@ (8005324 <UART_SetConfig+0x338>)
 80051f4:	6d5b      	ldr	r3, [r3, #84]	@ 0x54
 80051f6:	f003 0307 	and.w	r3, r3, #7
 80051fa:	2b05      	cmp	r3, #5
 80051fc:	d826      	bhi.n	800524c <UART_SetConfig+0x260>
 80051fe:	a201      	add	r2, pc, #4	@ (adr r2, 8005204 <UART_SetConfig+0x218>)
 8005200:	f852 f023 	ldr.w	pc, [r2, r3, lsl #2]
 8005204:	0800521d 	.word	0x0800521d
 8005208:	08005225 	.word	0x08005225
 800520c:	0800522d 	.word	0x0800522d
 8005210:	08005235 	.word	0x08005235
 8005214:	0800523d 	.word	0x0800523d
 8005218:	08005245 	.word	0x08005245
 800521c:	2300      	movs	r3, #0
 800521e:	f887 3043 	strb.w	r3, [r7, #67]	@ 0x43
 8005222:	e2ba      	b.n	800579a <UART_SetConfig+0x7ae>
 8005224:	2304      	movs	r3, #4
 8005226:	f887 3043 	strb.w	r3, [r7, #67]	@ 0x43
 800522a:	e2b6      	b.n	800579a <UART_SetConfig+0x7ae>
 800522c:	2308      	movs	r3, #8
 800522e:	f887 3043 	strb.w	r3, [r7, #67]	@ 0x43
 8005232:	e2b2      	b.n	800579a <UART_SetConfig+0x7ae>
 8005234:	2310      	movs	r3, #16
 8005236:	f887 3043 	strb.w	r3, [r7, #67]	@ 0x43
 800523a:	e2ae      	b.n	800579a <UART_SetConfig+0x7ae>
 800523c:	2320      	movs	r3, #32
 800523e:	f887 3043 	strb.w	r3, [r7, #67]	@ 0x43
 8005242:	e2aa      	b.n	800579a <UART_SetConfig+0x7ae>
 8005244:	2340      	movs	r3, #64	@ 0x40
 8005246:	f887 3043 	strb.w	r3, [r7, #67]	@ 0x43
 800524a:	e2a6      	b.n	800579a <UART_SetConfig+0x7ae>
 800524c:	2380      	movs	r3, #128	@ 0x80
 800524e:	f887 3043 	strb.w	r3, [r7, #67]	@ 0x43
 8005252:	e2a2      	b.n	800579a <UART_SetConfig+0x7ae>
 8005254:	697b      	ldr	r3, [r7, #20]
 8005256:	681b      	ldr	r3, [r3, #0]
 8005258:	4a35      	ldr	r2, [pc, #212]	@ (8005330 <UART_SetConfig+0x344>)
 800525a:	4293      	cmp	r3, r2
 800525c:	d130      	bne.n	80052c0 <UART_SetConfig+0x2d4>
 800525e:	4b31      	ldr	r3, [pc, #196]	@ (8005324 <UART_SetConfig+0x338>)
 8005260:	6d5b      	ldr	r3, [r3, #84]	@ 0x54
 8005262:	f003 0307 	and.w	r3, r3, #7
 8005266:	2b05      	cmp	r3, #5
 8005268:	d826      	bhi.n	80052b8 <UART_SetConfig+0x2cc>
 800526a:	a201      	add	r2, pc, #4	@ (adr r2, 8005270 <UART_SetConfig+0x284>)
 800526c:	f852 f023 	ldr.w	pc, [r2, r3, lsl #2]
 8005270:	08005289 	.word	0x08005289
 8005274:	08005291 	.word	0x08005291
 8005278:	08005299 	.word	0x08005299
 800527c:	080052a1 	.word	0x080052a1
 8005280:	080052a9 	.word	0x080052a9
 8005284:	080052b1 	.word	0x080052b1
 8005288:	2300      	movs	r3, #0
 800528a:	f887 3043 	strb.w	r3, [r7, #67]	@ 0x43
 800528e:	e284      	b.n	800579a <UART_SetConfig+0x7ae>
 8005290:	2304      	movs	r3, #4
 8005292:	f887 3043 	strb.w	r3, [r7, #67]	@ 0x43
 8005296:	e280      	b.n	800579a <UART_SetConfig+0x7ae>
 8005298:	2308      	movs	r3, #8
 800529a:	f887 3043 	strb.w	r3, [r7, #67]	@ 0x43
 800529e:	e27c      	b.n	800579a <UART_SetConfig+0x7ae>
 80052a0:	2310      	movs	r3, #16
 80052a2:	f887 3043 	strb.w	r3, [r7, #67]	@ 0x43
 80052a6:	e278      	b.n	800579a <UART_SetConfig+0x7ae>
 80052a8:	2320      	movs	r3, #32
 80052aa:	f887 3043 	strb.w	r3, [r7, #67]	@ 0x43
 80052ae:	e274      	b.n	800579a <UART_SetConfig+0x7ae>
 80052b0:	2340      	movs	r3, #64	@ 0x40
 80052b2:	f887 3043 	strb.w	r3, [r7, #67]	@ 0x43
 80052b6:	e270      	b.n	800579a <UART_SetConfig+0x7ae>
 80052b8:	2380      	movs	r3, #128	@ 0x80
 80052ba:	f887 3043 	strb.w	r3, [r7, #67]	@ 0x43
 80052be:	e26c      	b.n	800579a <UART_SetConfig+0x7ae>
 80052c0:	697b      	ldr	r3, [r7, #20]
 80052c2:	681b      	ldr	r3, [r3, #0]
 80052c4:	4a1b      	ldr	r2, [pc, #108]	@ (8005334 <UART_SetConfig+0x348>)
 80052c6:	4293      	cmp	r3, r2
 80052c8:	d142      	bne.n	8005350 <UART_SetConfig+0x364>
 80052ca:	4b16      	ldr	r3, [pc, #88]	@ (8005324 <UART_SetConfig+0x338>)
 80052cc:	6d5b      	ldr	r3, [r3, #84]	@ 0x54
 80052ce:	f003 0307 	and.w	r3, r3, #7
 80052d2:	2b05      	cmp	r3, #5
 80052d4:	d838      	bhi.n	8005348 <UART_SetConfig+0x35c>
 80052d6:	a201      	add	r2, pc, #4	@ (adr r2, 80052dc <UART_SetConfig+0x2f0>)
 80052d8:	f852 f023 	ldr.w	pc, [r2, r3, lsl #2]
 80052dc:	080052f5 	.word	0x080052f5
 80052e0:	080052fd 	.word	0x080052fd
 80052e4:	08005305 	.word	0x08005305
 80052e8:	0800530d 	.word	0x0800530d
 80052ec:	08005339 	.word	0x08005339
 80052f0:	08005341 	.word	0x08005341
 80052f4:	2300      	movs	r3, #0
 80052f6:	f887 3043 	strb.w	r3, [r7, #67]	@ 0x43
 80052fa:	e24e      	b.n	800579a <UART_SetConfig+0x7ae>
 80052fc:	2304      	movs	r3, #4
 80052fe:	f887 3043 	strb.w	r3, [r7, #67]	@ 0x43
 8005302:	e24a      	b.n	800579a <UART_SetConfig+0x7ae>
 8005304:	2308      	movs	r3, #8
 8005306:	f887 3043 	strb.w	r3, [r7, #67]	@ 0x43
 800530a:	e246      	b.n	800579a <UART_SetConfig+0x7ae>
 800530c:	2310      	movs	r3, #16
 800530e:	f887 3043 	strb.w	r3, [r7, #67]	@ 0x43
 8005312:	e242      	b.n	800579a <UART_SetConfig+0x7ae>
 8005314:	cfff69f3 	.word	0xcfff69f3
 8005318:	58000c00 	.word	0x58000c00
 800531c:	11fff4ff 	.word	0x11fff4ff
 8005320:	40011000 	.word	0x40011000
 8005324:	58024400 	.word	0x58024400
 8005328:	40004400 	.word	0x40004400
 800532c:	40004800 	.word	0x40004800
 8005330:	40004c00 	.word	0x40004c00
 8005334:	40005000 	.word	0x40005000
 8005338:	2320      	movs	r3, #32
 800533a:	f887 3043 	strb.w	r3, [r7, #67]	@ 0x43
 800533e:	e22c      	b.n	800579a <UART_SetConfig+0x7ae>
 8005340:	2340      	movs	r3, #64	@ 0x40
 8005342:	f887 3043 	strb.w	r3, [r7, #67]	@ 0x43
 8005346:	e228      	b.n	800579a <UART_SetConfig+0x7ae>
 8005348:	2380      	movs	r3, #128	@ 0x80
 800534a:	f887 3043 	strb.w	r3, [r7, #67]	@ 0x43
 800534e:	e224      	b.n	800579a <UART_SetConfig+0x7ae>
 8005350:	697b      	ldr	r3, [r7, #20]
 8005352:	681b      	ldr	r3, [r3, #0]
 8005354:	4ab1      	ldr	r2, [pc, #708]	@ (800561c <UART_SetConfig+0x630>)
 8005356:	4293      	cmp	r3, r2
 8005358:	d176      	bne.n	8005448 <UART_SetConfig+0x45c>
 800535a:	4bb1      	ldr	r3, [pc, #708]	@ (8005620 <UART_SetConfig+0x634>)
 800535c:	6d5b      	ldr	r3, [r3, #84]	@ 0x54
 800535e:	f003 0338 	and.w	r3, r3, #56	@ 0x38
 8005362:	2b28      	cmp	r3, #40	@ 0x28
 8005364:	d86c      	bhi.n	8005440 <UART_SetConfig+0x454>
 8005366:	a201      	add	r2, pc, #4	@ (adr r2, 800536c <UART_SetConfig+0x380>)
 8005368:	f852 f023 	ldr.w	pc, [r2, r3, lsl #2]
 800536c:	08005411 	.word	0x08005411
 8005370:	08005441 	.word	0x08005441
 8005374:	08005441 	.word	0x08005441
 8005378:	08005441 	.word	0x08005441
 800537c:	08005441 	.word	0x08005441
 8005380:	08005441 	.word	0x08005441
 8005384:	08005441 	.word	0x08005441
 8005388:	08005441 	.word	0x08005441
 800538c:	08005419 	.word	0x08005419
 8005390:	08005441 	.word	0x08005441
 8005394:	08005441 	.word	0x08005441
 8005398:	08005441 	.word	0x08005441
 800539c:	08005441 	.word	0x08005441
 80053a0:	08005441 	.word	0x08005441
 80053a4:	08005441 	.word	0x08005441
 80053a8:	08005441 	.word	0x08005441
 80053ac:	08005421 	.word	0x08005421
 80053b0:	08005441 	.word	0x08005441
 80053b4:	08005441 	.word	0x08005441
 80053b8:	08005441 	.word	0x08005441
 80053bc:	08005441 	.word	0x08005441
 80053c0:	08005441 	.word	0x08005441
 80053c4:	08005441 	.word	0x08005441
 80053c8:	08005441 	.word	0x08005441
 80053cc:	08005429 	.word	0x08005429
 80053d0:	08005441 	.word	0x08005441
 80053d4:	08005441 	.word	0x08005441
 80053d8:	08005441 	.word	0x08005441
 80053dc:	08005441 	.word	0x08005441
 80053e0:	08005441 	.word	0x08005441
 80053e4:	08005441 	.word	0x08005441
 80053e8:	08005441 	.word	0x08005441
 80053ec:	08005431 	.word	0x08005431
 80053f0:	08005441 	.word	0x08005441
 80053f4:	08005441 	.word	0x08005441
 80053f8:	08005441 	.word	0x08005441
 80053fc:	08005441 	.word	0x08005441
 8005400:	08005441 	.word	0x08005441
 8005404:	08005441 	.word	0x08005441
 8005408:	08005441 	.word	0x08005441
 800540c:	08005439 	.word	0x08005439
 8005410:	2301      	movs	r3, #1
 8005412:	f887 3043 	strb.w	r3, [r7, #67]	@ 0x43
 8005416:	e1c0      	b.n	800579a <UART_SetConfig+0x7ae>
 8005418:	2304      	movs	r3, #4
 800541a:	f887 3043 	strb.w	r3, [r7, #67]	@ 0x43
 800541e:	e1bc      	b.n	800579a <UART_SetConfig+0x7ae>
 8005420:	2308      	movs	r3, #8
 8005422:	f887 3043 	strb.w	r3, [r7, #67]	@ 0x43
 8005426:	e1b8      	b.n	800579a <UART_SetConfig+0x7ae>
 8005428:	2310      	movs	r3, #16
 800542a:	f887 3043 	strb.w	r3, [r7, #67]	@ 0x43
 800542e:	e1b4      	b.n	800579a <UART_SetConfig+0x7ae>
 8005430:	2320      	movs	r3, #32
 8005432:	f887 3043 	strb.w	r3, [r7, #67]	@ 0x43
 8005436:	e1b0      	b.n	800579a <UART_SetConfig+0x7ae>
 8005438:	2340      	movs	r3, #64	@ 0x40
 800543a:	f887 3043 	strb.w	r3, [r7, #67]	@ 0x43
 800543e:	e1ac      	b.n	800579a <UART_SetConfig+0x7ae>
 8005440:	2380      	movs	r3, #128	@ 0x80
 8005442:	f887 3043 	strb.w	r3, [r7, #67]	@ 0x43
 8005446:	e1a8      	b.n	800579a <UART_SetConfig+0x7ae>
 8005448:	697b      	ldr	r3, [r7, #20]
 800544a:	681b      	ldr	r3, [r3, #0]
 800544c:	4a75      	ldr	r2, [pc, #468]	@ (8005624 <UART_SetConfig+0x638>)
 800544e:	4293      	cmp	r3, r2
 8005450:	d130      	bne.n	80054b4 <UART_SetConfig+0x4c8>
 8005452:	4b73      	ldr	r3, [pc, #460]	@ (8005620 <UART_SetConfig+0x634>)
 8005454:	6d5b      	ldr	r3, [r3, #84]	@ 0x54
 8005456:	f003 0307 	and.w	r3, r3, #7
 800545a:	2b05      	cmp	r3, #5
 800545c:	d826      	bhi.n	80054ac <UART_SetConfig+0x4c0>
 800545e:	a201      	add	r2, pc, #4	@ (adr r2, 8005464 <UART_SetConfig+0x478>)
 8005460:	f852 f023 	ldr.w	pc, [r2, r3, lsl #2]
 8005464:	0800547d 	.word	0x0800547d
 8005468:	08005485 	.word	0x08005485
 800546c:	0800548d 	.word	0x0800548d
 8005470:	08005495 	.word	0x08005495
 8005474:	0800549d 	.word	0x0800549d
 8005478:	080054a5 	.word	0x080054a5
 800547c:	2300      	movs	r3, #0
 800547e:	f887 3043 	strb.w	r3, [r7, #67]	@ 0x43
 8005482:	e18a      	b.n	800579a <UART_SetConfig+0x7ae>
 8005484:	2304      	movs	r3, #4
 8005486:	f887 3043 	strb.w	r3, [r7, #67]	@ 0x43
 800548a:	e186      	b.n	800579a <UART_SetConfig+0x7ae>
 800548c:	2308      	movs	r3, #8
 800548e:	f887 3043 	strb.w	r3, [r7, #67]	@ 0x43
 8005492:	e182      	b.n	800579a <UART_SetConfig+0x7ae>
 8005494:	2310      	movs	r3, #16
 8005496:	f887 3043 	strb.w	r3, [r7, #67]	@ 0x43
 800549a:	e17e      	b.n	800579a <UART_SetConfig+0x7ae>
 800549c:	2320      	movs	r3, #32
 800549e:	f887 3043 	strb.w	r3, [r7, #67]	@ 0x43
 80054a2:	e17a      	b.n	800579a <UART_SetConfig+0x7ae>
 80054a4:	2340      	movs	r3, #64	@ 0x40
 80054a6:	f887 3043 	strb.w	r3, [r7, #67]	@ 0x43
 80054aa:	e176      	b.n	800579a <UART_SetConfig+0x7ae>
 80054ac:	2380      	movs	r3, #128	@ 0x80
 80054ae:	f887 3043 	strb.w	r3, [r7, #67]	@ 0x43
 80054b2:	e172      	b.n	800579a <UART_SetConfig+0x7ae>
 80054b4:	697b      	ldr	r3, [r7, #20]
 80054b6:	681b      	ldr	r3, [r3, #0]
 80054b8:	4a5b      	ldr	r2, [pc, #364]	@ (8005628 <UART_SetConfig+0x63c>)
 80054ba:	4293      	cmp	r3, r2
 80054bc:	d130      	bne.n	8005520 <UART_SetConfig+0x534>
 80054be:	4b58      	ldr	r3, [pc, #352]	@ (8005620 <UART_SetConfig+0x634>)
 80054c0:	6d5b      	ldr	r3, [r3, #84]	@ 0x54
 80054c2:	f003 0307 	and.w	r3, r3, #7
 80054c6:	2b05      	cmp	r3, #5
 80054c8:	d826      	bhi.n	8005518 <UART_SetConfig+0x52c>
 80054ca:	a201      	add	r2, pc, #4	@ (adr r2, 80054d0 <UART_SetConfig+0x4e4>)
 80054cc:	f852 f023 	ldr.w	pc, [r2, r3, lsl #2]
 80054d0:	080054e9 	.word	0x080054e9
 80054d4:	080054f1 	.word	0x080054f1
 80054d8:	080054f9 	.word	0x080054f9
 80054dc:	08005501 	.word	0x08005501
 80054e0:	08005509 	.word	0x08005509
 80054e4:	08005511 	.word	0x08005511
 80054e8:	2300      	movs	r3, #0
 80054ea:	f887 3043 	strb.w	r3, [r7, #67]	@ 0x43
 80054ee:	e154      	b.n	800579a <UART_SetConfig+0x7ae>
 80054f0:	2304      	movs	r3, #4
 80054f2:	f887 3043 	strb.w	r3, [r7, #67]	@ 0x43
 80054f6:	e150      	b.n	800579a <UART_SetConfig+0x7ae>
 80054f8:	2308      	movs	r3, #8
 80054fa:	f887 3043 	strb.w	r3, [r7, #67]	@ 0x43
 80054fe:	e14c      	b.n	800579a <UART_SetConfig+0x7ae>
 8005500:	2310      	movs	r3, #16
 8005502:	f887 3043 	strb.w	r3, [r7, #67]	@ 0x43
 8005506:	e148      	b.n	800579a <UART_SetConfig+0x7ae>
 8005508:	2320      	movs	r3, #32
 800550a:	f887 3043 	strb.w	r3, [r7, #67]	@ 0x43
 800550e:	e144      	b.n	800579a <UART_SetConfig+0x7ae>
 8005510:	2340      	movs	r3, #64	@ 0x40
 8005512:	f887 3043 	strb.w	r3, [r7, #67]	@ 0x43
 8005516:	e140      	b.n	800579a <UART_SetConfig+0x7ae>
 8005518:	2380      	movs	r3, #128	@ 0x80
 800551a:	f887 3043 	strb.w	r3, [r7, #67]	@ 0x43
 800551e:	e13c      	b.n	800579a <UART_SetConfig+0x7ae>
 8005520:	697b      	ldr	r3, [r7, #20]
 8005522:	681b      	ldr	r3, [r3, #0]
 8005524:	4a41      	ldr	r2, [pc, #260]	@ (800562c <UART_SetConfig+0x640>)
 8005526:	4293      	cmp	r3, r2
 8005528:	f040 8082 	bne.w	8005630 <UART_SetConfig+0x644>
 800552c:	4b3c      	ldr	r3, [pc, #240]	@ (8005620 <UART_SetConfig+0x634>)
 800552e:	6d5b      	ldr	r3, [r3, #84]	@ 0x54
 8005530:	f003 0338 	and.w	r3, r3, #56	@ 0x38
 8005534:	2b28      	cmp	r3, #40	@ 0x28
 8005536:	d86d      	bhi.n	8005614 <UART_SetConfig+0x628>
 8005538:	a201      	add	r2, pc, #4	@ (adr r2, 8005540 <UART_SetConfig+0x554>)
 800553a:	f852 f023 	ldr.w	pc, [r2, r3, lsl #2]
 800553e:	bf00      	nop
 8005540:	080055e5 	.word	0x080055e5
 8005544:	08005615 	.word	0x08005615
 8005548:	08005615 	.word	0x08005615
 800554c:	08005615 	.word	0x08005615
 8005550:	08005615 	.word	0x08005615
 8005554:	08005615 	.word	0x08005615
 8005558:	08005615 	.word	0x08005615
 800555c:	08005615 	.word	0x08005615
 8005560:	080055ed 	.word	0x080055ed
 8005564:	08005615 	.word	0x08005615
 8005568:	08005615 	.word	0x08005615
 800556c:	08005615 	.word	0x08005615
 8005570:	08005615 	.word	0x08005615
 8005574:	08005615 	.word	0x08005615
 8005578:	08005615 	.word	0x08005615
 800557c:	08005615 	.word	0x08005615
 8005580:	080055f5 	.word	0x080055f5
 8005584:	08005615 	.word	0x08005615
 8005588:	08005615 	.word	0x08005615
 800558c:	08005615 	.word	0x08005615
 8005590:	08005615 	.word	0x08005615
 8005594:	08005615 	.word	0x08005615
 8005598:	08005615 	.word	0x08005615
 800559c:	08005615 	.word	0x08005615
 80055a0:	080055fd 	.word	0x080055fd
 80055a4:	08005615 	.word	0x08005615
 80055a8:	08005615 	.word	0x08005615
 80055ac:	08005615 	.word	0x08005615
 80055b0:	08005615 	.word	0x08005615
 80055b4:	08005615 	.word	0x08005615
 80055b8:	08005615 	.word	0x08005615
 80055bc:	08005615 	.word	0x08005615
 80055c0:	08005605 	.word	0x08005605
 80055c4:	08005615 	.word	0x08005615
 80055c8:	08005615 	.word	0x08005615
 80055cc:	08005615 	.word	0x08005615
 80055d0:	08005615 	.word	0x08005615
 80055d4:	08005615 	.word	0x08005615
 80055d8:	08005615 	.word	0x08005615
 80055dc:	08005615 	.word	0x08005615
 80055e0:	0800560d 	.word	0x0800560d
 80055e4:	2301      	movs	r3, #1
 80055e6:	f887 3043 	strb.w	r3, [r7, #67]	@ 0x43
 80055ea:	e0d6      	b.n	800579a <UART_SetConfig+0x7ae>
 80055ec:	2304      	movs	r3, #4
 80055ee:	f887 3043 	strb.w	r3, [r7, #67]	@ 0x43
 80055f2:	e0d2      	b.n	800579a <UART_SetConfig+0x7ae>
 80055f4:	2308      	movs	r3, #8
 80055f6:	f887 3043 	strb.w	r3, [r7, #67]	@ 0x43
 80055fa:	e0ce      	b.n	800579a <UART_SetConfig+0x7ae>
 80055fc:	2310      	movs	r3, #16
 80055fe:	f887 3043 	strb.w	r3, [r7, #67]	@ 0x43
 8005602:	e0ca      	b.n	800579a <UART_SetConfig+0x7ae>
 8005604:	2320      	movs	r3, #32
 8005606:	f887 3043 	strb.w	r3, [r7, #67]	@ 0x43
 800560a:	e0c6      	b.n	800579a <UART_SetConfig+0x7ae>
 800560c:	2340      	movs	r3, #64	@ 0x40
 800560e:	f887 3043 	strb.w	r3, [r7, #67]	@ 0x43
 8005612:	e0c2      	b.n	800579a <UART_SetConfig+0x7ae>
 8005614:	2380      	movs	r3, #128	@ 0x80
 8005616:	f887 3043 	strb.w	r3, [r7, #67]	@ 0x43
 800561a:	e0be      	b.n	800579a <UART_SetConfig+0x7ae>
 800561c:	40011400 	.word	0x40011400
 8005620:	58024400 	.word	0x58024400
 8005624:	40007800 	.word	0x40007800
 8005628:	40007c00 	.word	0x40007c00
 800562c:	40011800 	.word	0x40011800
 8005630:	697b      	ldr	r3, [r7, #20]
 8005632:	681b      	ldr	r3, [r3, #0]
 8005634:	4aad      	ldr	r2, [pc, #692]	@ (80058ec <UART_SetConfig+0x900>)
 8005636:	4293      	cmp	r3, r2
 8005638:	d176      	bne.n	8005728 <UART_SetConfig+0x73c>
 800563a:	4bad      	ldr	r3, [pc, #692]	@ (80058f0 <UART_SetConfig+0x904>)
 800563c:	6d5b      	ldr	r3, [r3, #84]	@ 0x54
 800563e:	f003 0338 	and.w	r3, r3, #56	@ 0x38
 8005642:	2b28      	cmp	r3, #40	@ 0x28
 8005644:	d86c      	bhi.n	8005720 <UART_SetConfig+0x734>
 8005646:	a201      	add	r2, pc, #4	@ (adr r2, 800564c <UART_SetConfig+0x660>)
 8005648:	f852 f023 	ldr.w	pc, [r2, r3, lsl #2]
 800564c:	080056f1 	.word	0x080056f1
 8005650:	08005721 	.word	0x08005721
 8005654:	08005721 	.word	0x08005721
 8005658:	08005721 	.word	0x08005721
 800565c:	08005721 	.word	0x08005721
 8005660:	08005721 	.word	0x08005721
 8005664:	08005721 	.word	0x08005721
 8005668:	08005721 	.word	0x08005721
 800566c:	080056f9 	.word	0x080056f9
 8005670:	08005721 	.word	0x08005721
 8005674:	08005721 	.word	0x08005721
 8005678:	08005721 	.word	0x08005721
 800567c:	08005721 	.word	0x08005721
 8005680:	08005721 	.word	0x08005721
 8005684:	08005721 	.word	0x08005721
 8005688:	08005721 	.word	0x08005721
 800568c:	08005701 	.word	0x08005701
 8005690:	08005721 	.word	0x08005721
 8005694:	08005721 	.word	0x08005721
 8005698:	08005721 	.word	0x08005721
 800569c:	08005721 	.word	0x08005721
 80056a0:	08005721 	.word	0x08005721
 80056a4:	08005721 	.word	0x08005721
 80056a8:	08005721 	.word	0x08005721
 80056ac:	08005709 	.word	0x08005709
 80056b0:	08005721 	.word	0x08005721
 80056b4:	08005721 	.word	0x08005721
 80056b8:	08005721 	.word	0x08005721
 80056bc:	08005721 	.word	0x08005721
 80056c0:	08005721 	.word	0x08005721
 80056c4:	08005721 	.word	0x08005721
 80056c8:	08005721 	.word	0x08005721
 80056cc:	08005711 	.word	0x08005711
 80056d0:	08005721 	.word	0x08005721
 80056d4:	08005721 	.word	0x08005721
 80056d8:	08005721 	.word	0x08005721
 80056dc:	08005721 	.word	0x08005721
 80056e0:	08005721 	.word	0x08005721
 80056e4:	08005721 	.word	0x08005721
 80056e8:	08005721 	.word	0x08005721
 80056ec:	08005719 	.word	0x08005719
 80056f0:	2301      	movs	r3, #1
 80056f2:	f887 3043 	strb.w	r3, [r7, #67]	@ 0x43
 80056f6:	e050      	b.n	800579a <UART_SetConfig+0x7ae>
 80056f8:	2304      	movs	r3, #4
 80056fa:	f887 3043 	strb.w	r3, [r7, #67]	@ 0x43
 80056fe:	e04c      	b.n	800579a <UART_SetConfig+0x7ae>
 8005700:	2308      	movs	r3, #8
 8005702:	f887 3043 	strb.w	r3, [r7, #67]	@ 0x43
 8005706:	e048      	b.n	800579a <UART_SetConfig+0x7ae>
 8005708:	2310      	movs	r3, #16
 800570a:	f887 3043 	strb.w	r3, [r7, #67]	@ 0x43
 800570e:	e044      	b.n	800579a <UART_SetConfig+0x7ae>
 8005710:	2320      	movs	r3, #32
 8005712:	f887 3043 	strb.w	r3, [r7, #67]	@ 0x43
 8005716:	e040      	b.n	800579a <UART_SetConfig+0x7ae>
 8005718:	2340      	movs	r3, #64	@ 0x40
 800571a:	f887 3043 	strb.w	r3, [r7, #67]	@ 0x43
 800571e:	e03c      	b.n	800579a <UART_SetConfig+0x7ae>
 8005720:	2380      	movs	r3, #128	@ 0x80
 8005722:	f887 3043 	strb.w	r3, [r7, #67]	@ 0x43
 8005726:	e038      	b.n	800579a <UART_SetConfig+0x7ae>
 8005728:	697b      	ldr	r3, [r7, #20]
 800572a:	681b      	ldr	r3, [r3, #0]
 800572c:	4a71      	ldr	r2, [pc, #452]	@ (80058f4 <UART_SetConfig+0x908>)
 800572e:	4293      	cmp	r3, r2
 8005730:	d130      	bne.n	8005794 <UART_SetConfig+0x7a8>
 8005732:	4b6f      	ldr	r3, [pc, #444]	@ (80058f0 <UART_SetConfig+0x904>)
 8005734:	6d9b      	ldr	r3, [r3, #88]	@ 0x58
 8005736:	f003 0307 	and.w	r3, r3, #7
 800573a:	2b05      	cmp	r3, #5
 800573c:	d826      	bhi.n	800578c <UART_SetConfig+0x7a0>
 800573e:	a201      	add	r2, pc, #4	@ (adr r2, 8005744 <UART_SetConfig+0x758>)
 8005740:	f852 f023 	ldr.w	pc, [r2, r3, lsl #2]
 8005744:	0800575d 	.word	0x0800575d
 8005748:	08005765 	.word	0x08005765
 800574c:	0800576d 	.word	0x0800576d
 8005750:	08005775 	.word	0x08005775
 8005754:	0800577d 	.word	0x0800577d
 8005758:	08005785 	.word	0x08005785
 800575c:	2302      	movs	r3, #2
 800575e:	f887 3043 	strb.w	r3, [r7, #67]	@ 0x43
 8005762:	e01a      	b.n	800579a <UART_SetConfig+0x7ae>
 8005764:	2304      	movs	r3, #4
 8005766:	f887 3043 	strb.w	r3, [r7, #67]	@ 0x43
 800576a:	e016      	b.n	800579a <UART_SetConfig+0x7ae>
 800576c:	2308      	movs	r3, #8
 800576e:	f887 3043 	strb.w	r3, [r7, #67]	@ 0x43
 8005772:	e012      	b.n	800579a <UART_SetConfig+0x7ae>
 8005774:	2310      	movs	r3, #16
 8005776:	f887 3043 	strb.w	r3, [r7, #67]	@ 0x43
 800577a:	e00e      	b.n	800579a <UART_SetConfig+0x7ae>
 800577c:	2320      	movs	r3, #32
 800577e:	f887 3043 	strb.w	r3, [r7, #67]	@ 0x43
 8005782:	e00a      	b.n	800579a <UART_SetConfig+0x7ae>
 8005784:	2340      	movs	r3, #64	@ 0x40
 8005786:	f887 3043 	strb.w	r3, [r7, #67]	@ 0x43
 800578a:	e006      	b.n	800579a <UART_SetConfig+0x7ae>
 800578c:	2380      	movs	r3, #128	@ 0x80
 800578e:	f887 3043 	strb.w	r3, [r7, #67]	@ 0x43
 8005792:	e002      	b.n	800579a <UART_SetConfig+0x7ae>
 8005794:	2380      	movs	r3, #128	@ 0x80
 8005796:	f887 3043 	strb.w	r3, [r7, #67]	@ 0x43

  /* Check LPUART instance */
  if (UART_INSTANCE_LOWPOWER(huart))
 800579a:	697b      	ldr	r3, [r7, #20]
 800579c:	681b      	ldr	r3, [r3, #0]
 800579e:	4a55      	ldr	r2, [pc, #340]	@ (80058f4 <UART_SetConfig+0x908>)
 80057a0:	4293      	cmp	r3, r2
 80057a2:	f040 80f8 	bne.w	8005996 <UART_SetConfig+0x9aa>
  {
    /* Retrieve frequency clock */
    switch (clocksource)
 80057a6:	f897 3043 	ldrb.w	r3, [r7, #67]	@ 0x43
 80057aa:	2b20      	cmp	r3, #32
 80057ac:	dc46      	bgt.n	800583c <UART_SetConfig+0x850>
 80057ae:	2b02      	cmp	r3, #2
 80057b0:	db75      	blt.n	800589e <UART_SetConfig+0x8b2>
 80057b2:	3b02      	subs	r3, #2
 80057b4:	2b1e      	cmp	r3, #30
 80057b6:	d872      	bhi.n	800589e <UART_SetConfig+0x8b2>
 80057b8:	a201      	add	r2, pc, #4	@ (adr r2, 80057c0 <UART_SetConfig+0x7d4>)
 80057ba:	f852 f023 	ldr.w	pc, [r2, r3, lsl #2]
 80057be:	bf00      	nop
 80057c0:	08005843 	.word	0x08005843
 80057c4:	0800589f 	.word	0x0800589f
 80057c8:	0800584b 	.word	0x0800584b
 80057cc:	0800589f 	.word	0x0800589f
 80057d0:	0800589f 	.word	0x0800589f
 80057d4:	0800589f 	.word	0x0800589f
 80057d8:	0800585b 	.word	0x0800585b
 80057dc:	0800589f 	.word	0x0800589f
 80057e0:	0800589f 	.word	0x0800589f
 80057e4:	0800589f 	.word	0x0800589f
 80057e8:	0800589f 	.word	0x0800589f
 80057ec:	0800589f 	.word	0x0800589f
 80057f0:	0800589f 	.word	0x0800589f
 80057f4:	0800589f 	.word	0x0800589f
 80057f8:	0800586b 	.word	0x0800586b
 80057fc:	0800589f 	.word	0x0800589f
 8005800:	0800589f 	.word	0x0800589f
 8005804:	0800589f 	.word	0x0800589f
 8005808:	0800589f 	.word	0x0800589f
 800580c:	0800589f 	.word	0x0800589f
 8005810:	0800589f 	.word	0x0800589f
 8005814:	0800589f 	.word	0x0800589f
 8005818:	0800589f 	.word	0x0800589f
 800581c:	0800589f 	.word	0x0800589f
 8005820:	0800589f 	.word	0x0800589f
 8005824:	0800589f 	.word	0x0800589f
 8005828:	0800589f 	.word	0x0800589f
 800582c:	0800589f 	.word	0x0800589f
 8005830:	0800589f 	.word	0x0800589f
 8005834:	0800589f 	.word	0x0800589f
 8005838:	08005891 	.word	0x08005891
 800583c:	2b40      	cmp	r3, #64	@ 0x40
 800583e:	d02a      	beq.n	8005896 <UART_SetConfig+0x8aa>
 8005840:	e02d      	b.n	800589e <UART_SetConfig+0x8b2>
    {
      case UART_CLOCKSOURCE_D3PCLK1:
        pclk = HAL_RCCEx_GetD3PCLK1Freq();
 8005842:	f7fe ff57 	bl	80046f4 <HAL_RCCEx_GetD3PCLK1Freq>
 8005846:	63f8      	str	r0, [r7, #60]	@ 0x3c
        break;
 8005848:	e02f      	b.n	80058aa <UART_SetConfig+0x8be>
      case UART_CLOCKSOURCE_PLL2:
        HAL_RCCEx_GetPLL2ClockFreq(&pll2_clocks);
 800584a:	f107 0324 	add.w	r3, r7, #36	@ 0x24
 800584e:	4618      	mov	r0, r3
 8005850:	f7fe ff66 	bl	8004720 <HAL_RCCEx_GetPLL2ClockFreq>
        pclk = pll2_clocks.PLL2_Q_Frequency;
 8005854:	6abb      	ldr	r3, [r7, #40]	@ 0x28
 8005856:	63fb      	str	r3, [r7, #60]	@ 0x3c
        break;
 8005858:	e027      	b.n	80058aa <UART_SetConfig+0x8be>
      case UART_CLOCKSOURCE_PLL3:
        HAL_RCCEx_GetPLL3ClockFreq(&pll3_clocks);
 800585a:	f107 0318 	add.w	r3, r7, #24
 800585e:	4618      	mov	r0, r3
 8005860:	f7ff f8b2 	bl	80049c8 <HAL_RCCEx_GetPLL3ClockFreq>
        pclk = pll3_clocks.PLL3_Q_Frequency;
 8005864:	69fb      	ldr	r3, [r7, #28]
 8005866:	63fb      	str	r3, [r7, #60]	@ 0x3c
        break;
 8005868:	e01f      	b.n	80058aa <UART_SetConfig+0x8be>
      case UART_CLOCKSOURCE_HSI:
        if (__HAL_RCC_GET_FLAG(RCC_FLAG_HSIDIV) != 0U)
 800586a:	4b21      	ldr	r3, [pc, #132]	@ (80058f0 <UART_SetConfig+0x904>)
 800586c:	681b      	ldr	r3, [r3, #0]
 800586e:	f003 0320 	and.w	r3, r3, #32
 8005872:	2b00      	cmp	r3, #0
 8005874:	d009      	beq.n	800588a <UART_SetConfig+0x89e>
        {
          pclk = (uint32_t)(HSI_VALUE >> (__HAL_RCC_GET_HSI_DIVIDER() >> 3U));
 8005876:	4b1e      	ldr	r3, [pc, #120]	@ (80058f0 <UART_SetConfig+0x904>)
 8005878:	681b      	ldr	r3, [r3, #0]
 800587a:	08db      	lsrs	r3, r3, #3
 800587c:	f003 0303 	and.w	r3, r3, #3
 8005880:	4a1d      	ldr	r2, [pc, #116]	@ (80058f8 <UART_SetConfig+0x90c>)
 8005882:	fa22 f303 	lsr.w	r3, r2, r3
 8005886:	63fb      	str	r3, [r7, #60]	@ 0x3c
        }
        else
        {
          pclk = (uint32_t) HSI_VALUE;
        }
        break;
 8005888:	e00f      	b.n	80058aa <UART_SetConfig+0x8be>
          pclk = (uint32_t) HSI_VALUE;
 800588a:	4b1b      	ldr	r3, [pc, #108]	@ (80058f8 <UART_SetConfig+0x90c>)
 800588c:	63fb      	str	r3, [r7, #60]	@ 0x3c
        break;
 800588e:	e00c      	b.n	80058aa <UART_SetConfig+0x8be>
      case UART_CLOCKSOURCE_CSI:
        pclk = (uint32_t) CSI_VALUE;
 8005890:	4b1a      	ldr	r3, [pc, #104]	@ (80058fc <UART_SetConfig+0x910>)
 8005892:	63fb      	str	r3, [r7, #60]	@ 0x3c
        break;
 8005894:	e009      	b.n	80058aa <UART_SetConfig+0x8be>
      case UART_CLOCKSOURCE_LSE:
        pclk = (uint32_t) LSE_VALUE;
 8005896:	f44f 4300 	mov.w	r3, #32768	@ 0x8000
 800589a:	63fb      	str	r3, [r7, #60]	@ 0x3c
        break;
 800589c:	e005      	b.n	80058aa <UART_SetConfig+0x8be>
      default:
        pclk = 0U;
 800589e:	2300      	movs	r3, #0
 80058a0:	63fb      	str	r3, [r7, #60]	@ 0x3c
        ret = HAL_ERROR;
 80058a2:	2301      	movs	r3, #1
 80058a4:	f887 3042 	strb.w	r3, [r7, #66]	@ 0x42
        break;
 80058a8:	bf00      	nop
    }

    /* If proper clock source reported */
    if (pclk != 0U)
 80058aa:	6bfb      	ldr	r3, [r7, #60]	@ 0x3c
 80058ac:	2b00      	cmp	r3, #0
 80058ae:	f000 81ee 	beq.w	8005c8e <UART_SetConfig+0xca2>
    {
      /* Compute clock after Prescaler */
      lpuart_ker_ck_pres = (pclk / UARTPrescTable[huart->Init.ClockPrescaler]);
 80058b2:	697b      	ldr	r3, [r7, #20]
 80058b4:	6a5b      	ldr	r3, [r3, #36]	@ 0x24
 80058b6:	4a12      	ldr	r2, [pc, #72]	@ (8005900 <UART_SetConfig+0x914>)
 80058b8:	f832 3013 	ldrh.w	r3, [r2, r3, lsl #1]
 80058bc:	461a      	mov	r2, r3
 80058be:	6bfb      	ldr	r3, [r7, #60]	@ 0x3c
 80058c0:	fbb3 f3f2 	udiv	r3, r3, r2
 80058c4:	633b      	str	r3, [r7, #48]	@ 0x30

      /* Ensure that Frequency clock is in the range [3 * baudrate, 4096 * baudrate] */
      if ((lpuart_ker_ck_pres < (3U * huart->Init.BaudRate)) ||
 80058c6:	697b      	ldr	r3, [r7, #20]
 80058c8:	685a      	ldr	r2, [r3, #4]
 80058ca:	4613      	mov	r3, r2
 80058cc:	005b      	lsls	r3, r3, #1
 80058ce:	4413      	add	r3, r2
 80058d0:	6b3a      	ldr	r2, [r7, #48]	@ 0x30
 80058d2:	429a      	cmp	r2, r3
 80058d4:	d305      	bcc.n	80058e2 <UART_SetConfig+0x8f6>
          (lpuart_ker_ck_pres > (4096U * huart->Init.BaudRate)))
 80058d6:	697b      	ldr	r3, [r7, #20]
 80058d8:	685b      	ldr	r3, [r3, #4]
 80058da:	031b      	lsls	r3, r3, #12
      if ((lpuart_ker_ck_pres < (3U * huart->Init.BaudRate)) ||
 80058dc:	6b3a      	ldr	r2, [r7, #48]	@ 0x30
 80058de:	429a      	cmp	r2, r3
 80058e0:	d910      	bls.n	8005904 <UART_SetConfig+0x918>
      {
        ret = HAL_ERROR;
 80058e2:	2301      	movs	r3, #1
 80058e4:	f887 3042 	strb.w	r3, [r7, #66]	@ 0x42
 80058e8:	e1d1      	b.n	8005c8e <UART_SetConfig+0xca2>
 80058ea:	bf00      	nop
 80058ec:	40011c00 	.word	0x40011c00
 80058f0:	58024400 	.word	0x58024400
 80058f4:	58000c00 	.word	0x58000c00
 80058f8:	03d09000 	.word	0x03d09000
 80058fc:	003d0900 	.word	0x003d0900
 8005900:	08006208 	.word	0x08006208
      }
      else
      {
        /* Check computed UsartDiv value is in allocated range
           (it is forbidden to write values lower than 0x300 in the LPUART_BRR register) */
        usartdiv = (uint32_t)(UART_DIV_LPUART(pclk, huart->Init.BaudRate, huart->Init.ClockPrescaler));
 8005904:	6bfb      	ldr	r3, [r7, #60]	@ 0x3c
 8005906:	2200      	movs	r2, #0
 8005908:	60bb      	str	r3, [r7, #8]
 800590a:	60fa      	str	r2, [r7, #12]
 800590c:	697b      	ldr	r3, [r7, #20]
 800590e:	6a5b      	ldr	r3, [r3, #36]	@ 0x24
 8005910:	4ac0      	ldr	r2, [pc, #768]	@ (8005c14 <UART_SetConfig+0xc28>)
 8005912:	f832 3013 	ldrh.w	r3, [r2, r3, lsl #1]
 8005916:	b29b      	uxth	r3, r3
 8005918:	2200      	movs	r2, #0
 800591a:	603b      	str	r3, [r7, #0]
 800591c:	607a      	str	r2, [r7, #4]
 800591e:	e9d7 2300 	ldrd	r2, r3, [r7]
 8005922:	e9d7 0102 	ldrd	r0, r1, [r7, #8]
 8005926:	f7fa fcf1 	bl	800030c <__aeabi_uldivmod>
 800592a:	4602      	mov	r2, r0
 800592c:	460b      	mov	r3, r1
 800592e:	4610      	mov	r0, r2
 8005930:	4619      	mov	r1, r3
 8005932:	f04f 0200 	mov.w	r2, #0
 8005936:	f04f 0300 	mov.w	r3, #0
 800593a:	020b      	lsls	r3, r1, #8
 800593c:	ea43 6310 	orr.w	r3, r3, r0, lsr #24
 8005940:	0202      	lsls	r2, r0, #8
 8005942:	6979      	ldr	r1, [r7, #20]
 8005944:	6849      	ldr	r1, [r1, #4]
 8005946:	0849      	lsrs	r1, r1, #1
 8005948:	2000      	movs	r0, #0
 800594a:	460c      	mov	r4, r1
 800594c:	4605      	mov	r5, r0
 800594e:	eb12 0804 	adds.w	r8, r2, r4
 8005952:	eb43 0905 	adc.w	r9, r3, r5
 8005956:	697b      	ldr	r3, [r7, #20]
 8005958:	685b      	ldr	r3, [r3, #4]
 800595a:	2200      	movs	r2, #0
 800595c:	469a      	mov	sl, r3
 800595e:	4693      	mov	fp, r2
 8005960:	4652      	mov	r2, sl
 8005962:	465b      	mov	r3, fp
 8005964:	4640      	mov	r0, r8
 8005966:	4649      	mov	r1, r9
 8005968:	f7fa fcd0 	bl	800030c <__aeabi_uldivmod>
 800596c:	4602      	mov	r2, r0
 800596e:	460b      	mov	r3, r1
 8005970:	4613      	mov	r3, r2
 8005972:	63bb      	str	r3, [r7, #56]	@ 0x38
        if ((usartdiv >= LPUART_BRR_MIN) && (usartdiv <= LPUART_BRR_MAX))
 8005974:	6bbb      	ldr	r3, [r7, #56]	@ 0x38
 8005976:	f5b3 7f40 	cmp.w	r3, #768	@ 0x300
 800597a:	d308      	bcc.n	800598e <UART_SetConfig+0x9a2>
 800597c:	6bbb      	ldr	r3, [r7, #56]	@ 0x38
 800597e:	f5b3 1f80 	cmp.w	r3, #1048576	@ 0x100000
 8005982:	d204      	bcs.n	800598e <UART_SetConfig+0x9a2>
        {
          huart->Instance->BRR = usartdiv;
 8005984:	697b      	ldr	r3, [r7, #20]
 8005986:	681b      	ldr	r3, [r3, #0]
 8005988:	6bba      	ldr	r2, [r7, #56]	@ 0x38
 800598a:	60da      	str	r2, [r3, #12]
 800598c:	e17f      	b.n	8005c8e <UART_SetConfig+0xca2>
        }
        else
        {
          ret = HAL_ERROR;
 800598e:	2301      	movs	r3, #1
 8005990:	f887 3042 	strb.w	r3, [r7, #66]	@ 0x42
 8005994:	e17b      	b.n	8005c8e <UART_SetConfig+0xca2>
      } /* if ( (lpuart_ker_ck_pres < (3 * huart->Init.BaudRate) ) ||
                (lpuart_ker_ck_pres > (4096 * huart->Init.BaudRate) )) */
    } /* if (pclk != 0) */
  }
  /* Check UART Over Sampling to set Baud Rate Register */
  else if (huart->Init.OverSampling == UART_OVERSAMPLING_8)
 8005996:	697b      	ldr	r3, [r7, #20]
 8005998:	69db      	ldr	r3, [r3, #28]
 800599a:	f5b3 4f00 	cmp.w	r3, #32768	@ 0x8000
 800599e:	f040 80bd 	bne.w	8005b1c <UART_SetConfig+0xb30>
  {
    switch (clocksource)
 80059a2:	f897 3043 	ldrb.w	r3, [r7, #67]	@ 0x43
 80059a6:	2b20      	cmp	r3, #32
 80059a8:	dc48      	bgt.n	8005a3c <UART_SetConfig+0xa50>
 80059aa:	2b00      	cmp	r3, #0
 80059ac:	db7b      	blt.n	8005aa6 <UART_SetConfig+0xaba>
 80059ae:	2b20      	cmp	r3, #32
 80059b0:	d879      	bhi.n	8005aa6 <UART_SetConfig+0xaba>
 80059b2:	a201      	add	r2, pc, #4	@ (adr r2, 80059b8 <UART_SetConfig+0x9cc>)
 80059b4:	f852 f023 	ldr.w	pc, [r2, r3, lsl #2]
 80059b8:	08005a43 	.word	0x08005a43
 80059bc:	08005a4b 	.word	0x08005a4b
 80059c0:	08005aa7 	.word	0x08005aa7
 80059c4:	08005aa7 	.word	0x08005aa7
 80059c8:	08005a53 	.word	0x08005a53
 80059cc:	08005aa7 	.word	0x08005aa7
 80059d0:	08005aa7 	.word	0x08005aa7
 80059d4:	08005aa7 	.word	0x08005aa7
 80059d8:	08005a63 	.word	0x08005a63
 80059dc:	08005aa7 	.word	0x08005aa7
 80059e0:	08005aa7 	.word	0x08005aa7
 80059e4:	08005aa7 	.word	0x08005aa7
 80059e8:	08005aa7 	.word	0x08005aa7
 80059ec:	08005aa7 	.word	0x08005aa7
 80059f0:	08005aa7 	.word	0x08005aa7
 80059f4:	08005aa7 	.word	0x08005aa7
 80059f8:	08005a73 	.word	0x08005a73
 80059fc:	08005aa7 	.word	0x08005aa7
 8005a00:	08005aa7 	.word	0x08005aa7
 8005a04:	08005aa7 	.word	0x08005aa7
 8005a08:	08005aa7 	.word	0x08005aa7
 8005a0c:	08005aa7 	.word	0x08005aa7
 8005a10:	08005aa7 	.word	0x08005aa7
 8005a14:	08005aa7 	.word	0x08005aa7
 8005a18:	08005aa7 	.word	0x08005aa7
 8005a1c:	08005aa7 	.word	0x08005aa7
 8005a20:	08005aa7 	.word	0x08005aa7
 8005a24:	08005aa7 	.word	0x08005aa7
 8005a28:	08005aa7 	.word	0x08005aa7
 8005a2c:	08005aa7 	.word	0x08005aa7
 8005a30:	08005aa7 	.word	0x08005aa7
 8005a34:	08005aa7 	.word	0x08005aa7
 8005a38:	08005a99 	.word	0x08005a99
 8005a3c:	2b40      	cmp	r3, #64	@ 0x40
 8005a3e:	d02e      	beq.n	8005a9e <UART_SetConfig+0xab2>
 8005a40:	e031      	b.n	8005aa6 <UART_SetConfig+0xaba>
    {
      case UART_CLOCKSOURCE_D2PCLK1:
        pclk = HAL_RCC_GetPCLK1Freq();
 8005a42:	f7fd fc8b 	bl	800335c <HAL_RCC_GetPCLK1Freq>
 8005a46:	63f8      	str	r0, [r7, #60]	@ 0x3c
        break;
 8005a48:	e033      	b.n	8005ab2 <UART_SetConfig+0xac6>
      case UART_CLOCKSOURCE_D2PCLK2:
        pclk = HAL_RCC_GetPCLK2Freq();
 8005a4a:	f7fd fc9d 	bl	8003388 <HAL_RCC_GetPCLK2Freq>
 8005a4e:	63f8      	str	r0, [r7, #60]	@ 0x3c
        break;
 8005a50:	e02f      	b.n	8005ab2 <UART_SetConfig+0xac6>
      case UART_CLOCKSOURCE_PLL2:
        HAL_RCCEx_GetPLL2ClockFreq(&pll2_clocks);
 8005a52:	f107 0324 	add.w	r3, r7, #36	@ 0x24
 8005a56:	4618      	mov	r0, r3
 8005a58:	f7fe fe62 	bl	8004720 <HAL_RCCEx_GetPLL2ClockFreq>
        pclk = pll2_clocks.PLL2_Q_Frequency;
 8005a5c:	6abb      	ldr	r3, [r7, #40]	@ 0x28
 8005a5e:	63fb      	str	r3, [r7, #60]	@ 0x3c
        break;
 8005a60:	e027      	b.n	8005ab2 <UART_SetConfig+0xac6>
      case UART_CLOCKSOURCE_PLL3:
        HAL_RCCEx_GetPLL3ClockFreq(&pll3_clocks);
 8005a62:	f107 0318 	add.w	r3, r7, #24
 8005a66:	4618      	mov	r0, r3
 8005a68:	f7fe ffae 	bl	80049c8 <HAL_RCCEx_GetPLL3ClockFreq>
        pclk = pll3_clocks.PLL3_Q_Frequency;
 8005a6c:	69fb      	ldr	r3, [r7, #28]
 8005a6e:	63fb      	str	r3, [r7, #60]	@ 0x3c
        break;
 8005a70:	e01f      	b.n	8005ab2 <UART_SetConfig+0xac6>
      case UART_CLOCKSOURCE_HSI:
        if (__HAL_RCC_GET_FLAG(RCC_FLAG_HSIDIV) != 0U)
 8005a72:	4b69      	ldr	r3, [pc, #420]	@ (8005c18 <UART_SetConfig+0xc2c>)
 8005a74:	681b      	ldr	r3, [r3, #0]
 8005a76:	f003 0320 	and.w	r3, r3, #32
 8005a7a:	2b00      	cmp	r3, #0
 8005a7c:	d009      	beq.n	8005a92 <UART_SetConfig+0xaa6>
        {
          pclk = (uint32_t)(HSI_VALUE >> (__HAL_RCC_GET_HSI_DIVIDER() >> 3U));
 8005a7e:	4b66      	ldr	r3, [pc, #408]	@ (8005c18 <UART_SetConfig+0xc2c>)
 8005a80:	681b      	ldr	r3, [r3, #0]
 8005a82:	08db      	lsrs	r3, r3, #3
 8005a84:	f003 0303 	and.w	r3, r3, #3
 8005a88:	4a64      	ldr	r2, [pc, #400]	@ (8005c1c <UART_SetConfig+0xc30>)
 8005a8a:	fa22 f303 	lsr.w	r3, r2, r3
 8005a8e:	63fb      	str	r3, [r7, #60]	@ 0x3c
        }
        else
        {
          pclk = (uint32_t) HSI_VALUE;
        }
        break;
 8005a90:	e00f      	b.n	8005ab2 <UART_SetConfig+0xac6>
          pclk = (uint32_t) HSI_VALUE;
 8005a92:	4b62      	ldr	r3, [pc, #392]	@ (8005c1c <UART_SetConfig+0xc30>)
 8005a94:	63fb      	str	r3, [r7, #60]	@ 0x3c
        break;
 8005a96:	e00c      	b.n	8005ab2 <UART_SetConfig+0xac6>
      case UART_CLOCKSOURCE_CSI:
        pclk = (uint32_t) CSI_VALUE;
 8005a98:	4b61      	ldr	r3, [pc, #388]	@ (8005c20 <UART_SetConfig+0xc34>)
 8005a9a:	63fb      	str	r3, [r7, #60]	@ 0x3c
        break;
 8005a9c:	e009      	b.n	8005ab2 <UART_SetConfig+0xac6>
      case UART_CLOCKSOURCE_LSE:
        pclk = (uint32_t) LSE_VALUE;
 8005a9e:	f44f 4300 	mov.w	r3, #32768	@ 0x8000
 8005aa2:	63fb      	str	r3, [r7, #60]	@ 0x3c
        break;
 8005aa4:	e005      	b.n	8005ab2 <UART_SetConfig+0xac6>
      default:
        pclk = 0U;
 8005aa6:	2300      	movs	r3, #0
 8005aa8:	63fb      	str	r3, [r7, #60]	@ 0x3c
        ret = HAL_ERROR;
 8005aaa:	2301      	movs	r3, #1
 8005aac:	f887 3042 	strb.w	r3, [r7, #66]	@ 0x42
        break;
 8005ab0:	bf00      	nop
    }

    /* USARTDIV must be greater than or equal to 0d16 */
    if (pclk != 0U)
 8005ab2:	6bfb      	ldr	r3, [r7, #60]	@ 0x3c
 8005ab4:	2b00      	cmp	r3, #0
 8005ab6:	f000 80ea 	beq.w	8005c8e <UART_SetConfig+0xca2>
    {
      usartdiv = (uint32_t)(UART_DIV_SAMPLING8(pclk, huart->Init.BaudRate, huart->Init.ClockPrescaler));
 8005aba:	697b      	ldr	r3, [r7, #20]
 8005abc:	6a5b      	ldr	r3, [r3, #36]	@ 0x24
 8005abe:	4a55      	ldr	r2, [pc, #340]	@ (8005c14 <UART_SetConfig+0xc28>)
 8005ac0:	f832 3013 	ldrh.w	r3, [r2, r3, lsl #1]
 8005ac4:	461a      	mov	r2, r3
 8005ac6:	6bfb      	ldr	r3, [r7, #60]	@ 0x3c
 8005ac8:	fbb3 f3f2 	udiv	r3, r3, r2
 8005acc:	005a      	lsls	r2, r3, #1
 8005ace:	697b      	ldr	r3, [r7, #20]
 8005ad0:	685b      	ldr	r3, [r3, #4]
 8005ad2:	085b      	lsrs	r3, r3, #1
 8005ad4:	441a      	add	r2, r3
 8005ad6:	697b      	ldr	r3, [r7, #20]
 8005ad8:	685b      	ldr	r3, [r3, #4]
 8005ada:	fbb2 f3f3 	udiv	r3, r2, r3
 8005ade:	63bb      	str	r3, [r7, #56]	@ 0x38
      if ((usartdiv >= UART_BRR_MIN) && (usartdiv <= UART_BRR_MAX))
 8005ae0:	6bbb      	ldr	r3, [r7, #56]	@ 0x38
 8005ae2:	2b0f      	cmp	r3, #15
 8005ae4:	d916      	bls.n	8005b14 <UART_SetConfig+0xb28>
 8005ae6:	6bbb      	ldr	r3, [r7, #56]	@ 0x38
 8005ae8:	f5b3 3f80 	cmp.w	r3, #65536	@ 0x10000
 8005aec:	d212      	bcs.n	8005b14 <UART_SetConfig+0xb28>
      {
        brrtemp = (uint16_t)(usartdiv & 0xFFF0U);
 8005aee:	6bbb      	ldr	r3, [r7, #56]	@ 0x38
 8005af0:	b29b      	uxth	r3, r3
 8005af2:	f023 030f 	bic.w	r3, r3, #15
 8005af6:	86fb      	strh	r3, [r7, #54]	@ 0x36
        brrtemp |= (uint16_t)((usartdiv & (uint16_t)0x000FU) >> 1U);
 8005af8:	6bbb      	ldr	r3, [r7, #56]	@ 0x38
 8005afa:	085b      	lsrs	r3, r3, #1
 8005afc:	b29b      	uxth	r3, r3
 8005afe:	f003 0307 	and.w	r3, r3, #7
 8005b02:	b29a      	uxth	r2, r3
 8005b04:	8efb      	ldrh	r3, [r7, #54]	@ 0x36
 8005b06:	4313      	orrs	r3, r2
 8005b08:	86fb      	strh	r3, [r7, #54]	@ 0x36
        huart->Instance->BRR = brrtemp;
 8005b0a:	697b      	ldr	r3, [r7, #20]
 8005b0c:	681b      	ldr	r3, [r3, #0]
 8005b0e:	8efa      	ldrh	r2, [r7, #54]	@ 0x36
 8005b10:	60da      	str	r2, [r3, #12]
 8005b12:	e0bc      	b.n	8005c8e <UART_SetConfig+0xca2>
      }
      else
      {
        ret = HAL_ERROR;
 8005b14:	2301      	movs	r3, #1
 8005b16:	f887 3042 	strb.w	r3, [r7, #66]	@ 0x42
 8005b1a:	e0b8      	b.n	8005c8e <UART_SetConfig+0xca2>
      }
    }
  }
  else
  {
    switch (clocksource)
 8005b1c:	f897 3043 	ldrb.w	r3, [r7, #67]	@ 0x43
 8005b20:	2b20      	cmp	r3, #32
 8005b22:	dc4b      	bgt.n	8005bbc <UART_SetConfig+0xbd0>
 8005b24:	2b00      	cmp	r3, #0
 8005b26:	f2c0 8087 	blt.w	8005c38 <UART_SetConfig+0xc4c>
 8005b2a:	2b20      	cmp	r3, #32
 8005b2c:	f200 8084 	bhi.w	8005c38 <UART_SetConfig+0xc4c>
 8005b30:	a201      	add	r2, pc, #4	@ (adr r2, 8005b38 <UART_SetConfig+0xb4c>)
 8005b32:	f852 f023 	ldr.w	pc, [r2, r3, lsl #2]
 8005b36:	bf00      	nop
 8005b38:	08005bc3 	.word	0x08005bc3
 8005b3c:	08005bcb 	.word	0x08005bcb
 8005b40:	08005c39 	.word	0x08005c39
 8005b44:	08005c39 	.word	0x08005c39
 8005b48:	08005bd3 	.word	0x08005bd3
 8005b4c:	08005c39 	.word	0x08005c39
 8005b50:	08005c39 	.word	0x08005c39
 8005b54:	08005c39 	.word	0x08005c39
 8005b58:	08005be3 	.word	0x08005be3
 8005b5c:	08005c39 	.word	0x08005c39
 8005b60:	08005c39 	.word	0x08005c39
 8005b64:	08005c39 	.word	0x08005c39
 8005b68:	08005c39 	.word	0x08005c39
 8005b6c:	08005c39 	.word	0x08005c39
 8005b70:	08005c39 	.word	0x08005c39
 8005b74:	08005c39 	.word	0x08005c39
 8005b78:	08005bf3 	.word	0x08005bf3
 8005b7c:	08005c39 	.word	0x08005c39
 8005b80:	08005c39 	.word	0x08005c39
 8005b84:	08005c39 	.word	0x08005c39
 8005b88:	08005c39 	.word	0x08005c39
 8005b8c:	08005c39 	.word	0x08005c39
 8005b90:	08005c39 	.word	0x08005c39
 8005b94:	08005c39 	.word	0x08005c39
 8005b98:	08005c39 	.word	0x08005c39
 8005b9c:	08005c39 	.word	0x08005c39
 8005ba0:	08005c39 	.word	0x08005c39
 8005ba4:	08005c39 	.word	0x08005c39
 8005ba8:	08005c39 	.word	0x08005c39
 8005bac:	08005c39 	.word	0x08005c39
 8005bb0:	08005c39 	.word	0x08005c39
 8005bb4:	08005c39 	.word	0x08005c39
 8005bb8:	08005c2b 	.word	0x08005c2b
 8005bbc:	2b40      	cmp	r3, #64	@ 0x40
 8005bbe:	d037      	beq.n	8005c30 <UART_SetConfig+0xc44>
 8005bc0:	e03a      	b.n	8005c38 <UART_SetConfig+0xc4c>
    {
      case UART_CLOCKSOURCE_D2PCLK1:
        pclk = HAL_RCC_GetPCLK1Freq();
 8005bc2:	f7fd fbcb 	bl	800335c <HAL_RCC_GetPCLK1Freq>
 8005bc6:	63f8      	str	r0, [r7, #60]	@ 0x3c
        break;
 8005bc8:	e03c      	b.n	8005c44 <UART_SetConfig+0xc58>
      case UART_CLOCKSOURCE_D2PCLK2:
        pclk = HAL_RCC_GetPCLK2Freq();
 8005bca:	f7fd fbdd 	bl	8003388 <HAL_RCC_GetPCLK2Freq>
 8005bce:	63f8      	str	r0, [r7, #60]	@ 0x3c
        break;
 8005bd0:	e038      	b.n	8005c44 <UART_SetConfig+0xc58>
      case UART_CLOCKSOURCE_PLL2:
        HAL_RCCEx_GetPLL2ClockFreq(&pll2_clocks);
 8005bd2:	f107 0324 	add.w	r3, r7, #36	@ 0x24
 8005bd6:	4618      	mov	r0, r3
 8005bd8:	f7fe fda2 	bl	8004720 <HAL_RCCEx_GetPLL2ClockFreq>
        pclk = pll2_clocks.PLL2_Q_Frequency;
 8005bdc:	6abb      	ldr	r3, [r7, #40]	@ 0x28
 8005bde:	63fb      	str	r3, [r7, #60]	@ 0x3c
        break;
 8005be0:	e030      	b.n	8005c44 <UART_SetConfig+0xc58>
      case UART_CLOCKSOURCE_PLL3:
        HAL_RCCEx_GetPLL3ClockFreq(&pll3_clocks);
 8005be2:	f107 0318 	add.w	r3, r7, #24
 8005be6:	4618      	mov	r0, r3
 8005be8:	f7fe feee 	bl	80049c8 <HAL_RCCEx_GetPLL3ClockFreq>
        pclk = pll3_clocks.PLL3_Q_Frequency;
 8005bec:	69fb      	ldr	r3, [r7, #28]
 8005bee:	63fb      	str	r3, [r7, #60]	@ 0x3c
        break;
 8005bf0:	e028      	b.n	8005c44 <UART_SetConfig+0xc58>
      case UART_CLOCKSOURCE_HSI:
        if (__HAL_RCC_GET_FLAG(RCC_FLAG_HSIDIV) != 0U)
 8005bf2:	4b09      	ldr	r3, [pc, #36]	@ (8005c18 <UART_SetConfig+0xc2c>)
 8005bf4:	681b      	ldr	r3, [r3, #0]
 8005bf6:	f003 0320 	and.w	r3, r3, #32
 8005bfa:	2b00      	cmp	r3, #0
 8005bfc:	d012      	beq.n	8005c24 <UART_SetConfig+0xc38>
        {
          pclk = (uint32_t)(HSI_VALUE >> (__HAL_RCC_GET_HSI_DIVIDER() >> 3U));
 8005bfe:	4b06      	ldr	r3, [pc, #24]	@ (8005c18 <UART_SetConfig+0xc2c>)
 8005c00:	681b      	ldr	r3, [r3, #0]
 8005c02:	08db      	lsrs	r3, r3, #3
 8005c04:	f003 0303 	and.w	r3, r3, #3
 8005c08:	4a04      	ldr	r2, [pc, #16]	@ (8005c1c <UART_SetConfig+0xc30>)
 8005c0a:	fa22 f303 	lsr.w	r3, r2, r3
 8005c0e:	63fb      	str	r3, [r7, #60]	@ 0x3c
        }
        else
        {
          pclk = (uint32_t) HSI_VALUE;
        }
        break;
 8005c10:	e018      	b.n	8005c44 <UART_SetConfig+0xc58>
 8005c12:	bf00      	nop
 8005c14:	08006208 	.word	0x08006208
 8005c18:	58024400 	.word	0x58024400
 8005c1c:	03d09000 	.word	0x03d09000
 8005c20:	003d0900 	.word	0x003d0900
          pclk = (uint32_t) HSI_VALUE;
 8005c24:	4b24      	ldr	r3, [pc, #144]	@ (8005cb8 <UART_SetConfig+0xccc>)
 8005c26:	63fb      	str	r3, [r7, #60]	@ 0x3c
        break;
 8005c28:	e00c      	b.n	8005c44 <UART_SetConfig+0xc58>
      case UART_CLOCKSOURCE_CSI:
        pclk = (uint32_t) CSI_VALUE;
 8005c2a:	4b24      	ldr	r3, [pc, #144]	@ (8005cbc <UART_SetConfig+0xcd0>)
 8005c2c:	63fb      	str	r3, [r7, #60]	@ 0x3c
        break;
 8005c2e:	e009      	b.n	8005c44 <UART_SetConfig+0xc58>
      case UART_CLOCKSOURCE_LSE:
        pclk = (uint32_t) LSE_VALUE;
 8005c30:	f44f 4300 	mov.w	r3, #32768	@ 0x8000
 8005c34:	63fb      	str	r3, [r7, #60]	@ 0x3c
        break;
 8005c36:	e005      	b.n	8005c44 <UART_SetConfig+0xc58>
      default:
        pclk = 0U;
 8005c38:	2300      	movs	r3, #0
 8005c3a:	63fb      	str	r3, [r7, #60]	@ 0x3c
        ret = HAL_ERROR;
 8005c3c:	2301      	movs	r3, #1
 8005c3e:	f887 3042 	strb.w	r3, [r7, #66]	@ 0x42
        break;
 8005c42:	bf00      	nop
    }

    if (pclk != 0U)
 8005c44:	6bfb      	ldr	r3, [r7, #60]	@ 0x3c
 8005c46:	2b00      	cmp	r3, #0
 8005c48:	d021      	beq.n	8005c8e <UART_SetConfig+0xca2>
    {
      /* USARTDIV must be greater than or equal to 0d16 */
      usartdiv = (uint32_t)(UART_DIV_SAMPLING16(pclk, huart->Init.BaudRate, huart->Init.ClockPrescaler));
 8005c4a:	697b      	ldr	r3, [r7, #20]
 8005c4c:	6a5b      	ldr	r3, [r3, #36]	@ 0x24
 8005c4e:	4a1c      	ldr	r2, [pc, #112]	@ (8005cc0 <UART_SetConfig+0xcd4>)
 8005c50:	f832 3013 	ldrh.w	r3, [r2, r3, lsl #1]
 8005c54:	461a      	mov	r2, r3
 8005c56:	6bfb      	ldr	r3, [r7, #60]	@ 0x3c
 8005c58:	fbb3 f2f2 	udiv	r2, r3, r2
 8005c5c:	697b      	ldr	r3, [r7, #20]
 8005c5e:	685b      	ldr	r3, [r3, #4]
 8005c60:	085b      	lsrs	r3, r3, #1
 8005c62:	441a      	add	r2, r3
 8005c64:	697b      	ldr	r3, [r7, #20]
 8005c66:	685b      	ldr	r3, [r3, #4]
 8005c68:	fbb2 f3f3 	udiv	r3, r2, r3
 8005c6c:	63bb      	str	r3, [r7, #56]	@ 0x38
      if ((usartdiv >= UART_BRR_MIN) && (usartdiv <= UART_BRR_MAX))
 8005c6e:	6bbb      	ldr	r3, [r7, #56]	@ 0x38
 8005c70:	2b0f      	cmp	r3, #15
 8005c72:	d909      	bls.n	8005c88 <UART_SetConfig+0xc9c>
 8005c74:	6bbb      	ldr	r3, [r7, #56]	@ 0x38
 8005c76:	f5b3 3f80 	cmp.w	r3, #65536	@ 0x10000
 8005c7a:	d205      	bcs.n	8005c88 <UART_SetConfig+0xc9c>
      {
        huart->Instance->BRR = (uint16_t)usartdiv;
 8005c7c:	6bbb      	ldr	r3, [r7, #56]	@ 0x38
 8005c7e:	b29a      	uxth	r2, r3
 8005c80:	697b      	ldr	r3, [r7, #20]
 8005c82:	681b      	ldr	r3, [r3, #0]
 8005c84:	60da      	str	r2, [r3, #12]
 8005c86:	e002      	b.n	8005c8e <UART_SetConfig+0xca2>
      }
      else
      {
        ret = HAL_ERROR;
 8005c88:	2301      	movs	r3, #1
 8005c8a:	f887 3042 	strb.w	r3, [r7, #66]	@ 0x42
      }
    }
  }

  /* Initialize the number of data to process during RX/TX ISR execution */
  huart->NbTxDataToProcess = 1;
 8005c8e:	697b      	ldr	r3, [r7, #20]
 8005c90:	2201      	movs	r2, #1
 8005c92:	f8a3 206a 	strh.w	r2, [r3, #106]	@ 0x6a
  huart->NbRxDataToProcess = 1;
 8005c96:	697b      	ldr	r3, [r7, #20]
 8005c98:	2201      	movs	r2, #1
 8005c9a:	f8a3 2068 	strh.w	r2, [r3, #104]	@ 0x68

  /* Clear ISR function pointers */
  huart->RxISR = NULL;
 8005c9e:	697b      	ldr	r3, [r7, #20]
 8005ca0:	2200      	movs	r2, #0
 8005ca2:	675a      	str	r2, [r3, #116]	@ 0x74
  huart->TxISR = NULL;
 8005ca4:	697b      	ldr	r3, [r7, #20]
 8005ca6:	2200      	movs	r2, #0
 8005ca8:	679a      	str	r2, [r3, #120]	@ 0x78

  return ret;
 8005caa:	f897 3042 	ldrb.w	r3, [r7, #66]	@ 0x42
}
 8005cae:	4618      	mov	r0, r3
 8005cb0:	3748      	adds	r7, #72	@ 0x48
 8005cb2:	46bd      	mov	sp, r7
 8005cb4:	e8bd 8fb0 	ldmia.w	sp!, {r4, r5, r7, r8, r9, sl, fp, pc}
 8005cb8:	03d09000 	.word	0x03d09000
 8005cbc:	003d0900 	.word	0x003d0900
 8005cc0:	08006208 	.word	0x08006208

08005cc4 <UART_AdvFeatureConfig>:
  * @brief Configure the UART peripheral advanced features.
  * @param huart UART handle.
  * @retval None
  */
void UART_AdvFeatureConfig(UART_HandleTypeDef *huart)
{
 8005cc4:	b480      	push	{r7}
 8005cc6:	b083      	sub	sp, #12
 8005cc8:	af00      	add	r7, sp, #0
 8005cca:	6078      	str	r0, [r7, #4]
  /* Check whether the set of advanced features to configure is properly set */
  assert_param(IS_UART_ADVFEATURE_INIT(huart->AdvancedInit.AdvFeatureInit));

  /* if required, configure RX/TX pins swap */
  if (HAL_IS_BIT_SET(huart->AdvancedInit.AdvFeatureInit, UART_ADVFEATURE_SWAP_INIT))
 8005ccc:	687b      	ldr	r3, [r7, #4]
 8005cce:	6a9b      	ldr	r3, [r3, #40]	@ 0x28
 8005cd0:	f003 0308 	and.w	r3, r3, #8
 8005cd4:	2b00      	cmp	r3, #0
 8005cd6:	d00a      	beq.n	8005cee <UART_AdvFeatureConfig+0x2a>
  {
    assert_param(IS_UART_ADVFEATURE_SWAP(huart->AdvancedInit.Swap));
    MODIFY_REG(huart->Instance->CR2, USART_CR2_SWAP, huart->AdvancedInit.Swap);
 8005cd8:	687b      	ldr	r3, [r7, #4]
 8005cda:	681b      	ldr	r3, [r3, #0]
 8005cdc:	685b      	ldr	r3, [r3, #4]
 8005cde:	f423 4100 	bic.w	r1, r3, #32768	@ 0x8000
 8005ce2:	687b      	ldr	r3, [r7, #4]
 8005ce4:	6b9a      	ldr	r2, [r3, #56]	@ 0x38
 8005ce6:	687b      	ldr	r3, [r7, #4]
 8005ce8:	681b      	ldr	r3, [r3, #0]
 8005cea:	430a      	orrs	r2, r1
 8005cec:	605a      	str	r2, [r3, #4]
  }

  /* if required, configure TX pin active level inversion */
  if (HAL_IS_BIT_SET(huart->AdvancedInit.AdvFeatureInit, UART_ADVFEATURE_TXINVERT_INIT))
 8005cee:	687b      	ldr	r3, [r7, #4]
 8005cf0:	6a9b      	ldr	r3, [r3, #40]	@ 0x28
 8005cf2:	f003 0301 	and.w	r3, r3, #1
 8005cf6:	2b00      	cmp	r3, #0
 8005cf8:	d00a      	beq.n	8005d10 <UART_AdvFeatureConfig+0x4c>
  {
    assert_param(IS_UART_ADVFEATURE_TXINV(huart->AdvancedInit.TxPinLevelInvert));
    MODIFY_REG(huart->Instance->CR2, USART_CR2_TXINV, huart->AdvancedInit.TxPinLevelInvert);
 8005cfa:	687b      	ldr	r3, [r7, #4]
 8005cfc:	681b      	ldr	r3, [r3, #0]
 8005cfe:	685b      	ldr	r3, [r3, #4]
 8005d00:	f423 3100 	bic.w	r1, r3, #131072	@ 0x20000
 8005d04:	687b      	ldr	r3, [r7, #4]
 8005d06:	6ada      	ldr	r2, [r3, #44]	@ 0x2c
 8005d08:	687b      	ldr	r3, [r7, #4]
 8005d0a:	681b      	ldr	r3, [r3, #0]
 8005d0c:	430a      	orrs	r2, r1
 8005d0e:	605a      	str	r2, [r3, #4]
  }

  /* if required, configure RX pin active level inversion */
  if (HAL_IS_BIT_SET(huart->AdvancedInit.AdvFeatureInit, UART_ADVFEATURE_RXINVERT_INIT))
 8005d10:	687b      	ldr	r3, [r7, #4]
 8005d12:	6a9b      	ldr	r3, [r3, #40]	@ 0x28
 8005d14:	f003 0302 	and.w	r3, r3, #2
 8005d18:	2b00      	cmp	r3, #0
 8005d1a:	d00a      	beq.n	8005d32 <UART_AdvFeatureConfig+0x6e>
  {
    assert_param(IS_UART_ADVFEATURE_RXINV(huart->AdvancedInit.RxPinLevelInvert));
    MODIFY_REG(huart->Instance->CR2, USART_CR2_RXINV, huart->AdvancedInit.RxPinLevelInvert);
 8005d1c:	687b      	ldr	r3, [r7, #4]
 8005d1e:	681b      	ldr	r3, [r3, #0]
 8005d20:	685b      	ldr	r3, [r3, #4]
 8005d22:	f423 3180 	bic.w	r1, r3, #65536	@ 0x10000
 8005d26:	687b      	ldr	r3, [r7, #4]
 8005d28:	6b1a      	ldr	r2, [r3, #48]	@ 0x30
 8005d2a:	687b      	ldr	r3, [r7, #4]
 8005d2c:	681b      	ldr	r3, [r3, #0]
 8005d2e:	430a      	orrs	r2, r1
 8005d30:	605a      	str	r2, [r3, #4]
  }

  /* if required, configure data inversion */
  if (HAL_IS_BIT_SET(huart->AdvancedInit.AdvFeatureInit, UART_ADVFEATURE_DATAINVERT_INIT))
 8005d32:	687b      	ldr	r3, [r7, #4]
 8005d34:	6a9b      	ldr	r3, [r3, #40]	@ 0x28
 8005d36:	f003 0304 	and.w	r3, r3, #4
 8005d3a:	2b00      	cmp	r3, #0
 8005d3c:	d00a      	beq.n	8005d54 <UART_AdvFeatureConfig+0x90>
  {
    assert_param(IS_UART_ADVFEATURE_DATAINV(huart->AdvancedInit.DataInvert));
    MODIFY_REG(huart->Instance->CR2, USART_CR2_DATAINV, huart->AdvancedInit.DataInvert);
 8005d3e:	687b      	ldr	r3, [r7, #4]
 8005d40:	681b      	ldr	r3, [r3, #0]
 8005d42:	685b      	ldr	r3, [r3, #4]
 8005d44:	f423 2180 	bic.w	r1, r3, #262144	@ 0x40000
 8005d48:	687b      	ldr	r3, [r7, #4]
 8005d4a:	6b5a      	ldr	r2, [r3, #52]	@ 0x34
 8005d4c:	687b      	ldr	r3, [r7, #4]
 8005d4e:	681b      	ldr	r3, [r3, #0]
 8005d50:	430a      	orrs	r2, r1
 8005d52:	605a      	str	r2, [r3, #4]
  }

  /* if required, configure RX overrun detection disabling */
  if (HAL_IS_BIT_SET(huart->AdvancedInit.AdvFeatureInit, UART_ADVFEATURE_RXOVERRUNDISABLE_INIT))
 8005d54:	687b      	ldr	r3, [r7, #4]
 8005d56:	6a9b      	ldr	r3, [r3, #40]	@ 0x28
 8005d58:	f003 0310 	and.w	r3, r3, #16
 8005d5c:	2b00      	cmp	r3, #0
 8005d5e:	d00a      	beq.n	8005d76 <UART_AdvFeatureConfig+0xb2>
  {
    assert_param(IS_UART_OVERRUN(huart->AdvancedInit.OverrunDisable));
    MODIFY_REG(huart->Instance->CR3, USART_CR3_OVRDIS, huart->AdvancedInit.OverrunDisable);
 8005d60:	687b      	ldr	r3, [r7, #4]
 8005d62:	681b      	ldr	r3, [r3, #0]
 8005d64:	689b      	ldr	r3, [r3, #8]
 8005d66:	f423 5180 	bic.w	r1, r3, #4096	@ 0x1000
 8005d6a:	687b      	ldr	r3, [r7, #4]
 8005d6c:	6bda      	ldr	r2, [r3, #60]	@ 0x3c
 8005d6e:	687b      	ldr	r3, [r7, #4]
 8005d70:	681b      	ldr	r3, [r3, #0]
 8005d72:	430a      	orrs	r2, r1
 8005d74:	609a      	str	r2, [r3, #8]
  }

  /* if required, configure DMA disabling on reception error */
  if (HAL_IS_BIT_SET(huart->AdvancedInit.AdvFeatureInit, UART_ADVFEATURE_DMADISABLEONERROR_INIT))
 8005d76:	687b      	ldr	r3, [r7, #4]
 8005d78:	6a9b      	ldr	r3, [r3, #40]	@ 0x28
 8005d7a:	f003 0320 	and.w	r3, r3, #32
 8005d7e:	2b00      	cmp	r3, #0
 8005d80:	d00a      	beq.n	8005d98 <UART_AdvFeatureConfig+0xd4>
  {
    assert_param(IS_UART_ADVFEATURE_DMAONRXERROR(huart->AdvancedInit.DMADisableonRxError));
    MODIFY_REG(huart->Instance->CR3, USART_CR3_DDRE, huart->AdvancedInit.DMADisableonRxError);
 8005d82:	687b      	ldr	r3, [r7, #4]
 8005d84:	681b      	ldr	r3, [r3, #0]
 8005d86:	689b      	ldr	r3, [r3, #8]
 8005d88:	f423 5100 	bic.w	r1, r3, #8192	@ 0x2000
 8005d8c:	687b      	ldr	r3, [r7, #4]
 8005d8e:	6c1a      	ldr	r2, [r3, #64]	@ 0x40
 8005d90:	687b      	ldr	r3, [r7, #4]
 8005d92:	681b      	ldr	r3, [r3, #0]
 8005d94:	430a      	orrs	r2, r1
 8005d96:	609a      	str	r2, [r3, #8]
  }

  /* if required, configure auto Baud rate detection scheme */
  if (HAL_IS_BIT_SET(huart->AdvancedInit.AdvFeatureInit, UART_ADVFEATURE_AUTOBAUDRATE_INIT))
 8005d98:	687b      	ldr	r3, [r7, #4]
 8005d9a:	6a9b      	ldr	r3, [r3, #40]	@ 0x28
 8005d9c:	f003 0340 	and.w	r3, r3, #64	@ 0x40
 8005da0:	2b00      	cmp	r3, #0
 8005da2:	d01a      	beq.n	8005dda <UART_AdvFeatureConfig+0x116>
  {
    assert_param(IS_USART_AUTOBAUDRATE_DETECTION_INSTANCE(huart->Instance));
    assert_param(IS_UART_ADVFEATURE_AUTOBAUDRATE(huart->AdvancedInit.AutoBaudRateEnable));
    MODIFY_REG(huart->Instance->CR2, USART_CR2_ABREN, huart->AdvancedInit.AutoBaudRateEnable);
 8005da4:	687b      	ldr	r3, [r7, #4]
 8005da6:	681b      	ldr	r3, [r3, #0]
 8005da8:	685b      	ldr	r3, [r3, #4]
 8005daa:	f423 1180 	bic.w	r1, r3, #1048576	@ 0x100000
 8005dae:	687b      	ldr	r3, [r7, #4]
 8005db0:	6c5a      	ldr	r2, [r3, #68]	@ 0x44
 8005db2:	687b      	ldr	r3, [r7, #4]
 8005db4:	681b      	ldr	r3, [r3, #0]
 8005db6:	430a      	orrs	r2, r1
 8005db8:	605a      	str	r2, [r3, #4]
    /* set auto Baudrate detection parameters if detection is enabled */
    if (huart->AdvancedInit.AutoBaudRateEnable == UART_ADVFEATURE_AUTOBAUDRATE_ENABLE)
 8005dba:	687b      	ldr	r3, [r7, #4]
 8005dbc:	6c5b      	ldr	r3, [r3, #68]	@ 0x44
 8005dbe:	f5b3 1f80 	cmp.w	r3, #1048576	@ 0x100000
 8005dc2:	d10a      	bne.n	8005dda <UART_AdvFeatureConfig+0x116>
    {
      assert_param(IS_UART_ADVFEATURE_AUTOBAUDRATEMODE(huart->AdvancedInit.AutoBaudRateMode));
      MODIFY_REG(huart->Instance->CR2, USART_CR2_ABRMODE, huart->AdvancedInit.AutoBaudRateMode);
 8005dc4:	687b      	ldr	r3, [r7, #4]
 8005dc6:	681b      	ldr	r3, [r3, #0]
 8005dc8:	685b      	ldr	r3, [r3, #4]
 8005dca:	f423 01c0 	bic.w	r1, r3, #6291456	@ 0x600000
 8005dce:	687b      	ldr	r3, [r7, #4]
 8005dd0:	6c9a      	ldr	r2, [r3, #72]	@ 0x48
 8005dd2:	687b      	ldr	r3, [r7, #4]
 8005dd4:	681b      	ldr	r3, [r3, #0]
 8005dd6:	430a      	orrs	r2, r1
 8005dd8:	605a      	str	r2, [r3, #4]
    }
  }

  /* if required, configure MSB first on communication line */
  if (HAL_IS_BIT_SET(huart->AdvancedInit.AdvFeatureInit, UART_ADVFEATURE_MSBFIRST_INIT))
 8005dda:	687b      	ldr	r3, [r7, #4]
 8005ddc:	6a9b      	ldr	r3, [r3, #40]	@ 0x28
 8005dde:	f003 0380 	and.w	r3, r3, #128	@ 0x80
 8005de2:	2b00      	cmp	r3, #0
 8005de4:	d00a      	beq.n	8005dfc <UART_AdvFeatureConfig+0x138>
  {
    assert_param(IS_UART_ADVFEATURE_MSBFIRST(huart->AdvancedInit.MSBFirst));
    MODIFY_REG(huart->Instance->CR2, USART_CR2_MSBFIRST, huart->AdvancedInit.MSBFirst);
 8005de6:	687b      	ldr	r3, [r7, #4]
 8005de8:	681b      	ldr	r3, [r3, #0]
 8005dea:	685b      	ldr	r3, [r3, #4]
 8005dec:	f423 2100 	bic.w	r1, r3, #524288	@ 0x80000
 8005df0:	687b      	ldr	r3, [r7, #4]
 8005df2:	6cda      	ldr	r2, [r3, #76]	@ 0x4c
 8005df4:	687b      	ldr	r3, [r7, #4]
 8005df6:	681b      	ldr	r3, [r3, #0]
 8005df8:	430a      	orrs	r2, r1
 8005dfa:	605a      	str	r2, [r3, #4]
  }
}
 8005dfc:	bf00      	nop
 8005dfe:	370c      	adds	r7, #12
 8005e00:	46bd      	mov	sp, r7
 8005e02:	f85d 7b04 	ldr.w	r7, [sp], #4
 8005e06:	4770      	bx	lr

08005e08 <UART_CheckIdleState>:
  * @brief Check the UART Idle State.
  * @param huart UART handle.
  * @retval HAL status
  */
HAL_StatusTypeDef UART_CheckIdleState(UART_HandleTypeDef *huart)
{
 8005e08:	b580      	push	{r7, lr}
 8005e0a:	b098      	sub	sp, #96	@ 0x60
 8005e0c:	af02      	add	r7, sp, #8
 8005e0e:	6078      	str	r0, [r7, #4]
  uint32_t tickstart;

  /* Initialize the UART ErrorCode */
  huart->ErrorCode = HAL_UART_ERROR_NONE;
 8005e10:	687b      	ldr	r3, [r7, #4]
 8005e12:	2200      	movs	r2, #0
 8005e14:	f8c3 2090 	str.w	r2, [r3, #144]	@ 0x90

  /* Init tickstart for timeout management */
  tickstart = HAL_GetTick();
 8005e18:	f7fb f99e 	bl	8001158 <HAL_GetTick>
 8005e1c:	6578      	str	r0, [r7, #84]	@ 0x54

  /* Check if the Transmitter is enabled */
  if ((huart->Instance->CR1 & USART_CR1_TE) == USART_CR1_TE)
 8005e1e:	687b      	ldr	r3, [r7, #4]
 8005e20:	681b      	ldr	r3, [r3, #0]
 8005e22:	681b      	ldr	r3, [r3, #0]
 8005e24:	f003 0308 	and.w	r3, r3, #8
 8005e28:	2b08      	cmp	r3, #8
 8005e2a:	d12f      	bne.n	8005e8c <UART_CheckIdleState+0x84>
  {
    /* Wait until TEACK flag is set */
    if (UART_WaitOnFlagUntilTimeout(huart, USART_ISR_TEACK, RESET, tickstart, HAL_UART_TIMEOUT_VALUE) != HAL_OK)
 8005e2c:	f06f 437e 	mvn.w	r3, #4261412864	@ 0xfe000000
 8005e30:	9300      	str	r3, [sp, #0]
 8005e32:	6d7b      	ldr	r3, [r7, #84]	@ 0x54
 8005e34:	2200      	movs	r2, #0
 8005e36:	f44f 1100 	mov.w	r1, #2097152	@ 0x200000
 8005e3a:	6878      	ldr	r0, [r7, #4]
 8005e3c:	f000 f88e 	bl	8005f5c <UART_WaitOnFlagUntilTimeout>
 8005e40:	4603      	mov	r3, r0
 8005e42:	2b00      	cmp	r3, #0
 8005e44:	d022      	beq.n	8005e8c <UART_CheckIdleState+0x84>
    {
      /* Disable TXE interrupt for the interrupt process */
      ATOMIC_CLEAR_BIT(huart->Instance->CR1, (USART_CR1_TXEIE_TXFNFIE));
 8005e46:	687b      	ldr	r3, [r7, #4]
 8005e48:	681b      	ldr	r3, [r3, #0]
 8005e4a:	63bb      	str	r3, [r7, #56]	@ 0x38
   __ASM volatile ("ldrex %0, %1" : "=r" (result) : "Q" (*addr) );
 8005e4c:	6bbb      	ldr	r3, [r7, #56]	@ 0x38
 8005e4e:	e853 3f00 	ldrex	r3, [r3]
 8005e52:	637b      	str	r3, [r7, #52]	@ 0x34
   return(result);
 8005e54:	6b7b      	ldr	r3, [r7, #52]	@ 0x34
 8005e56:	f023 0380 	bic.w	r3, r3, #128	@ 0x80
 8005e5a:	653b      	str	r3, [r7, #80]	@ 0x50
 8005e5c:	687b      	ldr	r3, [r7, #4]
 8005e5e:	681b      	ldr	r3, [r3, #0]
 8005e60:	461a      	mov	r2, r3
 8005e62:	6d3b      	ldr	r3, [r7, #80]	@ 0x50
 8005e64:	647b      	str	r3, [r7, #68]	@ 0x44
 8005e66:	643a      	str	r2, [r7, #64]	@ 0x40
   __ASM volatile ("strex %0, %2, %1" : "=&r" (result), "=Q" (*addr) : "r" (value) );
 8005e68:	6c39      	ldr	r1, [r7, #64]	@ 0x40
 8005e6a:	6c7a      	ldr	r2, [r7, #68]	@ 0x44
 8005e6c:	e841 2300 	strex	r3, r2, [r1]
 8005e70:	63fb      	str	r3, [r7, #60]	@ 0x3c
   return(result);
 8005e72:	6bfb      	ldr	r3, [r7, #60]	@ 0x3c
 8005e74:	2b00      	cmp	r3, #0
 8005e76:	d1e6      	bne.n	8005e46 <UART_CheckIdleState+0x3e>

      huart->gState = HAL_UART_STATE_READY;
 8005e78:	687b      	ldr	r3, [r7, #4]
 8005e7a:	2220      	movs	r2, #32
 8005e7c:	f8c3 2088 	str.w	r2, [r3, #136]	@ 0x88

      __HAL_UNLOCK(huart);
 8005e80:	687b      	ldr	r3, [r7, #4]
 8005e82:	2200      	movs	r2, #0
 8005e84:	f883 2084 	strb.w	r2, [r3, #132]	@ 0x84

      /* Timeout occurred */
      return HAL_TIMEOUT;
 8005e88:	2303      	movs	r3, #3
 8005e8a:	e063      	b.n	8005f54 <UART_CheckIdleState+0x14c>
    }
  }

  /* Check if the Receiver is enabled */
  if ((huart->Instance->CR1 & USART_CR1_RE) == USART_CR1_RE)
 8005e8c:	687b      	ldr	r3, [r7, #4]
 8005e8e:	681b      	ldr	r3, [r3, #0]
 8005e90:	681b      	ldr	r3, [r3, #0]
 8005e92:	f003 0304 	and.w	r3, r3, #4
 8005e96:	2b04      	cmp	r3, #4
 8005e98:	d149      	bne.n	8005f2e <UART_CheckIdleState+0x126>
  {
    /* Wait until REACK flag is set */
    if (UART_WaitOnFlagUntilTimeout(huart, USART_ISR_REACK, RESET, tickstart, HAL_UART_TIMEOUT_VALUE) != HAL_OK)
 8005e9a:	f06f 437e 	mvn.w	r3, #4261412864	@ 0xfe000000
 8005e9e:	9300      	str	r3, [sp, #0]
 8005ea0:	6d7b      	ldr	r3, [r7, #84]	@ 0x54
 8005ea2:	2200      	movs	r2, #0
 8005ea4:	f44f 0180 	mov.w	r1, #4194304	@ 0x400000
 8005ea8:	6878      	ldr	r0, [r7, #4]
 8005eaa:	f000 f857 	bl	8005f5c <UART_WaitOnFlagUntilTimeout>
 8005eae:	4603      	mov	r3, r0
 8005eb0:	2b00      	cmp	r3, #0
 8005eb2:	d03c      	beq.n	8005f2e <UART_CheckIdleState+0x126>
    {
      /* Disable RXNE, PE and ERR (Frame error, noise error, overrun error)
      interrupts for the interrupt process */
      ATOMIC_CLEAR_BIT(huart->Instance->CR1, (USART_CR1_RXNEIE_RXFNEIE | USART_CR1_PEIE));
 8005eb4:	687b      	ldr	r3, [r7, #4]
 8005eb6:	681b      	ldr	r3, [r3, #0]
 8005eb8:	627b      	str	r3, [r7, #36]	@ 0x24
   __ASM volatile ("ldrex %0, %1" : "=r" (result) : "Q" (*addr) );
 8005eba:	6a7b      	ldr	r3, [r7, #36]	@ 0x24
 8005ebc:	e853 3f00 	ldrex	r3, [r3]
 8005ec0:	623b      	str	r3, [r7, #32]
   return(result);
 8005ec2:	6a3b      	ldr	r3, [r7, #32]
 8005ec4:	f423 7390 	bic.w	r3, r3, #288	@ 0x120
 8005ec8:	64fb      	str	r3, [r7, #76]	@ 0x4c
 8005eca:	687b      	ldr	r3, [r7, #4]
 8005ecc:	681b      	ldr	r3, [r3, #0]
 8005ece:	461a      	mov	r2, r3
 8005ed0:	6cfb      	ldr	r3, [r7, #76]	@ 0x4c
 8005ed2:	633b      	str	r3, [r7, #48]	@ 0x30
 8005ed4:	62fa      	str	r2, [r7, #44]	@ 0x2c
   __ASM volatile ("strex %0, %2, %1" : "=&r" (result), "=Q" (*addr) : "r" (value) );
 8005ed6:	6af9      	ldr	r1, [r7, #44]	@ 0x2c
 8005ed8:	6b3a      	ldr	r2, [r7, #48]	@ 0x30
 8005eda:	e841 2300 	strex	r3, r2, [r1]
 8005ede:	62bb      	str	r3, [r7, #40]	@ 0x28
   return(result);
 8005ee0:	6abb      	ldr	r3, [r7, #40]	@ 0x28
 8005ee2:	2b00      	cmp	r3, #0
 8005ee4:	d1e6      	bne.n	8005eb4 <UART_CheckIdleState+0xac>
      ATOMIC_CLEAR_BIT(huart->Instance->CR3, USART_CR3_EIE);
 8005ee6:	687b      	ldr	r3, [r7, #4]
 8005ee8:	681b      	ldr	r3, [r3, #0]
 8005eea:	3308      	adds	r3, #8
 8005eec:	613b      	str	r3, [r7, #16]
   __ASM volatile ("ldrex %0, %1" : "=r" (result) : "Q" (*addr) );
 8005eee:	693b      	ldr	r3, [r7, #16]
 8005ef0:	e853 3f00 	ldrex	r3, [r3]
 8005ef4:	60fb      	str	r3, [r7, #12]
   return(result);
 8005ef6:	68fb      	ldr	r3, [r7, #12]
 8005ef8:	f023 0301 	bic.w	r3, r3, #1
 8005efc:	64bb      	str	r3, [r7, #72]	@ 0x48
 8005efe:	687b      	ldr	r3, [r7, #4]
 8005f00:	681b      	ldr	r3, [r3, #0]
 8005f02:	3308      	adds	r3, #8
 8005f04:	6cba      	ldr	r2, [r7, #72]	@ 0x48
 8005f06:	61fa      	str	r2, [r7, #28]
 8005f08:	61bb      	str	r3, [r7, #24]
   __ASM volatile ("strex %0, %2, %1" : "=&r" (result), "=Q" (*addr) : "r" (value) );
 8005f0a:	69b9      	ldr	r1, [r7, #24]
 8005f0c:	69fa      	ldr	r2, [r7, #28]
 8005f0e:	e841 2300 	strex	r3, r2, [r1]
 8005f12:	617b      	str	r3, [r7, #20]
   return(result);
 8005f14:	697b      	ldr	r3, [r7, #20]
 8005f16:	2b00      	cmp	r3, #0
 8005f18:	d1e5      	bne.n	8005ee6 <UART_CheckIdleState+0xde>

      huart->RxState = HAL_UART_STATE_READY;
 8005f1a:	687b      	ldr	r3, [r7, #4]
 8005f1c:	2220      	movs	r2, #32
 8005f1e:	f8c3 208c 	str.w	r2, [r3, #140]	@ 0x8c

      __HAL_UNLOCK(huart);
 8005f22:	687b      	ldr	r3, [r7, #4]
 8005f24:	2200      	movs	r2, #0
 8005f26:	f883 2084 	strb.w	r2, [r3, #132]	@ 0x84

      /* Timeout occurred */
      return HAL_TIMEOUT;
 8005f2a:	2303      	movs	r3, #3
 8005f2c:	e012      	b.n	8005f54 <UART_CheckIdleState+0x14c>
    }
  }

  /* Initialize the UART State */
  huart->gState = HAL_UART_STATE_READY;
 8005f2e:	687b      	ldr	r3, [r7, #4]
 8005f30:	2220      	movs	r2, #32
 8005f32:	f8c3 2088 	str.w	r2, [r3, #136]	@ 0x88
  huart->RxState = HAL_UART_STATE_READY;
 8005f36:	687b      	ldr	r3, [r7, #4]
 8005f38:	2220      	movs	r2, #32
 8005f3a:	f8c3 208c 	str.w	r2, [r3, #140]	@ 0x8c
  huart->ReceptionType = HAL_UART_RECEPTION_STANDARD;
 8005f3e:	687b      	ldr	r3, [r7, #4]
 8005f40:	2200      	movs	r2, #0
 8005f42:	66da      	str	r2, [r3, #108]	@ 0x6c
  huart->RxEventType = HAL_UART_RXEVENT_TC;
 8005f44:	687b      	ldr	r3, [r7, #4]
 8005f46:	2200      	movs	r2, #0
 8005f48:	671a      	str	r2, [r3, #112]	@ 0x70

  __HAL_UNLOCK(huart);
 8005f4a:	687b      	ldr	r3, [r7, #4]
 8005f4c:	2200      	movs	r2, #0
 8005f4e:	f883 2084 	strb.w	r2, [r3, #132]	@ 0x84

  return HAL_OK;
 8005f52:	2300      	movs	r3, #0
}
 8005f54:	4618      	mov	r0, r3
 8005f56:	3758      	adds	r7, #88	@ 0x58
 8005f58:	46bd      	mov	sp, r7
 8005f5a:	bd80      	pop	{r7, pc}

08005f5c <UART_WaitOnFlagUntilTimeout>:
  * @param Timeout   Timeout duration
  * @retval HAL status
  */
HAL_StatusTypeDef UART_WaitOnFlagUntilTimeout(UART_HandleTypeDef *huart, uint32_t Flag, FlagStatus Status,
                                              uint32_t Tickstart, uint32_t Timeout)
{
 8005f5c:	b580      	push	{r7, lr}
 8005f5e:	b084      	sub	sp, #16
 8005f60:	af00      	add	r7, sp, #0
 8005f62:	60f8      	str	r0, [r7, #12]
 8005f64:	60b9      	str	r1, [r7, #8]
 8005f66:	603b      	str	r3, [r7, #0]
 8005f68:	4613      	mov	r3, r2
 8005f6a:	71fb      	strb	r3, [r7, #7]
  /* Wait until flag is set */
  while ((__HAL_UART_GET_FLAG(huart, Flag) ? SET : RESET) == Status)
 8005f6c:	e04f      	b.n	800600e <UART_WaitOnFlagUntilTimeout+0xb2>
  {
    /* Check for the Timeout */
    if (Timeout != HAL_MAX_DELAY)
 8005f6e:	69bb      	ldr	r3, [r7, #24]
 8005f70:	f1b3 3fff 	cmp.w	r3, #4294967295
 8005f74:	d04b      	beq.n	800600e <UART_WaitOnFlagUntilTimeout+0xb2>
    {
      if (((HAL_GetTick() - Tickstart) > Timeout) || (Timeout == 0U))
 8005f76:	f7fb f8ef 	bl	8001158 <HAL_GetTick>
 8005f7a:	4602      	mov	r2, r0
 8005f7c:	683b      	ldr	r3, [r7, #0]
 8005f7e:	1ad3      	subs	r3, r2, r3
 8005f80:	69ba      	ldr	r2, [r7, #24]
 8005f82:	429a      	cmp	r2, r3
 8005f84:	d302      	bcc.n	8005f8c <UART_WaitOnFlagUntilTimeout+0x30>
 8005f86:	69bb      	ldr	r3, [r7, #24]
 8005f88:	2b00      	cmp	r3, #0
 8005f8a:	d101      	bne.n	8005f90 <UART_WaitOnFlagUntilTimeout+0x34>
      {

        return HAL_TIMEOUT;
 8005f8c:	2303      	movs	r3, #3
 8005f8e:	e04e      	b.n	800602e <UART_WaitOnFlagUntilTimeout+0xd2>
      }

      if ((READ_BIT(huart->Instance->CR1, USART_CR1_RE) != 0U) && (Flag != UART_FLAG_TXE) && (Flag != UART_FLAG_TC))
 8005f90:	68fb      	ldr	r3, [r7, #12]
 8005f92:	681b      	ldr	r3, [r3, #0]
 8005f94:	681b      	ldr	r3, [r3, #0]
 8005f96:	f003 0304 	and.w	r3, r3, #4
 8005f9a:	2b00      	cmp	r3, #0
 8005f9c:	d037      	beq.n	800600e <UART_WaitOnFlagUntilTimeout+0xb2>
 8005f9e:	68bb      	ldr	r3, [r7, #8]
 8005fa0:	2b80      	cmp	r3, #128	@ 0x80
 8005fa2:	d034      	beq.n	800600e <UART_WaitOnFlagUntilTimeout+0xb2>
 8005fa4:	68bb      	ldr	r3, [r7, #8]
 8005fa6:	2b40      	cmp	r3, #64	@ 0x40
 8005fa8:	d031      	beq.n	800600e <UART_WaitOnFlagUntilTimeout+0xb2>
      {
        if (__HAL_UART_GET_FLAG(huart, UART_FLAG_ORE) == SET)
 8005faa:	68fb      	ldr	r3, [r7, #12]
 8005fac:	681b      	ldr	r3, [r3, #0]
 8005fae:	69db      	ldr	r3, [r3, #28]
 8005fb0:	f003 0308 	and.w	r3, r3, #8
 8005fb4:	2b08      	cmp	r3, #8
 8005fb6:	d110      	bne.n	8005fda <UART_WaitOnFlagUntilTimeout+0x7e>
        {
          /* Clear Overrun Error flag*/
          __HAL_UART_CLEAR_FLAG(huart, UART_CLEAR_OREF);
 8005fb8:	68fb      	ldr	r3, [r7, #12]
 8005fba:	681b      	ldr	r3, [r3, #0]
 8005fbc:	2208      	movs	r2, #8
 8005fbe:	621a      	str	r2, [r3, #32]

          /* Blocking error : transfer is aborted
          Set the UART state ready to be able to start again the process,
          Disable Rx Interrupts if ongoing */
          UART_EndRxTransfer(huart);
 8005fc0:	68f8      	ldr	r0, [r7, #12]
 8005fc2:	f000 f839 	bl	8006038 <UART_EndRxTransfer>

          huart->ErrorCode = HAL_UART_ERROR_ORE;
 8005fc6:	68fb      	ldr	r3, [r7, #12]
 8005fc8:	2208      	movs	r2, #8
 8005fca:	f8c3 2090 	str.w	r2, [r3, #144]	@ 0x90

          /* Process Unlocked */
          __HAL_UNLOCK(huart);
 8005fce:	68fb      	ldr	r3, [r7, #12]
 8005fd0:	2200      	movs	r2, #0
 8005fd2:	f883 2084 	strb.w	r2, [r3, #132]	@ 0x84

          return HAL_ERROR;
 8005fd6:	2301      	movs	r3, #1
 8005fd8:	e029      	b.n	800602e <UART_WaitOnFlagUntilTimeout+0xd2>
        }
        if (__HAL_UART_GET_FLAG(huart, UART_FLAG_RTOF) == SET)
 8005fda:	68fb      	ldr	r3, [r7, #12]
 8005fdc:	681b      	ldr	r3, [r3, #0]
 8005fde:	69db      	ldr	r3, [r3, #28]
 8005fe0:	f403 6300 	and.w	r3, r3, #2048	@ 0x800
 8005fe4:	f5b3 6f00 	cmp.w	r3, #2048	@ 0x800
 8005fe8:	d111      	bne.n	800600e <UART_WaitOnFlagUntilTimeout+0xb2>
        {
          /* Clear Receiver Timeout flag*/
          __HAL_UART_CLEAR_FLAG(huart, UART_CLEAR_RTOF);
 8005fea:	68fb      	ldr	r3, [r7, #12]
 8005fec:	681b      	ldr	r3, [r3, #0]
 8005fee:	f44f 6200 	mov.w	r2, #2048	@ 0x800
 8005ff2:	621a      	str	r2, [r3, #32]

          /* Blocking error : transfer is aborted
          Set the UART state ready to be able to start again the process,
          Disable Rx Interrupts if ongoing */
          UART_EndRxTransfer(huart);
 8005ff4:	68f8      	ldr	r0, [r7, #12]
 8005ff6:	f000 f81f 	bl	8006038 <UART_EndRxTransfer>

          huart->ErrorCode = HAL_UART_ERROR_RTO;
 8005ffa:	68fb      	ldr	r3, [r7, #12]
 8005ffc:	2220      	movs	r2, #32
 8005ffe:	f8c3 2090 	str.w	r2, [r3, #144]	@ 0x90

          /* Process Unlocked */
          __HAL_UNLOCK(huart);
 8006002:	68fb      	ldr	r3, [r7, #12]
 8006004:	2200      	movs	r2, #0
 8006006:	f883 2084 	strb.w	r2, [r3, #132]	@ 0x84

          return HAL_TIMEOUT;
 800600a:	2303      	movs	r3, #3
 800600c:	e00f      	b.n	800602e <UART_WaitOnFlagUntilTimeout+0xd2>
  while ((__HAL_UART_GET_FLAG(huart, Flag) ? SET : RESET) == Status)
 800600e:	68fb      	ldr	r3, [r7, #12]
 8006010:	681b      	ldr	r3, [r3, #0]
 8006012:	69da      	ldr	r2, [r3, #28]
 8006014:	68bb      	ldr	r3, [r7, #8]
 8006016:	4013      	ands	r3, r2
 8006018:	68ba      	ldr	r2, [r7, #8]
 800601a:	429a      	cmp	r2, r3
 800601c:	bf0c      	ite	eq
 800601e:	2301      	moveq	r3, #1
 8006020:	2300      	movne	r3, #0
 8006022:	b2db      	uxtb	r3, r3
 8006024:	461a      	mov	r2, r3
 8006026:	79fb      	ldrb	r3, [r7, #7]
 8006028:	429a      	cmp	r2, r3
 800602a:	d0a0      	beq.n	8005f6e <UART_WaitOnFlagUntilTimeout+0x12>
        }
      }
    }
  }
  return HAL_OK;
 800602c:	2300      	movs	r3, #0
}
 800602e:	4618      	mov	r0, r3
 8006030:	3710      	adds	r7, #16
 8006032:	46bd      	mov	sp, r7
 8006034:	bd80      	pop	{r7, pc}
	...

08006038 <UART_EndRxTransfer>:
  * @brief  End ongoing Rx transfer on UART peripheral (following error detection or Reception completion).
  * @param  huart UART handle.
  * @retval None
  */
static void UART_EndRxTransfer(UART_HandleTypeDef *huart)
{
 8006038:	b480      	push	{r7}
 800603a:	b095      	sub	sp, #84	@ 0x54
 800603c:	af00      	add	r7, sp, #0
 800603e:	6078      	str	r0, [r7, #4]
  /* Disable RXNE, PE and ERR (Frame error, noise error, overrun error) interrupts */
  ATOMIC_CLEAR_BIT(huart->Instance->CR1, (USART_CR1_RXNEIE_RXFNEIE | USART_CR1_PEIE));
 8006040:	687b      	ldr	r3, [r7, #4]
 8006042:	681b      	ldr	r3, [r3, #0]
 8006044:	637b      	str	r3, [r7, #52]	@ 0x34
   __ASM volatile ("ldrex %0, %1" : "=r" (result) : "Q" (*addr) );
 8006046:	6b7b      	ldr	r3, [r7, #52]	@ 0x34
 8006048:	e853 3f00 	ldrex	r3, [r3]
 800604c:	633b      	str	r3, [r7, #48]	@ 0x30
   return(result);
 800604e:	6b3b      	ldr	r3, [r7, #48]	@ 0x30
 8006050:	f423 7390 	bic.w	r3, r3, #288	@ 0x120
 8006054:	64fb      	str	r3, [r7, #76]	@ 0x4c
 8006056:	687b      	ldr	r3, [r7, #4]
 8006058:	681b      	ldr	r3, [r3, #0]
 800605a:	461a      	mov	r2, r3
 800605c:	6cfb      	ldr	r3, [r7, #76]	@ 0x4c
 800605e:	643b      	str	r3, [r7, #64]	@ 0x40
 8006060:	63fa      	str	r2, [r7, #60]	@ 0x3c
   __ASM volatile ("strex %0, %2, %1" : "=&r" (result), "=Q" (*addr) : "r" (value) );
 8006062:	6bf9      	ldr	r1, [r7, #60]	@ 0x3c
 8006064:	6c3a      	ldr	r2, [r7, #64]	@ 0x40
 8006066:	e841 2300 	strex	r3, r2, [r1]
 800606a:	63bb      	str	r3, [r7, #56]	@ 0x38
   return(result);
 800606c:	6bbb      	ldr	r3, [r7, #56]	@ 0x38
 800606e:	2b00      	cmp	r3, #0
 8006070:	d1e6      	bne.n	8006040 <UART_EndRxTransfer+0x8>
  ATOMIC_CLEAR_BIT(huart->Instance->CR3, (USART_CR3_EIE | USART_CR3_RXFTIE));
 8006072:	687b      	ldr	r3, [r7, #4]
 8006074:	681b      	ldr	r3, [r3, #0]
 8006076:	3308      	adds	r3, #8
 8006078:	623b      	str	r3, [r7, #32]
   __ASM volatile ("ldrex %0, %1" : "=r" (result) : "Q" (*addr) );
 800607a:	6a3b      	ldr	r3, [r7, #32]
 800607c:	e853 3f00 	ldrex	r3, [r3]
 8006080:	61fb      	str	r3, [r7, #28]
   return(result);
 8006082:	69fa      	ldr	r2, [r7, #28]
 8006084:	4b1e      	ldr	r3, [pc, #120]	@ (8006100 <UART_EndRxTransfer+0xc8>)
 8006086:	4013      	ands	r3, r2
 8006088:	64bb      	str	r3, [r7, #72]	@ 0x48
 800608a:	687b      	ldr	r3, [r7, #4]
 800608c:	681b      	ldr	r3, [r3, #0]
 800608e:	3308      	adds	r3, #8
 8006090:	6cba      	ldr	r2, [r7, #72]	@ 0x48
 8006092:	62fa      	str	r2, [r7, #44]	@ 0x2c
 8006094:	62bb      	str	r3, [r7, #40]	@ 0x28
   __ASM volatile ("strex %0, %2, %1" : "=&r" (result), "=Q" (*addr) : "r" (value) );
 8006096:	6ab9      	ldr	r1, [r7, #40]	@ 0x28
 8006098:	6afa      	ldr	r2, [r7, #44]	@ 0x2c
 800609a:	e841 2300 	strex	r3, r2, [r1]
 800609e:	627b      	str	r3, [r7, #36]	@ 0x24
   return(result);
 80060a0:	6a7b      	ldr	r3, [r7, #36]	@ 0x24
 80060a2:	2b00      	cmp	r3, #0
 80060a4:	d1e5      	bne.n	8006072 <UART_EndRxTransfer+0x3a>

  /* In case of reception waiting for IDLE event, disable also the IDLE IE interrupt source */
  if (huart->ReceptionType == HAL_UART_RECEPTION_TOIDLE)
 80060a6:	687b      	ldr	r3, [r7, #4]
 80060a8:	6edb      	ldr	r3, [r3, #108]	@ 0x6c
 80060aa:	2b01      	cmp	r3, #1
 80060ac:	d118      	bne.n	80060e0 <UART_EndRxTransfer+0xa8>
  {
    ATOMIC_CLEAR_BIT(huart->Instance->CR1, USART_CR1_IDLEIE);
 80060ae:	687b      	ldr	r3, [r7, #4]
 80060b0:	681b      	ldr	r3, [r3, #0]
 80060b2:	60fb      	str	r3, [r7, #12]
   __ASM volatile ("ldrex %0, %1" : "=r" (result) : "Q" (*addr) );
 80060b4:	68fb      	ldr	r3, [r7, #12]
 80060b6:	e853 3f00 	ldrex	r3, [r3]
 80060ba:	60bb      	str	r3, [r7, #8]
   return(result);
 80060bc:	68bb      	ldr	r3, [r7, #8]
 80060be:	f023 0310 	bic.w	r3, r3, #16
 80060c2:	647b      	str	r3, [r7, #68]	@ 0x44
 80060c4:	687b      	ldr	r3, [r7, #4]
 80060c6:	681b      	ldr	r3, [r3, #0]
 80060c8:	461a      	mov	r2, r3
 80060ca:	6c7b      	ldr	r3, [r7, #68]	@ 0x44
 80060cc:	61bb      	str	r3, [r7, #24]
 80060ce:	617a      	str	r2, [r7, #20]
   __ASM volatile ("strex %0, %2, %1" : "=&r" (result), "=Q" (*addr) : "r" (value) );
 80060d0:	6979      	ldr	r1, [r7, #20]
 80060d2:	69ba      	ldr	r2, [r7, #24]
 80060d4:	e841 2300 	strex	r3, r2, [r1]
 80060d8:	613b      	str	r3, [r7, #16]
   return(result);
 80060da:	693b      	ldr	r3, [r7, #16]
 80060dc:	2b00      	cmp	r3, #0
 80060de:	d1e6      	bne.n	80060ae <UART_EndRxTransfer+0x76>
  }

  /* At end of Rx process, restore huart->RxState to Ready */
  huart->RxState = HAL_UART_STATE_READY;
 80060e0:	687b      	ldr	r3, [r7, #4]
 80060e2:	2220      	movs	r2, #32
 80060e4:	f8c3 208c 	str.w	r2, [r3, #140]	@ 0x8c
  huart->ReceptionType = HAL_UART_RECEPTION_STANDARD;
 80060e8:	687b      	ldr	r3, [r7, #4]
 80060ea:	2200      	movs	r2, #0
 80060ec:	66da      	str	r2, [r3, #108]	@ 0x6c

  /* Reset RxIsr function pointer */
  huart->RxISR = NULL;
 80060ee:	687b      	ldr	r3, [r7, #4]
 80060f0:	2200      	movs	r2, #0
 80060f2:	675a      	str	r2, [r3, #116]	@ 0x74
}
 80060f4:	bf00      	nop
 80060f6:	3754      	adds	r7, #84	@ 0x54
 80060f8:	46bd      	mov	sp, r7
 80060fa:	f85d 7b04 	ldr.w	r7, [sp], #4
 80060fe:	4770      	bx	lr
 8006100:	effffffe 	.word	0xeffffffe

08006104 <memset>:
 8006104:	4402      	add	r2, r0
 8006106:	4603      	mov	r3, r0
 8006108:	4293      	cmp	r3, r2
 800610a:	d100      	bne.n	800610e <memset+0xa>
 800610c:	4770      	bx	lr
 800610e:	f803 1b01 	strb.w	r1, [r3], #1
 8006112:	e7f9      	b.n	8006108 <memset+0x4>

08006114 <__libc_init_array>:
 8006114:	b570      	push	{r4, r5, r6, lr}
 8006116:	4b0d      	ldr	r3, [pc, #52]	@ (800614c <__libc_init_array+0x38>)
 8006118:	4d0d      	ldr	r5, [pc, #52]	@ (8006150 <__libc_init_array+0x3c>)
 800611a:	1b5b      	subs	r3, r3, r5
 800611c:	109c      	asrs	r4, r3, #2
 800611e:	2600      	movs	r6, #0
 8006120:	42a6      	cmp	r6, r4
 8006122:	d109      	bne.n	8006138 <__libc_init_array+0x24>
 8006124:	f000 f828 	bl	8006178 <_init>
 8006128:	4d0a      	ldr	r5, [pc, #40]	@ (8006154 <__libc_init_array+0x40>)
 800612a:	4b0b      	ldr	r3, [pc, #44]	@ (8006158 <__libc_init_array+0x44>)
 800612c:	1b5b      	subs	r3, r3, r5
 800612e:	109c      	asrs	r4, r3, #2
 8006130:	2600      	movs	r6, #0
 8006132:	42a6      	cmp	r6, r4
 8006134:	d105      	bne.n	8006142 <__libc_init_array+0x2e>
 8006136:	bd70      	pop	{r4, r5, r6, pc}
 8006138:	f855 3b04 	ldr.w	r3, [r5], #4
 800613c:	4798      	blx	r3
 800613e:	3601      	adds	r6, #1
 8006140:	e7ee      	b.n	8006120 <__libc_init_array+0xc>
 8006142:	f855 3b04 	ldr.w	r3, [r5], #4
 8006146:	4798      	blx	r3
 8006148:	3601      	adds	r6, #1
 800614a:	e7f2      	b.n	8006132 <__libc_init_array+0x1e>
 800614c:	08006228 	.word	0x08006228
 8006150:	08006228 	.word	0x08006228
 8006154:	08006228 	.word	0x08006228
 8006158:	0800622c 	.word	0x0800622c

0800615c <memcpy>:
 800615c:	440a      	add	r2, r1
 800615e:	4291      	cmp	r1, r2
 8006160:	f100 33ff 	add.w	r3, r0, #4294967295
 8006164:	d100      	bne.n	8006168 <memcpy+0xc>
 8006166:	4770      	bx	lr
 8006168:	b510      	push	{r4, lr}
 800616a:	f811 4b01 	ldrb.w	r4, [r1], #1
 800616e:	f803 4f01 	strb.w	r4, [r3, #1]!
 8006172:	4291      	cmp	r1, r2
 8006174:	d1f9      	bne.n	800616a <memcpy+0xe>
 8006176:	bd10      	pop	{r4, pc}

08006178 <_init>:
 8006178:	b5f8      	push	{r3, r4, r5, r6, r7, lr}
 800617a:	bf00      	nop
 800617c:	bcf8      	pop	{r3, r4, r5, r6, r7}
 800617e:	bc08      	pop	{r3}
 8006180:	469e      	mov	lr, r3
 8006182:	4770      	bx	lr

08006184 <_fini>:
 8006184:	b5f8      	push	{r3, r4, r5, r6, r7, lr}
 8006186:	bf00      	nop
 8006188:	bcf8      	pop	{r3, r4, r5, r6, r7}
 800618a:	bc08      	pop	{r3}
 800618c:	469e      	mov	lr, r3
 800618e:	4770      	bx	lr
